TN:
SF:/usr/include/c++/11/ext/new_allocator.h
FN:79,_ZN9__gnu_cxx13new_allocatorISt4pairINSt7__cxx1112basic_stringIcSt11char_traitsIcESaIcEEES7_EEC2Ev
FNDA:0,_ZN9__gnu_cxx13new_allocatorISt4pairINSt7__cxx1112basic_stringIcSt11char_traitsIcESaIcEEES7_EEC2Ev
FN:79,_ZN9__gnu_cxx13new_allocatorIcEC2Ev
FNDA:0,_ZN9__gnu_cxx13new_allocatorIcEC2Ev
FN:82,_ZN9__gnu_cxx13new_allocatorIcEC2ERKS1_
FNDA:0,_ZN9__gnu_cxx13new_allocatorIcEC2ERKS1_
FN:89,_ZN9__gnu_cxx13new_allocatorISt4pairINSt7__cxx1112basic_stringIcSt11char_traitsIcESaIcEEES7_EED2Ev
FNDA:0,_ZN9__gnu_cxx13new_allocatorISt4pairINSt7__cxx1112basic_stringIcSt11char_traitsIcESaIcEEES7_EED2Ev
FN:89,_ZN9__gnu_cxx13new_allocatorIcED2Ev
FNDA:0,_ZN9__gnu_cxx13new_allocatorIcED2Ev
FN:103,_ZN9__gnu_cxx13new_allocatorISt4pairINSt7__cxx1112basic_stringIcSt11char_traitsIcESaIcEEES7_EE8allocateEmPKv
FNDA:0,_ZN9__gnu_cxx13new_allocatorISt4pairINSt7__cxx1112basic_stringIcSt11char_traitsIcESaIcEEES7_EE8allocateEmPKv
FN:132,_ZN9__gnu_cxx13new_allocatorISt4pairINSt7__cxx1112basic_stringIcSt11char_traitsIcESaIcEEES7_EE10deallocateEPS8_m
FNDA:0,_ZN9__gnu_cxx13new_allocatorISt4pairINSt7__cxx1112basic_stringIcSt11char_traitsIcESaIcEEES7_EE10deallocateEPS8_m
FN:154,_ZNK9__gnu_cxx13new_allocatorISt4pairINSt7__cxx1112basic_stringIcSt11char_traitsIcESaIcEEES7_EE8max_sizeEv
FNDA:0,_ZNK9__gnu_cxx13new_allocatorISt4pairINSt7__cxx1112basic_stringIcSt11char_traitsIcESaIcEEES7_EE8max_sizeEv
FN:160,_ZN9__gnu_cxx13new_allocatorISt4pairINSt7__cxx1112basic_stringIcSt11char_traitsIcESaIcEEES7_EE9constructIS8_JS8_EEEvPT_DpOT0_
FNDA:0,_ZN9__gnu_cxx13new_allocatorISt4pairINSt7__cxx1112basic_stringIcSt11char_traitsIcESaIcEEES7_EE9constructIS8_JS8_EEEvPT_DpOT0_
FN:160,_ZN9__gnu_cxx13new_allocatorISt4pairINSt7__cxx1112basic_stringIcSt11char_traitsIcESaIcEEES7_EE9constructIS8_JRS7_SB_EEEvPT_DpOT0_
FNDA:177,_ZN9__gnu_cxx13new_allocatorISt4pairINSt7__cxx1112basic_stringIcSt11char_traitsIcESaIcEEES7_EE9constructIS8_JRS7_SB_EEEvPT_DpOT0_
FN:166,_ZN9__gnu_cxx13new_allocatorISt4pairINSt7__cxx1112basic_stringIcSt11char_traitsIcESaIcEEES7_EE7destroyIS8_EEvPT_
FNDA:0,_ZN9__gnu_cxx13new_allocatorISt4pairINSt7__cxx1112basic_stringIcSt11char_traitsIcESaIcEEES7_EE7destroyIS8_EEvPT_
FN:197,_ZNK9__gnu_cxx13new_allocatorISt4pairINSt7__cxx1112basic_stringIcSt11char_traitsIcESaIcEEES7_EE11_M_max_sizeEv
FNDA:0,_ZNK9__gnu_cxx13new_allocatorISt4pairINSt7__cxx1112basic_stringIcSt11char_traitsIcESaIcEEES7_EE11_M_max_sizeEv
DA:79,0
DA:79,0
DA:82,0
DA:89,0
DA:89,0
DA:103,0
DA:111,0
DA:115,0
DA:116,0
DA:117,0
DA:127,0
DA:132,0
DA:145,0
DA:154,0
DA:155,0
DA:160,0
DA:162,0
DA:160,177
DA:162,177
DA:166,0
DA:168,0
DA:197,0
DA:200,0
end_of_record
SF:/usr/include/c++/11/new
FN:174,_ZnwmPv
FNDA:0,_ZnwmPv
FN:180,_ZdlPvS_
FNDA:0,_ZdlPvS_
DA:174,0
DA:175,0
DA:180,0
end_of_record
SF:/usr/include/c++/11/bits/char_traits.h
FN:106,_ZN9__gnu_cxx11char_traitsIcE2eqERKcS3_
FNDA:0,_ZN9__gnu_cxx11char_traitsIcE2eqERKcS3_
FN:167,_ZN9__gnu_cxx11char_traitsIcE6lengthEPKc
FNDA:0,_ZN9__gnu_cxx11char_traitsIcE6lengthEPKc
FN:364,_ZNSt11char_traitsIcE2ltERKcS2_
FNDA:0,_ZNSt11char_traitsIcE2ltERKcS2_
FN:372,_ZNSt11char_traitsIcE7compareEPKcS2_m
FNDA:0,_ZNSt11char_traitsIcE7compareEPKcS2_m
FN:393,_ZNSt11char_traitsIcE6lengthEPKc
FNDA:0,_ZNSt11char_traitsIcE6lengthEPKc
FN:429,_ZNSt11char_traitsIcE4copyEPcPKcm
FNDA:0,_ZNSt11char_traitsIcE4copyEPcPKcm
DA:106,0
DA:107,0
DA:167,0
DA:170,0
DA:171,0
DA:172,0
DA:173,0
DA:290,0
DA:364,0
DA:367,0
DA:368,0
DA:372,0
DA:374,0
DA:375,0
DA:377,0
DA:379,0
DA:381,0
DA:382,0
DA:383,0
DA:384,0
DA:385,0
DA:386,0
DA:389,0
DA:393,0
DA:396,0
DA:397,0
DA:399,0
DA:429,0
DA:431,0
DA:432,0
DA:437,0
end_of_record
SF:/usr/include/c++/11/bits/stl_vector.h
FN:97,_ZNSt12_Vector_baseISt4pairINSt7__cxx1112basic_stringIcSt11char_traitsIcESaIcEEES6_ESaIS7_EE17_Vector_impl_dataC2Ev
FNDA:0,_ZNSt12_Vector_baseISt4pairINSt7__cxx1112basic_stringIcSt11char_traitsIcESaIcEEES6_ESaIS7_EE17_Vector_impl_dataC2Ev
FN:131,_ZNSt12_Vector_baseISt4pairINSt7__cxx1112basic_stringIcSt11char_traitsIcESaIcEEES6_ESaIS7_EE12_Vector_implC2Ev
FNDA:0,_ZNSt12_Vector_baseISt4pairINSt7__cxx1112basic_stringIcSt11char_traitsIcESaIcEEES6_ESaIS7_EE12_Vector_implC2Ev
FN:276,_ZNSt12_Vector_baseISt4pairINSt7__cxx1112basic_stringIcSt11char_traitsIcESaIcEEES6_ESaIS7_EE19_M_get_Tp_allocatorEv
FNDA:0,_ZNSt12_Vector_baseISt4pairINSt7__cxx1112basic_stringIcSt11char_traitsIcESaIcEEES6_ESaIS7_EE19_M_get_Tp_allocatorEv
FN:280,_ZNKSt12_Vector_baseISt4pairINSt7__cxx1112basic_stringIcSt11char_traitsIcESaIcEEES6_ESaIS7_EE19_M_get_Tp_allocatorEv
FNDA:0,_ZNKSt12_Vector_baseISt4pairINSt7__cxx1112basic_stringIcSt11char_traitsIcESaIcEEES6_ESaIS7_EE19_M_get_Tp_allocatorEv
FN:288,_ZNSt12_Vector_baseISt4pairINSt7__cxx1112basic_stringIcSt11char_traitsIcESaIcEEES6_ESaIS7_EEC2Ev
FNDA:0,_ZNSt12_Vector_baseISt4pairINSt7__cxx1112basic_stringIcSt11char_traitsIcESaIcEEES6_ESaIS7_EEC2Ev
FN:333,_ZNSt12_Vector_baseISt4pairINSt7__cxx1112basic_stringIcSt11char_traitsIcESaIcEEES6_ESaIS7_EED2Ev
FNDA:0,_ZNSt12_Vector_baseISt4pairINSt7__cxx1112basic_stringIcSt11char_traitsIcESaIcEEES6_ESaIS7_EED2Ev
FN:343,_ZNSt12_Vector_baseISt4pairINSt7__cxx1112basic_stringIcSt11char_traitsIcESaIcEEES6_ESaIS7_EE11_M_allocateEm
FNDA:0,_ZNSt12_Vector_baseISt4pairINSt7__cxx1112basic_stringIcSt11char_traitsIcESaIcEEES6_ESaIS7_EE11_M_allocateEm
FN:350,_ZNSt12_Vector_baseISt4pairINSt7__cxx1112basic_stringIcSt11char_traitsIcESaIcEEES6_ESaIS7_EE13_M_deallocateEPS7_m
FNDA:0,_ZNSt12_Vector_baseISt4pairINSt7__cxx1112basic_stringIcSt11char_traitsIcESaIcEEES6_ESaIS7_EE13_M_deallocateEPS7_m
FN:453,_ZNSt6vectorISt4pairINSt7__cxx1112basic_stringIcSt11char_traitsIcESaIcEEES6_ESaIS7_EE14_S_do_relocateEPS7_SA_SA_RS8_St17integral_constantIbLb1EE
FNDA:0,_ZNSt6vectorISt4pairINSt7__cxx1112basic_stringIcSt11char_traitsIcESaIcEEES6_ESaIS7_EE14_S_do_relocateEPS7_SA_SA_RS8_St17integral_constantIbLb1EE
FN:465,_ZNSt6vectorISt4pairINSt7__cxx1112basic_stringIcSt11char_traitsIcESaIcEEES6_ESaIS7_EE11_S_relocateEPS7_SA_SA_RS8_
FNDA:0,_ZNSt6vectorISt4pairINSt7__cxx1112basic_stringIcSt11char_traitsIcESaIcEEES6_ESaIS7_EE11_S_relocateEPS7_SA_SA_RS8_
FN:487,_ZNSt6vectorISt4pairINSt7__cxx1112basic_stringIcSt11char_traitsIcESaIcEEES6_ESaIS7_EEC2Ev
FNDA:0,_ZNSt6vectorISt4pairINSt7__cxx1112basic_stringIcSt11char_traitsIcESaIcEEES6_ESaIS7_EEC2Ev
FN:678,_ZNSt6vectorISt4pairINSt7__cxx1112basic_stringIcSt11char_traitsIcESaIcEEES6_ESaIS7_EED2Ev
FNDA:0,_ZNSt6vectorISt4pairINSt7__cxx1112basic_stringIcSt11char_traitsIcESaIcEEES6_ESaIS7_EED2Ev
FN:811,_ZNSt6vectorISt4pairINSt7__cxx1112basic_stringIcSt11char_traitsIcESaIcEEES6_ESaIS7_EE5beginEv
FNDA:0,_ZNSt6vectorISt4pairINSt7__cxx1112basic_stringIcSt11char_traitsIcESaIcEEES6_ESaIS7_EE5beginEv
FN:829,_ZNSt6vectorISt4pairINSt7__cxx1112basic_stringIcSt11char_traitsIcESaIcEEES6_ESaIS7_EE3endEv
FNDA:0,_ZNSt6vectorISt4pairINSt7__cxx1112basic_stringIcSt11char_traitsIcESaIcEEES6_ESaIS7_EE3endEv
FN:918,_ZNKSt6vectorISt4pairINSt7__cxx1112basic_stringIcSt11char_traitsIcESaIcEEES6_ESaIS7_EE4sizeEv
FNDA:0,_ZNKSt6vectorISt4pairINSt7__cxx1112basic_stringIcSt11char_traitsIcESaIcEEES6_ESaIS7_EE4sizeEv
FN:923,_ZNKSt6vectorISt4pairINSt7__cxx1112basic_stringIcSt11char_traitsIcESaIcEEES6_ESaIS7_EE8max_sizeEv
FNDA:0,_ZNKSt6vectorISt4pairINSt7__cxx1112basic_stringIcSt11char_traitsIcESaIcEEES6_ESaIS7_EE8max_sizeEv
FN:1143,_ZNSt6vectorISt4pairINSt7__cxx1112basic_stringIcSt11char_traitsIcESaIcEEES6_ESaIS7_EE4backEv
FNDA:0,_ZNSt6vectorISt4pairINSt7__cxx1112basic_stringIcSt11char_traitsIcESaIcEEES6_ESaIS7_EE4backEv
FN:1756,_ZNKSt6vectorISt4pairINSt7__cxx1112basic_stringIcSt11char_traitsIcESaIcEEES6_ESaIS7_EE12_M_check_lenEmPKc
FNDA:0,_ZNKSt6vectorISt4pairINSt7__cxx1112basic_stringIcSt11char_traitsIcESaIcEEES6_ESaIS7_EE12_M_check_lenEmPKc
FN:1776,_ZNSt6vectorISt4pairINSt7__cxx1112basic_stringIcSt11char_traitsIcESaIcEEES6_ESaIS7_EE11_S_max_sizeERKS8_
FNDA:0,_ZNSt6vectorISt4pairINSt7__cxx1112basic_stringIcSt11char_traitsIcESaIcEEES6_ESaIS7_EE11_S_max_sizeERKS8_
DA:97,0
DA:98,0
DA:99,0
DA:131,0
DA:133,0
DA:134,0
DA:276,0
DA:277,0
DA:280,0
DA:281,0
DA:288,0
DA:333,0
DA:335,0
DA:336,0
DA:337,0
DA:343,0
DA:346,0
DA:350,0
DA:353,0
DA:354,0
DA:355,0
DA:453,0
DA:456,0
DA:465,0
DA:469,0
DA:487,0
DA:678,0
DA:680,0
DA:681,0
DA:683,0
DA:811,0
DA:812,0
DA:829,0
DA:830,0
DA:918,0
DA:919,0
DA:923,0
DA:924,0
DA:1143,0
DA:1146,0
DA:1756,0
DA:1758,0
DA:1759,0
DA:1761,0
DA:1762,0
DA:1776,0
DA:1781,0
DA:1783,0
DA:1784,0
end_of_record
SF:/usr/include/c++/11/bits/allocator.h
FN:156,_ZNSaISt4pairINSt7__cxx1112basic_stringIcSt11char_traitsIcESaIcEEES5_EEC2Ev
FNDA:0,_ZNSaISt4pairINSt7__cxx1112basic_stringIcSt11char_traitsIcESaIcEEES5_EEC2Ev
FN:174,_ZNSaISt4pairINSt7__cxx1112basic_stringIcSt11char_traitsIcESaIcEEES5_EED2Ev
FNDA:0,_ZNSaISt4pairINSt7__cxx1112basic_stringIcSt11char_traitsIcESaIcEEES5_EED2Ev
DA:156,0
DA:174,0
end_of_record
SF:/home/danilglock-18/laba3/zad1/cpp/node.h
FN:60,_ZN6DHNodeC2Ev
FNDA:785,_ZN6DHNodeC2Ev
FN:70,_ZN6CKNodeC2Ev
FNDA:930,_ZN6CKNodeC2Ev
DA:60,785
DA:70,930
end_of_record
SF:/usr/include/c++/11/bits/basic_string.tcc
FN:206,_ZNSt7__cxx1112basic_stringIcSt11char_traitsIcESaIcEE12_M_constructIPcEEvT_S7_St20forward_iterator_tag
FNDA:0,_ZNSt7__cxx1112basic_stringIcSt11char_traitsIcESaIcEE12_M_constructIPcEEvT_S7_St20forward_iterator_tag
FN:206,_ZNSt7__cxx1112basic_stringIcSt11char_traitsIcESaIcEE12_M_constructIPKcEEvT_S8_St20forward_iterator_tag
FNDA:0,_ZNSt7__cxx1112basic_stringIcSt11char_traitsIcESaIcEE12_M_constructIPKcEEvT_S8_St20forward_iterator_tag
DA:206,0
DA:211,0
DA:212,0
DA:215,0
DA:217,0
DA:219,0
DA:220,0
DA:225,0
DA:226,0
DA:228,0
DA:229,0
DA:232,0
DA:233,0
DA:206,0
DA:211,0
DA:212,0
DA:215,0
DA:217,0
DA:219,0
DA:220,0
DA:225,0
DA:226,0
DA:228,0
DA:229,0
DA:232,0
DA:233,0
end_of_record
SF:/usr/include/c++/11/bits/basic_string.h
FN:251,_ZNSt7__cxx1112basic_stringIcSt11char_traitsIcESaIcEE16_M_construct_auxIPcEEvT_S7_St12__false_type
FNDA:0,_ZNSt7__cxx1112basic_stringIcSt11char_traitsIcESaIcEE16_M_construct_auxIPcEEvT_S7_St12__false_type
FN:271,_ZNSt7__cxx1112basic_stringIcSt11char_traitsIcESaIcEE12_M_constructIPcEEvT_S7_
FNDA:0,_ZNSt7__cxx1112basic_stringIcSt11char_traitsIcESaIcEE12_M_constructIPcEEvT_S7_
FN:533,_ZNSt7__cxx1112basic_stringIcSt11char_traitsIcESaIcEEC2IS3_EEPKcRKS3_
FNDA:0,_ZNSt7__cxx1112basic_stringIcSt11char_traitsIcESaIcEEC2IS3_EEPKcRKS3_
FN:6234,_ZSteqIcEN9__gnu_cxx11__enable_ifIXsrSt9__is_charIT_E7__valueEbE6__typeERKNSt7__cxx1112basic_stringIS3_St11char_traitsIS3_ESaIS3_EEESE_
FNDA:0,_ZSteqIcEN9__gnu_cxx11__enable_ifIXsrSt9__is_charIT_E7__valueEbE6__typeERKNSt7__cxx1112basic_stringIS3_St11char_traitsIS3_ESaIS3_EEESE_
FN:6493,_ZSt4swapIcSt11char_traitsIcESaIcEEvRNSt7__cxx1112basic_stringIT_T0_T1_EES9_
FNDA:90,_ZSt4swapIcSt11char_traitsIcESaIcEEvRNSt7__cxx1112basic_stringIT_T0_T1_EES9_
DA:251,0
DA:255,0
DA:256,0
DA:271,0
DA:274,0
DA:275,0
DA:533,0
DA:534,0
DA:536,0
DA:539,0
DA:540,0
DA:6234,0
DA:6236,0
DA:6237,0
DA:6238,0
DA:6493,90
DA:6496,90
end_of_record
SF:/usr/include/c++/11/bits/stl_algobase.h
FN:230,_ZSt3minImERKT_S2_S2_
FNDA:0,_ZSt3minImERKT_S2_S2_
FN:254,_ZSt3maxImERKT_S2_S2_
FNDA:0,_ZSt3maxImERKT_S2_S2_
FN:313,_ZSt12__niter_baseIPSt4pairINSt7__cxx1112basic_stringIcSt11char_traitsIcESaIcEEES6_EET_S9_
FNDA:0,_ZSt12__niter_baseIPSt4pairINSt7__cxx1112basic_stringIcSt11char_traitsIcESaIcEEES6_EET_S9_
DA:230,0
DA:235,0
DA:236,0
DA:237,0
DA:254,0
DA:259,0
DA:260,0
DA:261,0
DA:313,0
DA:315,0
end_of_record
SF:/usr/include/c++/11/bits/stl_uninitialized.h
FN:986,_ZSt19__relocate_object_aISt4pairINSt7__cxx1112basic_stringIcSt11char_traitsIcESaIcEEES6_ES7_SaIS7_EEvPT_PT0_RT1_
FNDA:0,_ZSt19__relocate_object_aISt4pairINSt7__cxx1112basic_stringIcSt11char_traitsIcESaIcEEES6_ES7_SaIS7_EEvPT_PT0_RT1_
FN:1018,_ZSt14__relocate_a_1IPSt4pairINSt7__cxx1112basic_stringIcSt11char_traitsIcESaIcEEES6_ES8_SaIS7_EET0_T_SB_SA_RT1_
FNDA:0,_ZSt14__relocate_a_1IPSt4pairINSt7__cxx1112basic_stringIcSt11char_traitsIcESaIcEEES6_ES8_SaIS7_EET0_T_SB_SA_RT1_
FN:1040,_ZSt12__relocate_aIPSt4pairINSt7__cxx1112basic_stringIcSt11char_traitsIcESaIcEEES6_ES8_SaIS7_EET0_T_SB_SA_RT1_
FNDA:0,_ZSt12__relocate_aIPSt4pairINSt7__cxx1112basic_stringIcSt11char_traitsIcESaIcEEES6_ES8_SaIS7_EET0_T_SB_SA_RT1_
DA:986,0
DA:994,0
DA:995,0
DA:996,0
DA:1018,0
DA:1030,0
DA:1031,0
DA:1032,0
DA:1034,0
DA:1040,0
DA:1046,0
DA:1048,0
end_of_record
SF:/usr/include/c++/11/bits/stl_iterator_base_types.h
FN:238,_ZSt19__iterator_categoryIPcENSt15iterator_traitsIT_E17iterator_categoryERKS2_
FNDA:0,_ZSt19__iterator_categoryIPcENSt15iterator_traitsIT_E17iterator_categoryERKS2_
FN:238,_ZSt19__iterator_categoryIPKcENSt15iterator_traitsIT_E17iterator_categoryERKS3_
FNDA:0,_ZSt19__iterator_categoryIPKcENSt15iterator_traitsIT_E17iterator_categoryERKS3_
DA:238,0
DA:239,0
DA:238,0
DA:239,0
end_of_record
SF:/home/danilglock-18/laba3/zad1/cpp/hash-table.cpp
FN:12,_ZNK15CuckooHashTable5hash1ERKNSt7__cxx1112basic_stringIcSt11char_traitsIcESaIcEEE
FNDA:524,_ZNK15CuckooHashTable5hash1ERKNSt7__cxx1112basic_stringIcSt11char_traitsIcESaIcEEE
FN:20,_ZNK15CuckooHashTable5hash2ERKNSt7__cxx1112basic_stringIcSt11char_traitsIcESaIcEEE
FNDA:383,_ZNK15CuckooHashTable5hash2ERKNSt7__cxx1112basic_stringIcSt11char_traitsIcESaIcEEE
FN:28,_ZN15CuckooHashTableC2Ei
FNDA:13,_ZN15CuckooHashTableC2Ei
FN:44,_ZN15CuckooHashTableD2Ev
FNDA:13,_ZN15CuckooHashTableD2Ev
FN:49,_ZN15CuckooHashTable6rehashEi
FNDA:6,_ZN15CuckooHashTable6rehashEi
FN:91,_ZN15CuckooHashTable6insertERKNSt7__cxx1112basic_stringIcSt11char_traitsIcESaIcEEERS5_
FNDA:184,_ZN15CuckooHashTable6insertERKNSt7__cxx1112basic_stringIcSt11char_traitsIcESaIcEEERS5_
FN:158,_ZNK15CuckooHashTable6searchERKNSt7__cxx1112basic_stringIcSt11char_traitsIcESaIcEEE
FNDA:131,_ZNK15CuckooHashTable6searchERKNSt7__cxx1112basic_stringIcSt11char_traitsIcESaIcEEE
FN:174,_ZN15CuckooHashTable6removeERKNSt7__cxx1112basic_stringIcSt11char_traitsIcESaIcEEE
FNDA:28,_ZN15CuckooHashTable6removeERKNSt7__cxx1112basic_stringIcSt11char_traitsIcESaIcEEE
FN:194,_ZNK15CuckooHashTable5printEv
FNDA:5,_ZNK15CuckooHashTable5printEv
FN:215,_ZNK15CuckooHashTable14getAllElementsB5cxx11Ev
FNDA:1,_ZNK15CuckooHashTable14getAllElementsB5cxx11Ev
FN:229,_ZNK15CuckooHashTable10saveToFileERSt14basic_ofstreamIcSt11char_traitsIcEE
FNDA:1,_ZNK15CuckooHashTable10saveToFileERSt14basic_ofstreamIcSt11char_traitsIcEE
FN:243,_ZN15CuckooHashTable12loadFromFileERSt14basic_ifstreamIcSt11char_traitsIcEE
FNDA:1,_ZN15CuckooHashTable12loadFromFileERSt14basic_ifstreamIcSt11char_traitsIcEE
FN:258,_ZNK15CuckooHashTable16saveToBinaryFileERSt14basic_ofstreamIcSt11char_traitsIcEE
FNDA:1,_ZNK15CuckooHashTable16saveToBinaryFileERSt14basic_ofstreamIcSt11char_traitsIcEE
FN:288,_ZN15CuckooHashTable18loadFromBinaryFileERSt14basic_ifstreamIcSt11char_traitsIcEE
FNDA:1,_ZN15CuckooHashTable18loadFromBinaryFileERSt14basic_ifstreamIcSt11char_traitsIcEE
FN:320,_ZNK15DoubleHashTable5hash1ERKNSt7__cxx1112basic_stringIcSt11char_traitsIcESaIcEEE
FNDA:335,_ZNK15DoubleHashTable5hash1ERKNSt7__cxx1112basic_stringIcSt11char_traitsIcESaIcEEE
FN:328,_ZNK15DoubleHashTable5hash2ERKNSt7__cxx1112basic_stringIcSt11char_traitsIcESaIcEEE
FNDA:335,_ZNK15DoubleHashTable5hash2ERKNSt7__cxx1112basic_stringIcSt11char_traitsIcESaIcEEE
FN:336,_ZN15DoubleHashTableC2Ei
FNDA:13,_ZN15DoubleHashTableC2Ei
FN:348,_ZN15DoubleHashTableD2Ev
FNDA:13,_ZN15DoubleHashTableD2Ev
FN:352,_ZN15DoubleHashTable6rehashEi
FNDA:7,_ZN15DoubleHashTable6rehashEi
FN:385,_ZN15DoubleHashTable6insertERKNSt7__cxx1112basic_stringIcSt11char_traitsIcESaIcEEERS5_
FNDA:179,_ZN15DoubleHashTable6insertERKNSt7__cxx1112basic_stringIcSt11char_traitsIcESaIcEEERS5_
FN:425,_ZNK15DoubleHashTable6searchERKNSt7__cxx1112basic_stringIcSt11char_traitsIcESaIcEEE
FNDA:131,_ZNK15DoubleHashTable6searchERKNSt7__cxx1112basic_stringIcSt11char_traitsIcESaIcEEE
FN:444,_ZN15DoubleHashTable6removeERKNSt7__cxx1112basic_stringIcSt11char_traitsIcESaIcEEE
FNDA:28,_ZN15DoubleHashTable6removeERKNSt7__cxx1112basic_stringIcSt11char_traitsIcESaIcEEE
FN:468,_ZNK15DoubleHashTable5printEv
FNDA:5,_ZNK15DoubleHashTable5printEv
FN:481,_ZNK15DoubleHashTable14getAllElementsB5cxx11Ev
FNDA:1,_ZNK15DoubleHashTable14getAllElementsB5cxx11Ev
FN:491,_ZNK15DoubleHashTable10saveToFileERSt14basic_ofstreamIcSt11char_traitsIcEE
FNDA:1,_ZNK15DoubleHashTable10saveToFileERSt14basic_ofstreamIcSt11char_traitsIcEE
FN:502,_ZN15DoubleHashTable12loadFromFileERSt14basic_ifstreamIcSt11char_traitsIcEE
FNDA:1,_ZN15DoubleHashTable12loadFromFileERSt14basic_ifstreamIcSt11char_traitsIcEE
FN:517,_ZNK15DoubleHashTable16saveToBinaryFileERSt14basic_ofstreamIcSt11char_traitsIcEE
FNDA:1,_ZNK15DoubleHashTable16saveToBinaryFileERSt14basic_ofstreamIcSt11char_traitsIcEE
FN:536,_ZN15DoubleHashTable18loadFromBinaryFileERSt14basic_ifstreamIcSt11char_traitsIcEE
FNDA:1,_ZN15DoubleHashTable18loadFromBinaryFileERSt14basic_ifstreamIcSt11char_traitsIcEE
DA:12,524
DA:13,524
DA:14,4726
DA:15,4202
DA:17,524
DA:20,383
DA:21,383
DA:22,3455
DA:23,3072
DA:25,383
DA:28,13
DA:29,13
DA:30,13
DA:31,13
DA:33,148
DA:34,148
DA:36,148
DA:37,135
DA:38,135
DA:39,135
DA:40,135
DA:42,13
DA:44,13
DA:45,313
DA:46,313
DA:47,13
DA:49,6
DA:50,6
DA:51,171
DA:52,165
DA:53,65
DA:55,165
DA:56,23
DA:60,6
DA:61,6
DA:62,336
DA:63,336
DA:64,6
DA:65,6
DA:66,6
DA:68,336
DA:69,330
DA:70,330
DA:71,330
DA:72,330
DA:75,6
DA:76,94
DA:77,88
DA:78,88
DA:79,88
DA:80,0
DA:81,0
DA:83,88
DA:85,177
DA:86,177
DA:88,6
DA:89,6
DA:91,184
DA:92,184
DA:93,1
DA:96,183
DA:97,183
DA:99,183
DA:100,1
DA:101,1
DA:103,182
DA:104,0
DA:105,0
DA:108,182
DA:109,182
DA:110,6
DA:111,0
DA:115,182
DA:116,182
DA:117,182
DA:119,184
DA:120,184
DA:121,184
DA:122,141
DA:123,141
DA:124,141
DA:125,141
DA:126,141
DA:127,141
DA:130,43
DA:131,43
DA:133,43
DA:134,43
DA:135,41
DA:136,41
DA:137,41
DA:138,41
DA:139,41
DA:140,41
DA:143,2
DA:144,2
DA:146,2
DA:149,0
DA:150,0
DA:151,0
DA:155,0
DA:156,182
DA:158,131
DA:159,131
DA:160,1
DA:162,130
DA:163,130
DA:165,130
DA:166,85
DA:168,45
DA:169,18
DA:171,27
DA:174,28
DA:175,28
DA:176,1
DA:178,27
DA:179,27
DA:181,27
DA:182,22
DA:183,22
DA:184,22
DA:186,5
DA:187,5
DA:188,5
DA:189,5
DA:191,0
DA:194,5
DA:195,5
DA:196,5
DA:197,5
DA:199,5
DA:200,75
DA:201,70
DA:202,11
DA:205,5
DA:206,5
DA:207,75
DA:208,70
DA:209,5
DA:212,5
DA:213,5
DA:215,1
DA:217,1
DA:218,11
DA:219,10
DA:220,5
DA:222,10
DA:223,0
DA:226,1
DA:227,0
DA:229,1
DA:230,1
DA:231,0
DA:233,11
DA:234,10
DA:235,4
DA:237,10
DA:238,1
DA:243,1
DA:244,1
DA:245,0
DA:247,1
DA:248,6
DA:249,5
DA:250,5
DA:251,5
DA:252,5
DA:253,5
DA:254,5
DA:256,1
DA:258,1
DA:259,1
DA:260,0
DA:262,11
DA:263,10
DA:264,4
DA:265,4
DA:266,4
DA:267,4
DA:269,4
DA:270,4
DA:271,4
DA:272,4
DA:274,10
DA:275,1
DA:276,1
DA:277,1
DA:278,1
DA:280,1
DA:281,1
DA:282,1
DA:283,1
DA:288,1
DA:289,1
DA:290,0
DA:292,6
DA:294,5
DA:295,5
DA:296,0
DA:298,5
DA:299,5
DA:300,5
DA:301,5
DA:302,5
DA:303,5
DA:306,5
DA:307,5
DA:308,5
DA:309,5
DA:310,5
DA:311,5
DA:312,5
DA:314,5
DA:315,5
DA:320,335
DA:321,335
DA:322,3023
DA:323,2688
DA:325,335
DA:328,335
DA:329,335
DA:330,3023
DA:331,2688
DA:333,335
DA:336,13
DA:337,13
DA:338,13
DA:340,148
DA:342,148
DA:343,135
DA:344,135
DA:346,13
DA:348,13
DA:349,473
DA:350,13
DA:352,7
DA:353,7
DA:354,332
DA:355,325
DA:356,79
DA:360,7
DA:361,657
DA:362,7
DA:363,7
DA:365,657
DA:366,650
DA:367,650
DA:370,7
DA:371,86
DA:372,79
DA:373,79
DA:374,79
DA:375,0
DA:376,0
DA:378,79
DA:380,339
DA:382,7
DA:383,7
DA:385,179
DA:386,179
DA:387,1
DA:390,178
DA:391,178
DA:392,3
DA:393,0
DA:397,178
DA:398,178
DA:399,178
DA:401,549
DA:402,545
DA:403,173
DA:404,173
DA:405,173
DA:406,173
DA:407,173
DA:408,173
DA:410,372
DA:411,1
DA:412,1
DA:415,371
DA:418,4
DA:419,4
DA:422,0
DA:425,131
DA:426,131
DA:427,1
DA:429,130
DA:430,130
DA:431,130
DA:432,865
DA:433,863
DA:434,25
DA:436,838
DA:437,103
DA:439,735
DA:441,27
DA:444,28
DA:445,28
DA:446,1
DA:448,27
DA:449,27
DA:450,27
DA:452,29
DA:453,29
DA:454,0
DA:457,29
DA:458,27
DA:459,27
DA:460,27
DA:463,2
DA:465,0
DA:468,5
DA:469,5
DA:470,5
DA:471,5
DA:473,75
DA:474,70
DA:475,16
DA:478,5
DA:479,5
DA:481,1
DA:482,1
DA:483,11
DA:484,10
DA:485,5
DA:488,1
DA:489,0
DA:491,1
DA:492,1
DA:493,0
DA:495,11
DA:496,10
DA:497,5
DA:502,1
DA:503,1
DA:504,0
DA:506,1
DA:507,6
DA:508,5
DA:509,5
DA:510,5
DA:511,5
DA:512,5
DA:513,5
DA:515,1
DA:517,1
DA:518,1
DA:519,0
DA:521,11
DA:522,10
DA:523,5
DA:524,5
DA:525,5
DA:526,5
DA:528,5
DA:529,5
DA:530,5
DA:531,5
DA:536,1
DA:537,1
DA:538,0
DA:540,6
DA:542,5
DA:543,5
DA:544,0
DA:546,5
DA:547,5
DA:548,5
DA:549,5
DA:550,5
DA:551,5
DA:554,5
DA:555,5
DA:556,5
DA:557,5
DA:558,5
DA:559,5
DA:560,5
DA:562,5
DA:563,5
end_of_record
SF:/usr/include/c++/11/bits/move.h
FN:49,_ZSt11__addressofISt4pairINSt7__cxx1112basic_stringIcSt11char_traitsIcESaIcEEES6_EEPT_RS8_
FNDA:0,_ZSt11__addressofISt4pairINSt7__cxx1112basic_stringIcSt11char_traitsIcESaIcEEES6_EEPT_RS8_
FN:77,_ZSt7forwardISt4pairINSt7__cxx1112basic_stringIcSt11char_traitsIcESaIcEEES6_EEOT_RNSt16remove_referenceIS8_E4typeE
FNDA:0,_ZSt7forwardISt4pairINSt7__cxx1112basic_stringIcSt11char_traitsIcESaIcEEES6_EEOT_RNSt16remove_referenceIS8_E4typeE
FN:77,_ZSt7forwardIRNSt7__cxx1112basic_stringIcSt11char_traitsIcESaIcEEEEOT_RNSt16remove_referenceIS7_E4typeE
FNDA:1552,_ZSt7forwardIRNSt7__cxx1112basic_stringIcSt11char_traitsIcESaIcEEEEOT_RNSt16remove_referenceIS7_E4typeE
FN:104,_ZSt4moveIRSt4pairINSt7__cxx1112basic_stringIcSt11char_traitsIcESaIcEEES6_EEONSt16remove_referenceIT_E4typeEOSA_
FNDA:0,_ZSt4moveIRSt4pairINSt7__cxx1112basic_stringIcSt11char_traitsIcESaIcEEES6_EEONSt16remove_referenceIT_E4typeEOSA_
FN:104,_ZSt4moveIRSaIcEEONSt16remove_referenceIT_E4typeEOS3_
FNDA:0,_ZSt4moveIRSaIcEEONSt16remove_referenceIT_E4typeEOS3_
DA:49,0
DA:50,0
DA:77,0
DA:78,0
DA:77,1552
DA:78,1552
DA:104,0
DA:105,0
DA:104,0
DA:105,0
end_of_record
SF:/usr/include/c++/11/bits/stl_construct.h
FN:146,_ZSt8_DestroyISt4pairINSt7__cxx1112basic_stringIcSt11char_traitsIcESaIcEEES6_EEvPT_
FNDA:0,_ZSt8_DestroyISt4pairINSt7__cxx1112basic_stringIcSt11char_traitsIcESaIcEEES6_EEvPT_
FN:160,_ZNSt12_Destroy_auxILb0EE9__destroyIPSt4pairINSt7__cxx1112basic_stringIcSt11char_traitsIcESaIcEEES8_EEEvT_SB_
FNDA:0,_ZNSt12_Destroy_auxILb0EE9__destroyIPSt4pairINSt7__cxx1112basic_stringIcSt11char_traitsIcESaIcEEES8_EEEvT_SB_
FN:182,_ZSt8_DestroyIPSt4pairINSt7__cxx1112basic_stringIcSt11char_traitsIcESaIcEEES6_EEvT_S9_
FNDA:0,_ZSt8_DestroyIPSt4pairINSt7__cxx1112basic_stringIcSt11char_traitsIcESaIcEEES6_EEvT_S9_
DA:146,0
DA:151,0
DA:153,0
DA:160,0
DA:162,0
DA:163,0
DA:164,0
DA:182,0
DA:196,0
DA:197,0
end_of_record
SF:/usr/include/c++/11/ext/alloc_traits.h
FN:97,_ZN9__gnu_cxx14__alloc_traitsISaIcEcE17_S_select_on_copyERKS1_
FNDA:0,_ZN9__gnu_cxx14__alloc_traitsISaIcEcE17_S_select_on_copyERKS1_
DA:97,0
DA:98,0
end_of_record
SF:/usr/include/c++/11/bits/vector.tcc
FN:109,_ZNSt6vectorISt4pairINSt7__cxx1112basic_stringIcSt11char_traitsIcESaIcEEES6_ESaIS7_EE12emplace_backIJRS6_SB_EEERS7_DpOT_
FNDA:177,_ZNSt6vectorISt4pairINSt7__cxx1112basic_stringIcSt11char_traitsIcESaIcEEES6_ESaIS7_EE12emplace_backIJRS6_SB_EEERS7_DpOT_
FN:426,_ZNSt6vectorISt4pairINSt7__cxx1112basic_stringIcSt11char_traitsIcESaIcEEES6_ESaIS7_EE17_M_realloc_insertIJRS6_SB_EEEvN9__gnu_cxx17__normal_iteratorIPS7_S9_EEDpOT_
FNDA:68,_ZNSt6vectorISt4pairINSt7__cxx1112basic_stringIcSt11char_traitsIcESaIcEEES6_ESaIS7_EE17_M_realloc_insertIJRS6_SB_EEEvN9__gnu_cxx17__normal_iteratorIPS7_S9_EEDpOT_
DA:109,177
DA:112,177
DA:115,109
DA:117,109
DA:121,68
DA:123,177
DA:426,68
DA:436,68
DA:437,68
DA:438,68
DA:439,68
DA:440,68
DA:441,68
DA:449,68
DA:450,68
DA:456,68
DA:461,68
DA:462,68
DA:464,68
DA:466,68
DA:467,68
DA:485,0
DA:487,0
DA:488,0
DA:489,0
DA:491,0
DA:492,0
DA:493,0
DA:500,68
DA:501,68
DA:502,68
DA:503,68
DA:504,68
DA:505,68
end_of_record
SF:/usr/include/c++/11/bits/stl_pair.h
FN:315,_ZNSt4pairINSt7__cxx1112basic_stringIcSt11char_traitsIcESaIcEEES5_EC2EOS6_
FNDA:0,_ZNSt4pairINSt7__cxx1112basic_stringIcSt11char_traitsIcESaIcEEES5_EC2EOS6_
FN:352,_ZNSt4pairINSt7__cxx1112basic_stringIcSt11char_traitsIcESaIcEEES5_EC2IRS5_S8_Lb1EEEOT_OT0_
FNDA:177,_ZNSt4pairINSt7__cxx1112basic_stringIcSt11char_traitsIcESaIcEEES5_EC2IRS5_S8_Lb1EEEOT_OT0_
DA:315,0
DA:352,177
DA:353,177
end_of_record
SF:/usr/include/c++/11/bits/alloc_traits.h
FN:463,_ZNSt16allocator_traitsISaISt4pairINSt7__cxx1112basic_stringIcSt11char_traitsIcESaIcEEES6_EEE8allocateERS8_m
FNDA:0,_ZNSt16allocator_traitsISaISt4pairINSt7__cxx1112basic_stringIcSt11char_traitsIcESaIcEEES6_EEE8allocateERS8_m
FN:495,_ZNSt16allocator_traitsISaISt4pairINSt7__cxx1112basic_stringIcSt11char_traitsIcESaIcEEES6_EEE10deallocateERS8_PS7_m
FNDA:0,_ZNSt16allocator_traitsISaISt4pairINSt7__cxx1112basic_stringIcSt11char_traitsIcESaIcEEES6_EEE10deallocateERS8_PS7_m
FN:511,_ZNSt16allocator_traitsISaISt4pairINSt7__cxx1112basic_stringIcSt11char_traitsIcESaIcEEES6_EEE9constructIS7_JS7_EEEvRS8_PT_DpOT0_
FNDA:0,_ZNSt16allocator_traitsISaISt4pairINSt7__cxx1112basic_stringIcSt11char_traitsIcESaIcEEES6_EEE9constructIS7_JS7_EEEvRS8_PT_DpOT0_
FN:511,_ZNSt16allocator_traitsISaISt4pairINSt7__cxx1112basic_stringIcSt11char_traitsIcESaIcEEES6_EEE9constructIS7_JRS6_SB_EEEvRS8_PT_DpOT0_
FNDA:177,_ZNSt16allocator_traitsISaISt4pairINSt7__cxx1112basic_stringIcSt11char_traitsIcESaIcEEES6_EEE9constructIS7_JRS6_SB_EEEvRS8_PT_DpOT0_
FN:531,_ZNSt16allocator_traitsISaISt4pairINSt7__cxx1112basic_stringIcSt11char_traitsIcESaIcEEES6_EEE7destroyIS7_EEvRS8_PT_
FNDA:0,_ZNSt16allocator_traitsISaISt4pairINSt7__cxx1112basic_stringIcSt11char_traitsIcESaIcEEES6_EEE7destroyIS7_EEvRS8_PT_
FN:547,_ZNSt16allocator_traitsISaISt4pairINSt7__cxx1112basic_stringIcSt11char_traitsIcESaIcEEES6_EEE8max_sizeERKS8_
FNDA:0,_ZNSt16allocator_traitsISaISt4pairINSt7__cxx1112basic_stringIcSt11char_traitsIcESaIcEEES6_EEE8max_sizeERKS8_
FN:562,_ZNSt16allocator_traitsISaIcEE37select_on_container_copy_constructionERKS0_
FNDA:0,_ZNSt16allocator_traitsISaIcEE37select_on_container_copy_constructionERKS0_
FN:845,_ZSt8_DestroyIPSt4pairINSt7__cxx1112basic_stringIcSt11char_traitsIcESaIcEEES6_ES7_EvT_S9_RSaIT0_E
FNDA:0,_ZSt8_DestroyIPSt4pairINSt7__cxx1112basic_stringIcSt11char_traitsIcESaIcEEES6_ES7_EvT_S9_RSaIT0_E
DA:463,0
DA:464,0
DA:495,0
DA:496,0
DA:511,0
DA:516,0
DA:520,0
DA:511,177
DA:516,177
DA:520,177
DA:531,0
DA:535,0
DA:539,0
DA:547,0
DA:550,0
DA:562,0
DA:563,0
DA:845,0
DA:848,0
DA:849,0
end_of_record
SF:/usr/include/c++/11/bits/stl_iterator_base_funcs.h
FN:98,_ZSt10__distanceIPcENSt15iterator_traitsIT_E15difference_typeES2_S2_St26random_access_iterator_tag
FNDA:0,_ZSt10__distanceIPcENSt15iterator_traitsIT_E15difference_typeES2_S2_St26random_access_iterator_tag
FN:98,_ZSt10__distanceIPKcENSt15iterator_traitsIT_E15difference_typeES3_S3_St26random_access_iterator_tag
FNDA:0,_ZSt10__distanceIPKcENSt15iterator_traitsIT_E15difference_typeES3_S3_St26random_access_iterator_tag
FN:138,_ZSt8distanceIPcENSt15iterator_traitsIT_E15difference_typeES2_S2_
FNDA:0,_ZSt8distanceIPcENSt15iterator_traitsIT_E15difference_typeES2_S2_
FN:138,_ZSt8distanceIPKcENSt15iterator_traitsIT_E15difference_typeES3_S3_
FNDA:0,_ZSt8distanceIPKcENSt15iterator_traitsIT_E15difference_typeES3_S3_
DA:98,0
DA:104,0
DA:98,0
DA:104,0
DA:138,0
DA:141,0
DA:142,0
DA:138,0
DA:141,0
DA:142,0
end_of_record
SF:/usr/include/c++/11/bits/stl_iterator.h
FN:1027,_ZN9__gnu_cxx17__normal_iteratorIPSt4pairINSt7__cxx1112basic_stringIcSt11char_traitsIcESaIcEEES7_ESt6vectorIS8_SaIS8_EEEC2ERKS9_
FNDA:0,_ZN9__gnu_cxx17__normal_iteratorIPSt4pairINSt7__cxx1112basic_stringIcSt11char_traitsIcESaIcEEES7_ESt6vectorIS8_SaIS8_EEEC2ERKS9_
FN:1042,_ZNK9__gnu_cxx17__normal_iteratorIPSt4pairINSt7__cxx1112basic_stringIcSt11char_traitsIcESaIcEEES7_ESt6vectorIS8_SaIS8_EEEdeEv
FNDA:0,_ZNK9__gnu_cxx17__normal_iteratorIPSt4pairINSt7__cxx1112basic_stringIcSt11char_traitsIcESaIcEEES7_ESt6vectorIS8_SaIS8_EEEdeEv
FN:1042,_ZNK9__gnu_cxx17__normal_iteratorIPKcNSt7__cxx1112basic_stringIcSt11char_traitsIcESaIcEEEEdeEv
FNDA:12650,_ZNK9__gnu_cxx17__normal_iteratorIPKcNSt7__cxx1112basic_stringIcSt11char_traitsIcESaIcEEEEdeEv
FN:1052,_ZN9__gnu_cxx17__normal_iteratorIPSt4pairINSt7__cxx1112basic_stringIcSt11char_traitsIcESaIcEEES7_ESt6vectorIS8_SaIS8_EEEppEv
FNDA:0,_ZN9__gnu_cxx17__normal_iteratorIPSt4pairINSt7__cxx1112basic_stringIcSt11char_traitsIcESaIcEEES7_ESt6vectorIS8_SaIS8_EEEppEv
FN:1052,_ZN9__gnu_cxx17__normal_iteratorIPKcNSt7__cxx1112basic_stringIcSt11char_traitsIcESaIcEEEEppEv
FNDA:12650,_ZN9__gnu_cxx17__normal_iteratorIPKcNSt7__cxx1112basic_stringIcSt11char_traitsIcESaIcEEEEppEv
FN:1100,_ZNK9__gnu_cxx17__normal_iteratorIPSt4pairINSt7__cxx1112basic_stringIcSt11char_traitsIcESaIcEEES7_ESt6vectorIS8_SaIS8_EEEmiEl
FNDA:0,_ZNK9__gnu_cxx17__normal_iteratorIPSt4pairINSt7__cxx1112basic_stringIcSt11char_traitsIcESaIcEEES7_ESt6vectorIS8_SaIS8_EEEmiEl
FN:1105,_ZNK9__gnu_cxx17__normal_iteratorIPSt4pairINSt7__cxx1112basic_stringIcSt11char_traitsIcESaIcEEES7_ESt6vectorIS8_SaIS8_EEE4baseEv
FNDA:0,_ZNK9__gnu_cxx17__normal_iteratorIPSt4pairINSt7__cxx1112basic_stringIcSt11char_traitsIcESaIcEEES7_ESt6vectorIS8_SaIS8_EEE4baseEv
FN:1105,_ZNK9__gnu_cxx17__normal_iteratorIPKcNSt7__cxx1112basic_stringIcSt11char_traitsIcESaIcEEEE4baseEv
FNDA:28454,_ZNK9__gnu_cxx17__normal_iteratorIPKcNSt7__cxx1112basic_stringIcSt11char_traitsIcESaIcEEEE4baseEv
FN:1179,_ZN9__gnu_cxxneIPSt4pairINSt7__cxx1112basic_stringIcSt11char_traitsIcESaIcEEES7_ESt6vectorIS8_SaIS8_EEEEbRKNS_17__normal_iteratorIT_T0_EESI_
FNDA:0,_ZN9__gnu_cxxneIPSt4pairINSt7__cxx1112basic_stringIcSt11char_traitsIcESaIcEEES7_ESt6vectorIS8_SaIS8_EEEEbRKNS_17__normal_iteratorIT_T0_EESI_
FN:1179,_ZN9__gnu_cxxneIPKcNSt7__cxx1112basic_stringIcSt11char_traitsIcESaIcEEEEEbRKNS_17__normal_iteratorIT_T0_EESE_
FNDA:14227,_ZN9__gnu_cxxneIPKcNSt7__cxx1112basic_stringIcSt11char_traitsIcESaIcEEEEEbRKNS_17__normal_iteratorIT_T0_EESE_
FN:1268,_ZN9__gnu_cxxmiIPSt4pairINSt7__cxx1112basic_stringIcSt11char_traitsIcESaIcEEES7_ESt6vectorIS8_SaIS8_EEEENS_17__normal_iteratorIT_T0_E15difference_typeERKSG_SJ_
FNDA:0,_ZN9__gnu_cxxmiIPSt4pairINSt7__cxx1112basic_stringIcSt11char_traitsIcESaIcEEES7_ESt6vectorIS8_SaIS8_EEEENS_17__normal_iteratorIT_T0_E15difference_typeERKSG_SJ_
DA:1027,0
DA:1028,0
DA:1042,0
DA:1043,0
DA:1042,12650
DA:1043,12650
DA:1052,0
DA:1054,0
DA:1055,0
DA:1052,12650
DA:1054,12650
DA:1055,12650
DA:1100,0
DA:1101,0
DA:1105,0
DA:1106,0
DA:1105,28454
DA:1106,28454
DA:1179,0
DA:1182,0
DA:1179,14227
DA:1182,14227
DA:1268,0
DA:1271,0
end_of_record
SF:/usr/include/c++/11/ext/type_traits.h
FN:152,_ZN9__gnu_cxx17__is_null_pointerIcEEbPT_
FNDA:0,_ZN9__gnu_cxx17__is_null_pointerIcEEbPT_
FN:152,_ZN9__gnu_cxx17__is_null_pointerIKcEEbPT_
FNDA:0,_ZN9__gnu_cxx17__is_null_pointerIKcEEbPT_
DA:152,0
DA:153,0
DA:152,0
DA:153,0
end_of_record
SF:/usr/include/c++/11/iostream
end_of_record
TN:
SF:/usr/include/boost/test/tree/test_unit.hpp
FN:263,_ZN5boost9unit_test14make_test_caseERKNS_8functionIFvvEEENS0_13basic_cstringIKcEES8_m
FNDA:20,_ZN5boost9unit_test14make_test_caseERKNS_8functionIFvvEEENS0_13basic_cstringIKcEES8_m
DA:263,20
DA:265,20
end_of_record
SF:/usr/include/c++/11/bits/basic_string.h
FN:251,_ZNSt7__cxx1112basic_stringIcSt11char_traitsIcESaIcEE16_M_construct_auxIPcEEvT_S7_St12__false_type
FNDA:0,_ZNSt7__cxx1112basic_stringIcSt11char_traitsIcESaIcEE16_M_construct_auxIPcEEvT_S7_St12__false_type
FN:251,_ZNSt7__cxx1112basic_stringIcSt11char_traitsIcESaIcEE16_M_construct_auxIPKcEEvT_S8_St12__false_type
FNDA:0,_ZNSt7__cxx1112basic_stringIcSt11char_traitsIcESaIcEE16_M_construct_auxIPKcEEvT_S8_St12__false_type
FN:271,_ZNSt7__cxx1112basic_stringIcSt11char_traitsIcESaIcEE12_M_constructIPcEEvT_S7_
FNDA:0,_ZNSt7__cxx1112basic_stringIcSt11char_traitsIcESaIcEE12_M_constructIPcEEvT_S7_
FN:271,_ZNSt7__cxx1112basic_stringIcSt11char_traitsIcESaIcEE12_M_constructIPKcEEvT_S8_
FNDA:0,_ZNSt7__cxx1112basic_stringIcSt11char_traitsIcESaIcEE12_M_constructIPKcEEvT_S8_
FN:533,_ZNSt7__cxx1112basic_stringIcSt11char_traitsIcESaIcEEC2IS3_EEPKcRKS3_
FNDA:89,_ZNSt7__cxx1112basic_stringIcSt11char_traitsIcESaIcEEC2IS3_EEPKcRKS3_
FN:6234,_ZSteqIcEN9__gnu_cxx11__enable_ifIXsrSt9__is_charIT_E7__valueEbE6__typeERKNSt7__cxx1112basic_stringIS3_St11char_traitsIS3_ESaIS3_EEESE_
FNDA:1142,_ZSteqIcEN9__gnu_cxx11__enable_ifIXsrSt9__is_charIT_E7__valueEbE6__typeERKNSt7__cxx1112basic_stringIS3_St11char_traitsIS3_ESaIS3_EEESE_
FN:6248,_ZSteqIcSt11char_traitsIcESaIcEEbRKNSt7__cxx1112basic_stringIT_T0_T1_EEPKS5_
FNDA:56,_ZSteqIcSt11char_traitsIcESaIcEEbRKNSt7__cxx1112basic_stringIT_T0_T1_EEPKS5_
DA:251,0
DA:255,0
DA:256,0
DA:251,0
DA:255,0
DA:256,0
DA:271,0
DA:274,0
DA:275,0
DA:271,0
DA:274,0
DA:275,0
DA:533,89
DA:534,89
DA:536,89
DA:539,89
DA:540,89
DA:6234,1142
DA:6236,1142
DA:6237,1142
DA:6238,1142
DA:6248,56
DA:6250,56
end_of_record
SF:/usr/include/c++/11/bits/random.tcc
FN:323,_ZNSt23mersenne_twister_engineImLm32ELm624ELm397ELm31ELm2567483615ELm11ELm4294967295ELm7ELm2636928640ELm15ELm4022730752ELm18ELm1812433253EE4seedEm
FNDA:1,_ZNSt23mersenne_twister_engineImLm32ELm624ELm397ELm31ELm2567483615ELm11ELm4294967295ELm7ELm2636928640ELm15ELm4022730752ELm18ELm1812433253EE4seedEm
FN:394,_ZNSt23mersenne_twister_engineImLm32ELm624ELm397ELm31ELm2567483615ELm11ELm4294967295ELm7ELm2636928640ELm15ELm4022730752ELm18ELm1812433253EE11_M_gen_randEv
FNDA:7,_ZNSt23mersenne_twister_engineImLm32ELm624ELm397ELm31ELm2567483615ELm11ELm4294967295ELm7ELm2636928640ELm15ELm4022730752ELm18ELm1812433253EE11_M_gen_randEv
FN:450,_ZNSt23mersenne_twister_engineImLm32ELm624ELm397ELm31ELm2567483615ELm11ELm4294967295ELm7ELm2636928640ELm15ELm4022730752ELm18ELm1812433253EEclEv
FNDA:3878,_ZNSt23mersenne_twister_engineImLm32ELm624ELm397ELm31ELm2567483615ELm11ELm4294967295ELm7ELm2636928640ELm15ELm4022730752ELm18ELm1812433253EEclEv
DA:323,1
DA:327,1
DA:328,1
DA:330,624
DA:332,623
DA:333,623
DA:334,623
DA:335,623
DA:336,623
DA:337,623
DA:339,1
DA:340,1
DA:394,7
DA:398,7
DA:399,7
DA:401,1596
DA:403,1589
DA:404,1589
DA:405,3178
DA:406,1589
DA:409,2779
DA:411,2772
DA:412,2772
DA:413,5544
DA:414,2772
DA:417,7
DA:418,7
DA:419,14
DA:420,7
DA:421,7
DA:422,7
DA:450,3878
DA:455,3878
DA:456,7
DA:459,3878
DA:460,3878
DA:461,3878
DA:462,3878
DA:463,3878
DA:465,3878
end_of_record
SF:/usr/include/c++/11/bits/stl_algobase.h
FN:230,_ZSt3minImERKT_S2_S2_
FNDA:260,_ZSt3minImERKT_S2_S2_
FN:254,_ZSt3maxImERKT_S2_S2_
FNDA:130,_ZSt3maxImERKT_S2_S2_
FN:313,_ZSt12__niter_baseIPSt4pairINSt7__cxx1112basic_stringIcSt11char_traitsIcESaIcEEES6_EET_S9_
FNDA:780,_ZSt12__niter_baseIPSt4pairINSt7__cxx1112basic_stringIcSt11char_traitsIcESaIcEEES6_EET_S9_
DA:230,260
DA:235,260
DA:236,0
DA:237,260
DA:254,130
DA:259,130
DA:260,29
DA:261,101
DA:313,780
DA:315,780
end_of_record
SF:/usr/include/boost/test/unit_test.hpp
FN:62,main
FNDA:1,main
DA:62,1
DA:64,1
end_of_record
SF:/usr/include/c++/11/bits/basic_string.tcc
FN:206,_ZNSt7__cxx1112basic_stringIcSt11char_traitsIcESaIcEE12_M_constructIPcEEvT_S7_St20forward_iterator_tag
FNDA:0,_ZNSt7__cxx1112basic_stringIcSt11char_traitsIcESaIcEE12_M_constructIPcEEvT_S7_St20forward_iterator_tag
FN:206,_ZNSt7__cxx1112basic_stringIcSt11char_traitsIcESaIcEE12_M_constructIPKcEEvT_S8_St20forward_iterator_tag
FNDA:109,_ZNSt7__cxx1112basic_stringIcSt11char_traitsIcESaIcEE12_M_constructIPKcEEvT_S8_St20forward_iterator_tag
DA:206,0
DA:211,0
DA:212,0
DA:215,0
DA:217,0
DA:219,0
DA:220,0
DA:225,0
DA:226,0
DA:228,0
DA:229,0
DA:232,0
DA:233,0
DA:206,109
DA:211,109
DA:212,0
DA:215,109
DA:217,109
DA:219,2
DA:220,2
DA:225,109
DA:226,0
DA:228,0
DA:229,0
DA:232,109
DA:233,109
end_of_record
SF:/usr/include/c++/11/bits/ios_base.h
FN:728,_ZNSt8ios_base9precisionEl
FNDA:0,_ZNSt8ios_base9precisionEl
DA:728,0
DA:730,0
DA:731,0
DA:732,0
end_of_record
SF:/usr/include/c++/11/bits/allocator.h
FN:156,_ZNSaISt4pairINSt7__cxx1112basic_stringIcSt11char_traitsIcESaIcEEES5_EEC2Ev
FNDA:29,_ZNSaISt4pairINSt7__cxx1112basic_stringIcSt11char_traitsIcESaIcEEES5_EEC2Ev
FN:174,_ZNSaISt4pairINSt7__cxx1112basic_stringIcSt11char_traitsIcESaIcEEES5_EED2Ev
FNDA:29,_ZNSaISt4pairINSt7__cxx1112basic_stringIcSt11char_traitsIcESaIcEEES5_EED2Ev
DA:156,29
DA:174,29
end_of_record
SF:/usr/include/c++/11/new
FN:174,_ZnwmPv
FNDA:790,_ZnwmPv
DA:174,790
DA:175,790
end_of_record
SF:/usr/include/c++/11/bits/stl_vector.h
FN:97,_ZNSt12_Vector_baseISt4pairINSt7__cxx1112basic_stringIcSt11char_traitsIcESaIcEEES6_ESaIS7_EE17_Vector_impl_dataC2Ev
FNDA:29,_ZNSt12_Vector_baseISt4pairINSt7__cxx1112basic_stringIcSt11char_traitsIcESaIcEEES6_ESaIS7_EE17_Vector_impl_dataC2Ev
FN:131,_ZNSt12_Vector_baseISt4pairINSt7__cxx1112basic_stringIcSt11char_traitsIcESaIcEEES6_ESaIS7_EE12_Vector_implC2Ev
FNDA:29,_ZNSt12_Vector_baseISt4pairINSt7__cxx1112basic_stringIcSt11char_traitsIcESaIcEEES6_ESaIS7_EE12_Vector_implC2Ev
FN:276,_ZNSt12_Vector_baseISt4pairINSt7__cxx1112basic_stringIcSt11char_traitsIcESaIcEEES6_ESaIS7_EE19_M_get_Tp_allocatorEv
FNDA:289,_ZNSt12_Vector_baseISt4pairINSt7__cxx1112basic_stringIcSt11char_traitsIcESaIcEEES6_ESaIS7_EE19_M_get_Tp_allocatorEv
FN:280,_ZNKSt12_Vector_baseISt4pairINSt7__cxx1112basic_stringIcSt11char_traitsIcESaIcEEES6_ESaIS7_EE19_M_get_Tp_allocatorEv
FNDA:260,_ZNKSt12_Vector_baseISt4pairINSt7__cxx1112basic_stringIcSt11char_traitsIcESaIcEEES6_ESaIS7_EE19_M_get_Tp_allocatorEv
FN:288,_ZNSt12_Vector_baseISt4pairINSt7__cxx1112basic_stringIcSt11char_traitsIcESaIcEEES6_ESaIS7_EEC2Ev
FNDA:29,_ZNSt12_Vector_baseISt4pairINSt7__cxx1112basic_stringIcSt11char_traitsIcESaIcEEES6_ESaIS7_EEC2Ev
FN:333,_ZNSt12_Vector_baseISt4pairINSt7__cxx1112basic_stringIcSt11char_traitsIcESaIcEEES6_ESaIS7_EED2Ev
FNDA:29,_ZNSt12_Vector_baseISt4pairINSt7__cxx1112basic_stringIcSt11char_traitsIcESaIcEEES6_ESaIS7_EED2Ev
FN:343,_ZNSt12_Vector_baseISt4pairINSt7__cxx1112basic_stringIcSt11char_traitsIcESaIcEEES6_ESaIS7_EE11_M_allocateEm
FNDA:130,_ZNSt12_Vector_baseISt4pairINSt7__cxx1112basic_stringIcSt11char_traitsIcESaIcEEES6_ESaIS7_EE11_M_allocateEm
FN:350,_ZNSt12_Vector_baseISt4pairINSt7__cxx1112basic_stringIcSt11char_traitsIcESaIcEEES6_ESaIS7_EE13_M_deallocateEPS7_m
FNDA:159,_ZNSt12_Vector_baseISt4pairINSt7__cxx1112basic_stringIcSt11char_traitsIcESaIcEEES6_ESaIS7_EE13_M_deallocateEPS7_m
FN:453,_ZNSt6vectorISt4pairINSt7__cxx1112basic_stringIcSt11char_traitsIcESaIcEEES6_ESaIS7_EE14_S_do_relocateEPS7_SA_SA_RS8_St17integral_constantIbLb1EE
FNDA:260,_ZNSt6vectorISt4pairINSt7__cxx1112basic_stringIcSt11char_traitsIcESaIcEEES6_ESaIS7_EE14_S_do_relocateEPS7_SA_SA_RS8_St17integral_constantIbLb1EE
FN:465,_ZNSt6vectorISt4pairINSt7__cxx1112basic_stringIcSt11char_traitsIcESaIcEEES6_ESaIS7_EE11_S_relocateEPS7_SA_SA_RS8_
FNDA:260,_ZNSt6vectorISt4pairINSt7__cxx1112basic_stringIcSt11char_traitsIcESaIcEEES6_ESaIS7_EE11_S_relocateEPS7_SA_SA_RS8_
FN:487,_ZNSt6vectorISt4pairINSt7__cxx1112basic_stringIcSt11char_traitsIcESaIcEEES6_ESaIS7_EEC2Ev
FNDA:29,_ZNSt6vectorISt4pairINSt7__cxx1112basic_stringIcSt11char_traitsIcESaIcEEES6_ESaIS7_EEC2Ev
FN:678,_ZNSt6vectorISt4pairINSt7__cxx1112basic_stringIcSt11char_traitsIcESaIcEEES6_ESaIS7_EED2Ev
FNDA:29,_ZNSt6vectorISt4pairINSt7__cxx1112basic_stringIcSt11char_traitsIcESaIcEEES6_ESaIS7_EED2Ev
FN:811,_ZNSt6vectorISt4pairINSt7__cxx1112basic_stringIcSt11char_traitsIcESaIcEEES6_ESaIS7_EE5beginEv
FNDA:177,_ZNSt6vectorISt4pairINSt7__cxx1112basic_stringIcSt11char_traitsIcESaIcEEES6_ESaIS7_EE5beginEv
FN:829,_ZNSt6vectorISt4pairINSt7__cxx1112basic_stringIcSt11char_traitsIcESaIcEEES6_ESaIS7_EE3endEv
FNDA:520,_ZNSt6vectorISt4pairINSt7__cxx1112basic_stringIcSt11char_traitsIcESaIcEEES6_ESaIS7_EE3endEv
FN:918,_ZNKSt6vectorISt4pairINSt7__cxx1112basic_stringIcSt11char_traitsIcESaIcEEES6_ESaIS7_EE4sizeEv
FNDA:682,_ZNKSt6vectorISt4pairINSt7__cxx1112basic_stringIcSt11char_traitsIcESaIcEEES6_ESaIS7_EE4sizeEv
FN:923,_ZNKSt6vectorISt4pairINSt7__cxx1112basic_stringIcSt11char_traitsIcESaIcEEES6_ESaIS7_EE8max_sizeEv
FNDA:260,_ZNKSt6vectorISt4pairINSt7__cxx1112basic_stringIcSt11char_traitsIcESaIcEEES6_ESaIS7_EE8max_sizeEv
FN:1043,_ZNSt6vectorISt4pairINSt7__cxx1112basic_stringIcSt11char_traitsIcESaIcEEES6_ESaIS7_EEixEm
FNDA:212,_ZNSt6vectorISt4pairINSt7__cxx1112basic_stringIcSt11char_traitsIcESaIcEEES6_ESaIS7_EEixEm
FN:1143,_ZNSt6vectorISt4pairINSt7__cxx1112basic_stringIcSt11char_traitsIcESaIcEEES6_ESaIS7_EE4backEv
FNDA:343,_ZNSt6vectorISt4pairINSt7__cxx1112basic_stringIcSt11char_traitsIcESaIcEEES6_ESaIS7_EE4backEv
FN:1756,_ZNKSt6vectorISt4pairINSt7__cxx1112basic_stringIcSt11char_traitsIcESaIcEEES6_ESaIS7_EE12_M_check_lenEmPKc
FNDA:130,_ZNKSt6vectorISt4pairINSt7__cxx1112basic_stringIcSt11char_traitsIcESaIcEEES6_ESaIS7_EE12_M_check_lenEmPKc
FN:1776,_ZNSt6vectorISt4pairINSt7__cxx1112basic_stringIcSt11char_traitsIcESaIcEEES6_ESaIS7_EE11_S_max_sizeERKS8_
FNDA:260,_ZNSt6vectorISt4pairINSt7__cxx1112basic_stringIcSt11char_traitsIcESaIcEEES6_ESaIS7_EE11_S_max_sizeERKS8_
DA:97,29
DA:98,29
DA:99,29
DA:131,29
DA:133,29
DA:134,29
DA:276,289
DA:277,289
DA:280,260
DA:281,260
DA:288,29
DA:333,29
DA:335,29
DA:336,29
DA:337,29
DA:343,130
DA:346,130
DA:350,159
DA:353,159
DA:354,130
DA:355,159
DA:453,260
DA:456,260
DA:465,260
DA:469,260
DA:487,29
DA:678,29
DA:680,29
DA:681,29
DA:683,29
DA:811,177
DA:812,177
DA:829,520
DA:830,520
DA:918,682
DA:919,682
DA:923,260
DA:924,260
DA:1043,212
DA:1046,212
DA:1143,343
DA:1146,343
DA:1756,130
DA:1758,130
DA:1759,0
DA:1761,130
DA:1762,130
DA:1776,260
DA:1781,260
DA:1783,260
DA:1784,260
end_of_record
SF:/usr/include/c++/11/typeinfo
FN:120,_ZNKSt9type_infoeqERKS_
FNDA:0,_ZNKSt9type_infoeqERKS_
DA:120,0
DA:122,0
DA:123,0
DA:124,0
end_of_record
SF:/usr/include/boost/test/utils/basic_cstring/basic_cstring.hpp
FN:83,_ZN5boost9unit_test13basic_cstringIKcEC2IiEEPS2_T_
FNDA:0,_ZN5boost9unit_test13basic_cstringIKcEC2IiEEPS2_T_
FN:83,_ZN5boost9unit_test13basic_cstringIKcEC2ImEEPS2_T_
FNDA:1283,_ZN5boost9unit_test13basic_cstringIKcEC2ImEEPS2_T_
FN:206,_ZN5boost9unit_test13basic_cstringIKcE8null_strEv
FNDA:486,_ZN5boost9unit_test13basic_cstringIKcE8null_strEv
FN:215,_ZN5boost9unit_test13basic_cstringIKcEC2Ev
FNDA:486,_ZN5boost9unit_test13basic_cstringIKcEC2Ev
FN:225,_ZN5boost9unit_test13basic_cstringIKcEC2ERKS3_
FNDA:307,_ZN5boost9unit_test13basic_cstringIKcEC2ERKS3_
FN:235,_ZN5boost9unit_test13basic_cstringIKcEC2ERKNSt7__cxx1112basic_stringIcSt11char_traitsIcESaIcEEE
FNDA:120,_ZN5boost9unit_test13basic_cstringIKcEC2ERKNSt7__cxx1112basic_stringIcSt11char_traitsIcESaIcEEE
FN:245,_ZN5boost9unit_test13basic_cstringIKcEC2EPS2_
FNDA:43,_ZN5boost9unit_test13basic_cstringIKcEC2EPS2_
FN:286,_ZNK5boost9unit_test13basic_cstringIKcE4sizeEv
FNDA:2,_ZNK5boost9unit_test13basic_cstringIKcE4sizeEv
FN:295,_ZNK5boost9unit_test13basic_cstringIKcE8is_emptyEv
FNDA:2,_ZNK5boost9unit_test13basic_cstringIKcE8is_emptyEv
FN:313,_ZN5boost9unit_test13basic_cstringIKcE5clearEv
FNDA:0,_ZN5boost9unit_test13basic_cstringIKcE5clearEv
FN:345,_ZN5boost9unit_test13basic_cstringIKcE9trim_leftEPS2_
FNDA:1,_ZN5boost9unit_test13basic_cstringIKcE9trim_leftEPS2_
FN:358,_ZN5boost9unit_test13basic_cstringIKcE9trim_leftES3_
FNDA:1,_ZN5boost9unit_test13basic_cstringIKcE9trim_leftES3_
FN:389,_ZN5boost9unit_test13basic_cstringIKcE10trim_rightEPS2_
FNDA:1,_ZN5boost9unit_test13basic_cstringIKcE10trim_rightEPS2_
FN:402,_ZN5boost9unit_test13basic_cstringIKcE10trim_rightES3_
FNDA:1,_ZN5boost9unit_test13basic_cstringIKcE10trim_rightES3_
FN:421,_ZN5boost9unit_test13basic_cstringIKcE4trimES3_
FNDA:1,_ZN5boost9unit_test13basic_cstringIKcE4trimES3_
FN:433,_ZN5boost9unit_test13basic_cstringIKcEaSERKS3_
FNDA:0,_ZN5boost9unit_test13basic_cstringIKcEaSERKS3_
FN:507,_ZN5boost9unit_test13basic_cstringIKcE5beginEv
FNDA:4,_ZN5boost9unit_test13basic_cstringIKcE5beginEv
FN:516,_ZNK5boost9unit_test13basic_cstringIKcE5beginEv
FNDA:0,_ZNK5boost9unit_test13basic_cstringIKcE5beginEv
FN:525,_ZN5boost9unit_test13basic_cstringIKcE3endEv
FNDA:2,_ZN5boost9unit_test13basic_cstringIKcE3endEv
FN:534,_ZNK5boost9unit_test13basic_cstringIKcE3endEv
FNDA:0,_ZNK5boost9unit_test13basic_cstringIKcE3endEv
FN:600,_ZN5boost9unit_test13basic_cstringIKcE15default_trim_exEv
FNDA:0,_ZN5boost9unit_test13basic_cstringIKcE15default_trim_exEv
DA:83,0
DA:83,1283
DA:206,486
DA:208,486
DA:215,486
DA:216,486
DA:217,486
DA:219,486
DA:225,307
DA:226,307
DA:227,307
DA:229,307
DA:235,120
DA:236,120
DA:237,120
DA:239,120
DA:245,43
DA:246,43
DA:247,43
DA:249,43
DA:286,2
DA:288,2
DA:295,2
DA:297,2
DA:313,0
DA:315,0
DA:316,0
DA:345,1
DA:347,1
DA:348,1
DA:349,0
DA:351,1
DA:358,1
DA:360,1
DA:361,0
DA:364,1
DA:365,1
DA:366,1
DA:369,1
DA:389,1
DA:391,1
DA:392,1
DA:393,0
DA:395,1
DA:402,1
DA:404,1
DA:405,0
DA:409,1
DA:410,1
DA:411,1
DA:414,1
DA:421,1
DA:423,1
DA:424,1
DA:426,1
DA:433,0
DA:435,0
DA:436,0
DA:438,0
DA:507,4
DA:509,4
DA:516,0
DA:518,0
DA:525,2
DA:527,2
DA:534,0
DA:536,0
DA:600,0
DA:604,0
end_of_record
SF:/usr/include/boost/test/utils/wrap_stringstream.hpp
FN:64,_ZN5boostlsIcA20_cEERNS_23basic_wrap_stringstreamIT_EES5_RKT0_
FNDA:10,_ZN5boostlsIcA20_cEERNS_23basic_wrap_stringstreamIT_EES5_RKT0_
FN:64,_ZN5boostlsIcA31_cEERNS_23basic_wrap_stringstreamIT_EES5_RKT0_
FNDA:10,_ZN5boostlsIcA31_cEERNS_23basic_wrap_stringstreamIT_EES5_RKT0_
FN:64,_ZN5boostlsIcA25_cEERNS_23basic_wrap_stringstreamIT_EES5_RKT0_
FNDA:20,_ZN5boostlsIcA25_cEERNS_23basic_wrap_stringstreamIT_EES5_RKT0_
FN:64,_ZN5boostlsIcA17_cEERNS_23basic_wrap_stringstreamIT_EES5_RKT0_
FNDA:20,_ZN5boostlsIcA17_cEERNS_23basic_wrap_stringstreamIT_EES5_RKT0_
FN:64,_ZN5boostlsIcA26_cEERNS_23basic_wrap_stringstreamIT_EES5_RKT0_
FNDA:10,_ZN5boostlsIcA26_cEERNS_23basic_wrap_stringstreamIT_EES5_RKT0_
FN:64,_ZN5boostlsIcA23_cEERNS_23basic_wrap_stringstreamIT_EES5_RKT0_
FNDA:10,_ZN5boostlsIcA23_cEERNS_23basic_wrap_stringstreamIT_EES5_RKT0_
FN:64,_ZN5boostlsIcA19_cEERNS_23basic_wrap_stringstreamIT_EES5_RKT0_
FNDA:30,_ZN5boostlsIcA19_cEERNS_23basic_wrap_stringstreamIT_EES5_RKT0_
FN:64,_ZN5boostlsIcA13_cEERNS_23basic_wrap_stringstreamIT_EES5_RKT0_
FNDA:20,_ZN5boostlsIcA13_cEERNS_23basic_wrap_stringstreamIT_EES5_RKT0_
FN:64,_ZN5boostlsIcA16_cEERNS_23basic_wrap_stringstreamIT_EES5_RKT0_
FNDA:20,_ZN5boostlsIcA16_cEERNS_23basic_wrap_stringstreamIT_EES5_RKT0_
FN:64,_ZN5boostlsIcA15_cEERNS_23basic_wrap_stringstreamIT_EES5_RKT0_
FNDA:40,_ZN5boostlsIcA15_cEERNS_23basic_wrap_stringstreamIT_EES5_RKT0_
FN:64,_ZN5boostlsIcA32_cEERNS_23basic_wrap_stringstreamIT_EES5_RKT0_
FNDA:10,_ZN5boostlsIcA32_cEERNS_23basic_wrap_stringstreamIT_EES5_RKT0_
FN:64,_ZN5boostlsIccEERNS_23basic_wrap_stringstreamIT_EES4_RKT0_
FNDA:100,_ZN5boostlsIccEERNS_23basic_wrap_stringstreamIT_EES4_RKT0_
FN:74,_ZN5boost23basic_wrap_stringstreamIcE6streamB5cxx11Ev
FNDA:300,_ZN5boost23basic_wrap_stringstreamIcE6streamB5cxx11Ev
FN:83,_ZN5boost23basic_wrap_stringstreamIcE3refEv
FNDA:100,_ZN5boost23basic_wrap_stringstreamIcE3refEv
FN:92,_ZN5boost23basic_wrap_stringstreamIcE3strB5cxx11Ev
FNDA:100,_ZN5boost23basic_wrap_stringstreamIcE3strB5cxx11Ev
DA:64,10
DA:66,10
DA:67,10
DA:64,10
DA:66,10
DA:67,10
DA:64,20
DA:66,20
DA:67,20
DA:64,20
DA:66,20
DA:67,20
DA:64,10
DA:66,10
DA:67,10
DA:64,10
DA:66,10
DA:67,10
DA:64,30
DA:66,30
DA:67,30
DA:64,20
DA:66,20
DA:67,20
DA:64,20
DA:66,20
DA:67,20
DA:64,40
DA:66,40
DA:67,40
DA:64,10
DA:66,10
DA:67,10
DA:64,100
DA:66,100
DA:67,100
DA:74,300
DA:76,300
DA:83,100
DA:85,100
DA:92,100
DA:99,100
DA:102,100
end_of_record
SF:/usr/include/c++/11/bits/random.h
FN:136,_ZNSt8__detail4_ModImLm624ELm1ELm0ELb1ELb1EE6__calcEm
FNDA:623,_ZNSt8__detail4_ModImLm624ELm1ELm0ELb1ELb1EE6__calcEm
FN:136,_ZNSt8__detail4_ModImLm4294967296ELm1ELm0ELb1ELb1EE6__calcEm
FNDA:624,_ZNSt8__detail4_ModImLm4294967296ELm1ELm0ELb1ELb1EE6__calcEm
FN:147,_ZNSt8__detail5__modImLm624ELm1ELm0EEET_S1_
FNDA:623,_ZNSt8__detail5__modImLm624ELm1ELm0EEET_S1_
FN:147,_ZNSt8__detail5__modImLm4294967296ELm1ELm0EEET_S1_
FNDA:624,_ZNSt8__detail5__modImLm4294967296ELm1ELm0EEET_S1_
FN:530,_ZNSt23mersenne_twister_engineImLm32ELm624ELm397ELm31ELm2567483615ELm11ELm4294967295ELm7ELm2636928640ELm15ELm4022730752ELm18ELm1812433253EEC2Em
FNDA:1,_ZNSt23mersenne_twister_engineImLm32ELm624ELm397ELm31ELm2567483615ELm11ELm4294967295ELm7ELm2636928640ELm15ELm4022730752ELm18ELm1812433253EEC2Em
FN:1618,_ZNSt13random_deviceC2Ev
FNDA:1,_ZNSt13random_deviceC2Ev
FN:1624,_ZNSt13random_deviceD2Ev
FNDA:1,_ZNSt13random_deviceD2Ev
FN:1647,_ZNSt13random_deviceclEv
FNDA:1,_ZNSt13random_deviceclEv
DA:136,623
DA:138,623
DA:140,623
DA:141,623
DA:136,624
DA:138,624
DA:140,624
DA:141,624
DA:147,623
DA:154,623
DA:155,623
DA:147,624
DA:154,624
DA:155,624
DA:530,1
DA:531,1
DA:1618,1
DA:1624,1
DA:1625,1
DA:1647,1
DA:1648,1
end_of_record
SF:/usr/include/boost/type_index/stl_type_index.hpp
FN:93,_ZN5boost9typeindex14stl_type_indexC2ERKSt9type_info
FNDA:0,_ZN5boost9typeindex14stl_type_indexC2ERKSt9type_info
FN:117,_ZNK5boost9typeindex14stl_type_index9type_infoEv
FNDA:0,_ZNK5boost9typeindex14stl_type_index9type_infoEv
FN:206,_ZNK5boost9typeindex14stl_type_index5equalERKS1_
FNDA:0,_ZNK5boost9typeindex14stl_type_index5equalERKS1_
FN:226,_ZN5boost9typeindex14stl_type_index7type_idIPFvvEEES1_v
FNDA:0,_ZN5boost9typeindex14stl_type_index7type_idIPFvvEEES1_v
DA:93,0
DA:94,0
DA:95,0
DA:117,0
DA:118,0
DA:206,0
DA:210,0
DA:226,0
DA:246,0
end_of_record
SF:/usr/include/boost/test/tree/fixture.hpp
FN:98,_ZN5boost9unit_test12impl_fixture10call_setupILb0EEclIN14HashTableTests18TestDoubleEmptyKeyEEEvRT_
FNDA:1,_ZN5boost9unit_test12impl_fixture10call_setupILb0EEclIN14HashTableTests18TestDoubleEmptyKeyEEEvRT_
FN:98,_ZN5boost9unit_test12impl_fixture10call_setupILb0EEclIN14HashTableTests16TestCuckooRemoveEEEvRT_
FNDA:1,_ZN5boost9unit_test12impl_fixture10call_setupILb0EEclIN14HashTableTests16TestCuckooRemoveEEEvRT_
FN:98,_ZN5boost9unit_test12impl_fixture10call_setupILb0EEclIN14HashTableTests16TestDoubleRemoveEEEvRT_
FNDA:1,_ZN5boost9unit_test12impl_fixture10call_setupILb0EEclIN14HashTableTests16TestDoubleRemoveEEEvRT_
FN:98,_ZN5boost9unit_test12impl_fixture10call_setupILb0EEclIN14HashTableTests25TestDoubleInsertDuplicateEEEvRT_
FNDA:1,_ZN5boost9unit_test12impl_fixture10call_setupILb0EEclIN14HashTableTests25TestDoubleInsertDuplicateEEEvRT_
FN:98,_ZN5boost9unit_test12impl_fixture10call_setupILb0EEclIN14HashTableTests16TestCuckooRehashEEEvRT_
FNDA:1,_ZN5boost9unit_test12impl_fixture10call_setupILb0EEclIN14HashTableTests16TestCuckooRehashEEEvRT_
FN:98,_ZN5boost9unit_test12impl_fixture10call_setupILb0EEclIN14HashTableTests16TestDoubleRehashEEEvRT_
FNDA:1,_ZN5boost9unit_test12impl_fixture10call_setupILb0EEclIN14HashTableTests16TestDoubleRehashEEEvRT_
FN:98,_ZN5boost9unit_test12impl_fixture10call_setupILb0EEclIN14HashTableTests25TestCuckooInsertDuplicateEEEvRT_
FNDA:1,_ZN5boost9unit_test12impl_fixture10call_setupILb0EEclIN14HashTableTests25TestCuckooInsertDuplicateEEEvRT_
FN:98,_ZN5boost9unit_test12impl_fixture10call_setupILb0EEclIN14HashTableTests24TestCuckooGetAllElementsEEEvRT_
FNDA:1,_ZN5boost9unit_test12impl_fixture10call_setupILb0EEclIN14HashTableTests24TestCuckooGetAllElementsEEEvRT_
FN:98,_ZN5boost9unit_test12impl_fixture10call_setupILb0EEclIN14HashTableTests24TestDoubleGetAllElementsEEEvRT_
FNDA:1,_ZN5boost9unit_test12impl_fixture10call_setupILb0EEclIN14HashTableTests24TestDoubleGetAllElementsEEEvRT_
FN:98,_ZN5boost9unit_test12impl_fixture10call_setupILb0EEclIN14HashTableTests22TestDoubleInsertSearchEEEvRT_
FNDA:1,_ZN5boost9unit_test12impl_fixture10call_setupILb0EEclIN14HashTableTests22TestDoubleInsertSearchEEEvRT_
FN:98,_ZN5boost9unit_test12impl_fixture10call_setupILb0EEclIN14HashTableTests24TestCuckooFileOperationsEEEvRT_
FNDA:1,_ZN5boost9unit_test12impl_fixture10call_setupILb0EEclIN14HashTableTests24TestCuckooFileOperationsEEEvRT_
FN:98,_ZN5boost9unit_test12impl_fixture10call_setupILb0EEclIN14HashTableTests24TestDoubleFileOperationsEEEvRT_
FNDA:1,_ZN5boost9unit_test12impl_fixture10call_setupILb0EEclIN14HashTableTests24TestDoubleFileOperationsEEEvRT_
FN:98,_ZN5boost9unit_test12impl_fixture10call_setupILb0EEclIN14HashTableTests22TestCuckooInsertSearchEEEvRT_
FNDA:1,_ZN5boost9unit_test12impl_fixture10call_setupILb0EEclIN14HashTableTests22TestCuckooInsertSearchEEEvRT_
FN:98,_ZN5boost9unit_test12impl_fixture10call_setupILb0EEclIN14HashTableTests30TestCuckooBinaryFileOperationsEEEvRT_
FNDA:1,_ZN5boost9unit_test12impl_fixture10call_setupILb0EEclIN14HashTableTests30TestCuckooBinaryFileOperationsEEEvRT_
FN:98,_ZN5boost9unit_test12impl_fixture10call_setupILb0EEclIN14HashTableTests30TestDoubleBinaryFileOperationsEEEvRT_
FNDA:1,_ZN5boost9unit_test12impl_fixture10call_setupILb0EEclIN14HashTableTests30TestDoubleBinaryFileOperationsEEEvRT_
FN:98,_ZN5boost9unit_test12impl_fixture10call_setupILb0EEclIN14HashTableTests31TestDoubleConstructorDestructorEEEvRT_
FNDA:1,_ZN5boost9unit_test12impl_fixture10call_setupILb0EEclIN14HashTableTests31TestDoubleConstructorDestructorEEEvRT_
FN:98,_ZN5boost9unit_test12impl_fixture10call_setupILb0EEclIN14HashTableTests19TestCuckooLargeDataEEEvRT_
FNDA:1,_ZN5boost9unit_test12impl_fixture10call_setupILb0EEclIN14HashTableTests19TestCuckooLargeDataEEEvRT_
FN:98,_ZN5boost9unit_test12impl_fixture10call_setupILb0EEclIN14HashTableTests19TestDoubleLargeDataEEEvRT_
FNDA:1,_ZN5boost9unit_test12impl_fixture10call_setupILb0EEclIN14HashTableTests19TestDoubleLargeDataEEEvRT_
FN:98,_ZN5boost9unit_test12impl_fixture10call_setupILb0EEclIN14HashTableTests31TestCuckooConstructorDestructorEEEvRT_
FNDA:1,_ZN5boost9unit_test12impl_fixture10call_setupILb0EEclIN14HashTableTests31TestCuckooConstructorDestructorEEEvRT_
FN:98,_ZN5boost9unit_test12impl_fixture10call_setupILb0EEclIN14HashTableTests18TestCuckooEmptyKeyEEEvRT_
FNDA:1,_ZN5boost9unit_test12impl_fixture10call_setupILb0EEclIN14HashTableTests18TestCuckooEmptyKeyEEEvRT_
FN:104,_ZN5boost9unit_test12impl_fixture13call_teardownILb0EEclIN14HashTableTests22TestCuckooInsertSearchEEEvRT_
FNDA:1,_ZN5boost9unit_test12impl_fixture13call_teardownILb0EEclIN14HashTableTests22TestCuckooInsertSearchEEEvRT_
FN:104,_ZN5boost9unit_test12impl_fixture13call_teardownILb0EEclIN14HashTableTests31TestDoubleConstructorDestructorEEEvRT_
FNDA:1,_ZN5boost9unit_test12impl_fixture13call_teardownILb0EEclIN14HashTableTests31TestDoubleConstructorDestructorEEEvRT_
FN:104,_ZN5boost9unit_test12impl_fixture13call_teardownILb0EEclIN14HashTableTests22TestDoubleInsertSearchEEEvRT_
FNDA:1,_ZN5boost9unit_test12impl_fixture13call_teardownILb0EEclIN14HashTableTests22TestDoubleInsertSearchEEEvRT_
FN:104,_ZN5boost9unit_test12impl_fixture13call_teardownILb0EEclIN14HashTableTests31TestCuckooConstructorDestructorEEEvRT_
FNDA:1,_ZN5boost9unit_test12impl_fixture13call_teardownILb0EEclIN14HashTableTests31TestCuckooConstructorDestructorEEEvRT_
FN:104,_ZN5boost9unit_test12impl_fixture13call_teardownILb0EEclIN14HashTableTests25TestCuckooInsertDuplicateEEEvRT_
FNDA:1,_ZN5boost9unit_test12impl_fixture13call_teardownILb0EEclIN14HashTableTests25TestCuckooInsertDuplicateEEEvRT_
FN:104,_ZN5boost9unit_test12impl_fixture13call_teardownILb0EEclIN14HashTableTests18TestDoubleEmptyKeyEEEvRT_
FNDA:1,_ZN5boost9unit_test12impl_fixture13call_teardownILb0EEclIN14HashTableTests18TestDoubleEmptyKeyEEEvRT_
FN:104,_ZN5boost9unit_test12impl_fixture13call_teardownILb0EEclIN14HashTableTests25TestDoubleInsertDuplicateEEEvRT_
FNDA:1,_ZN5boost9unit_test12impl_fixture13call_teardownILb0EEclIN14HashTableTests25TestDoubleInsertDuplicateEEEvRT_
FN:104,_ZN5boost9unit_test12impl_fixture13call_teardownILb0EEclIN14HashTableTests16TestCuckooRemoveEEEvRT_
FNDA:1,_ZN5boost9unit_test12impl_fixture13call_teardownILb0EEclIN14HashTableTests16TestCuckooRemoveEEEvRT_
FN:104,_ZN5boost9unit_test12impl_fixture13call_teardownILb0EEclIN14HashTableTests16TestDoubleRemoveEEEvRT_
FNDA:1,_ZN5boost9unit_test12impl_fixture13call_teardownILb0EEclIN14HashTableTests16TestDoubleRemoveEEEvRT_
FN:104,_ZN5boost9unit_test12impl_fixture13call_teardownILb0EEclIN14HashTableTests18TestCuckooEmptyKeyEEEvRT_
FNDA:1,_ZN5boost9unit_test12impl_fixture13call_teardownILb0EEclIN14HashTableTests18TestCuckooEmptyKeyEEEvRT_
FN:104,_ZN5boost9unit_test12impl_fixture13call_teardownILb0EEclIN14HashTableTests19TestDoubleLargeDataEEEvRT_
FNDA:1,_ZN5boost9unit_test12impl_fixture13call_teardownILb0EEclIN14HashTableTests19TestDoubleLargeDataEEEvRT_
FN:104,_ZN5boost9unit_test12impl_fixture13call_teardownILb0EEclIN14HashTableTests19TestCuckooLargeDataEEEvRT_
FNDA:1,_ZN5boost9unit_test12impl_fixture13call_teardownILb0EEclIN14HashTableTests19TestCuckooLargeDataEEEvRT_
FN:104,_ZN5boost9unit_test12impl_fixture13call_teardownILb0EEclIN14HashTableTests30TestDoubleBinaryFileOperationsEEEvRT_
FNDA:1,_ZN5boost9unit_test12impl_fixture13call_teardownILb0EEclIN14HashTableTests30TestDoubleBinaryFileOperationsEEEvRT_
FN:104,_ZN5boost9unit_test12impl_fixture13call_teardownILb0EEclIN14HashTableTests30TestCuckooBinaryFileOperationsEEEvRT_
FNDA:1,_ZN5boost9unit_test12impl_fixture13call_teardownILb0EEclIN14HashTableTests30TestCuckooBinaryFileOperationsEEEvRT_
FN:104,_ZN5boost9unit_test12impl_fixture13call_teardownILb0EEclIN14HashTableTests24TestDoubleFileOperationsEEEvRT_
FNDA:1,_ZN5boost9unit_test12impl_fixture13call_teardownILb0EEclIN14HashTableTests24TestDoubleFileOperationsEEEvRT_
FN:104,_ZN5boost9unit_test12impl_fixture13call_teardownILb0EEclIN14HashTableTests24TestDoubleGetAllElementsEEEvRT_
FNDA:1,_ZN5boost9unit_test12impl_fixture13call_teardownILb0EEclIN14HashTableTests24TestDoubleGetAllElementsEEEvRT_
FN:104,_ZN5boost9unit_test12impl_fixture13call_teardownILb0EEclIN14HashTableTests24TestCuckooGetAllElementsEEEvRT_
FNDA:1,_ZN5boost9unit_test12impl_fixture13call_teardownILb0EEclIN14HashTableTests24TestCuckooGetAllElementsEEEvRT_
FN:104,_ZN5boost9unit_test12impl_fixture13call_teardownILb0EEclIN14HashTableTests16TestDoubleRehashEEEvRT_
FNDA:1,_ZN5boost9unit_test12impl_fixture13call_teardownILb0EEclIN14HashTableTests16TestDoubleRehashEEEvRT_
FN:104,_ZN5boost9unit_test12impl_fixture13call_teardownILb0EEclIN14HashTableTests16TestCuckooRehashEEEvRT_
FNDA:1,_ZN5boost9unit_test12impl_fixture13call_teardownILb0EEclIN14HashTableTests16TestCuckooRehashEEEvRT_
FN:104,_ZN5boost9unit_test12impl_fixture13call_teardownILb0EEclIN14HashTableTests24TestCuckooFileOperationsEEEvRT_
FNDA:1,_ZN5boost9unit_test12impl_fixture13call_teardownILb0EEclIN14HashTableTests24TestCuckooFileOperationsEEEvRT_
FN:112,_ZN5boost9unit_test17setup_conditionalIN14HashTableTests24TestCuckooFileOperationsEEEvRT_
FNDA:1,_ZN5boost9unit_test17setup_conditionalIN14HashTableTests24TestCuckooFileOperationsEEEvRT_
FN:112,_ZN5boost9unit_test17setup_conditionalIN14HashTableTests24TestDoubleGetAllElementsEEEvRT_
FNDA:1,_ZN5boost9unit_test17setup_conditionalIN14HashTableTests24TestDoubleGetAllElementsEEEvRT_
FN:112,_ZN5boost9unit_test17setup_conditionalIN14HashTableTests24TestCuckooGetAllElementsEEEvRT_
FNDA:1,_ZN5boost9unit_test17setup_conditionalIN14HashTableTests24TestCuckooGetAllElementsEEEvRT_
FN:112,_ZN5boost9unit_test17setup_conditionalIN14HashTableTests16TestDoubleRehashEEEvRT_
FNDA:1,_ZN5boost9unit_test17setup_conditionalIN14HashTableTests16TestDoubleRehashEEEvRT_
FN:112,_ZN5boost9unit_test17setup_conditionalIN14HashTableTests16TestCuckooRehashEEEvRT_
FNDA:1,_ZN5boost9unit_test17setup_conditionalIN14HashTableTests16TestCuckooRehashEEEvRT_
FN:112,_ZN5boost9unit_test17setup_conditionalIN14HashTableTests16TestDoubleRemoveEEEvRT_
FNDA:1,_ZN5boost9unit_test17setup_conditionalIN14HashTableTests16TestDoubleRemoveEEEvRT_
FN:112,_ZN5boost9unit_test17setup_conditionalIN14HashTableTests16TestCuckooRemoveEEEvRT_
FNDA:1,_ZN5boost9unit_test17setup_conditionalIN14HashTableTests16TestCuckooRemoveEEEvRT_
FN:112,_ZN5boost9unit_test17setup_conditionalIN14HashTableTests25TestDoubleInsertDuplicateEEEvRT_
FNDA:1,_ZN5boost9unit_test17setup_conditionalIN14HashTableTests25TestDoubleInsertDuplicateEEEvRT_
FN:112,_ZN5boost9unit_test17setup_conditionalIN14HashTableTests25TestCuckooInsertDuplicateEEEvRT_
FNDA:1,_ZN5boost9unit_test17setup_conditionalIN14HashTableTests25TestCuckooInsertDuplicateEEEvRT_
FN:112,_ZN5boost9unit_test17setup_conditionalIN14HashTableTests22TestDoubleInsertSearchEEEvRT_
FNDA:1,_ZN5boost9unit_test17setup_conditionalIN14HashTableTests22TestDoubleInsertSearchEEEvRT_
FN:112,_ZN5boost9unit_test17setup_conditionalIN14HashTableTests22TestCuckooInsertSearchEEEvRT_
FNDA:1,_ZN5boost9unit_test17setup_conditionalIN14HashTableTests22TestCuckooInsertSearchEEEvRT_
FN:112,_ZN5boost9unit_test17setup_conditionalIN14HashTableTests31TestDoubleConstructorDestructorEEEvRT_
FNDA:1,_ZN5boost9unit_test17setup_conditionalIN14HashTableTests31TestDoubleConstructorDestructorEEEvRT_
FN:112,_ZN5boost9unit_test17setup_conditionalIN14HashTableTests31TestCuckooConstructorDestructorEEEvRT_
FNDA:1,_ZN5boost9unit_test17setup_conditionalIN14HashTableTests31TestCuckooConstructorDestructorEEEvRT_
FN:112,_ZN5boost9unit_test17setup_conditionalIN14HashTableTests18TestDoubleEmptyKeyEEEvRT_
FNDA:1,_ZN5boost9unit_test17setup_conditionalIN14HashTableTests18TestDoubleEmptyKeyEEEvRT_
FN:112,_ZN5boost9unit_test17setup_conditionalIN14HashTableTests30TestCuckooBinaryFileOperationsEEEvRT_
FNDA:1,_ZN5boost9unit_test17setup_conditionalIN14HashTableTests30TestCuckooBinaryFileOperationsEEEvRT_
FN:112,_ZN5boost9unit_test17setup_conditionalIN14HashTableTests30TestDoubleBinaryFileOperationsEEEvRT_
FNDA:1,_ZN5boost9unit_test17setup_conditionalIN14HashTableTests30TestDoubleBinaryFileOperationsEEEvRT_
FN:112,_ZN5boost9unit_test17setup_conditionalIN14HashTableTests18TestCuckooEmptyKeyEEEvRT_
FNDA:1,_ZN5boost9unit_test17setup_conditionalIN14HashTableTests18TestCuckooEmptyKeyEEEvRT_
FN:112,_ZN5boost9unit_test17setup_conditionalIN14HashTableTests19TestCuckooLargeDataEEEvRT_
FNDA:1,_ZN5boost9unit_test17setup_conditionalIN14HashTableTests19TestCuckooLargeDataEEEvRT_
FN:112,_ZN5boost9unit_test17setup_conditionalIN14HashTableTests24TestDoubleFileOperationsEEEvRT_
FNDA:1,_ZN5boost9unit_test17setup_conditionalIN14HashTableTests24TestDoubleFileOperationsEEEvRT_
FN:112,_ZN5boost9unit_test17setup_conditionalIN14HashTableTests19TestDoubleLargeDataEEEvRT_
FNDA:1,_ZN5boost9unit_test17setup_conditionalIN14HashTableTests19TestDoubleLargeDataEEEvRT_
FN:118,_ZN5boost9unit_test20teardown_conditionalIN14HashTableTests16TestCuckooRemoveEEEvRT_
FNDA:1,_ZN5boost9unit_test20teardown_conditionalIN14HashTableTests16TestCuckooRemoveEEEvRT_
FN:118,_ZN5boost9unit_test20teardown_conditionalIN14HashTableTests18TestDoubleEmptyKeyEEEvRT_
FNDA:1,_ZN5boost9unit_test20teardown_conditionalIN14HashTableTests18TestDoubleEmptyKeyEEEvRT_
FN:118,_ZN5boost9unit_test20teardown_conditionalIN14HashTableTests31TestCuckooConstructorDestructorEEEvRT_
FNDA:1,_ZN5boost9unit_test20teardown_conditionalIN14HashTableTests31TestCuckooConstructorDestructorEEEvRT_
FN:118,_ZN5boost9unit_test20teardown_conditionalIN14HashTableTests31TestDoubleConstructorDestructorEEEvRT_
FNDA:1,_ZN5boost9unit_test20teardown_conditionalIN14HashTableTests31TestDoubleConstructorDestructorEEEvRT_
FN:118,_ZN5boost9unit_test20teardown_conditionalIN14HashTableTests18TestCuckooEmptyKeyEEEvRT_
FNDA:1,_ZN5boost9unit_test20teardown_conditionalIN14HashTableTests18TestCuckooEmptyKeyEEEvRT_
FN:118,_ZN5boost9unit_test20teardown_conditionalIN14HashTableTests22TestCuckooInsertSearchEEEvRT_
FNDA:1,_ZN5boost9unit_test20teardown_conditionalIN14HashTableTests22TestCuckooInsertSearchEEEvRT_
FN:118,_ZN5boost9unit_test20teardown_conditionalIN14HashTableTests22TestDoubleInsertSearchEEEvRT_
FNDA:1,_ZN5boost9unit_test20teardown_conditionalIN14HashTableTests22TestDoubleInsertSearchEEEvRT_
FN:118,_ZN5boost9unit_test20teardown_conditionalIN14HashTableTests19TestDoubleLargeDataEEEvRT_
FNDA:1,_ZN5boost9unit_test20teardown_conditionalIN14HashTableTests19TestDoubleLargeDataEEEvRT_
FN:118,_ZN5boost9unit_test20teardown_conditionalIN14HashTableTests25TestCuckooInsertDuplicateEEEvRT_
FNDA:1,_ZN5boost9unit_test20teardown_conditionalIN14HashTableTests25TestCuckooInsertDuplicateEEEvRT_
FN:118,_ZN5boost9unit_test20teardown_conditionalIN14HashTableTests25TestDoubleInsertDuplicateEEEvRT_
FNDA:1,_ZN5boost9unit_test20teardown_conditionalIN14HashTableTests25TestDoubleInsertDuplicateEEEvRT_
FN:118,_ZN5boost9unit_test20teardown_conditionalIN14HashTableTests19TestCuckooLargeDataEEEvRT_
FNDA:1,_ZN5boost9unit_test20teardown_conditionalIN14HashTableTests19TestCuckooLargeDataEEEvRT_
FN:118,_ZN5boost9unit_test20teardown_conditionalIN14HashTableTests16TestDoubleRemoveEEEvRT_
FNDA:1,_ZN5boost9unit_test20teardown_conditionalIN14HashTableTests16TestDoubleRemoveEEEvRT_
FN:118,_ZN5boost9unit_test20teardown_conditionalIN14HashTableTests30TestDoubleBinaryFileOperationsEEEvRT_
FNDA:1,_ZN5boost9unit_test20teardown_conditionalIN14HashTableTests30TestDoubleBinaryFileOperationsEEEvRT_
FN:118,_ZN5boost9unit_test20teardown_conditionalIN14HashTableTests16TestCuckooRehashEEEvRT_
FNDA:1,_ZN5boost9unit_test20teardown_conditionalIN14HashTableTests16TestCuckooRehashEEEvRT_
FN:118,_ZN5boost9unit_test20teardown_conditionalIN14HashTableTests16TestDoubleRehashEEEvRT_
FNDA:1,_ZN5boost9unit_test20teardown_conditionalIN14HashTableTests16TestDoubleRehashEEEvRT_
FN:118,_ZN5boost9unit_test20teardown_conditionalIN14HashTableTests30TestCuckooBinaryFileOperationsEEEvRT_
FNDA:1,_ZN5boost9unit_test20teardown_conditionalIN14HashTableTests30TestCuckooBinaryFileOperationsEEEvRT_
FN:118,_ZN5boost9unit_test20teardown_conditionalIN14HashTableTests24TestCuckooGetAllElementsEEEvRT_
FNDA:1,_ZN5boost9unit_test20teardown_conditionalIN14HashTableTests24TestCuckooGetAllElementsEEEvRT_
FN:118,_ZN5boost9unit_test20teardown_conditionalIN14HashTableTests24TestDoubleGetAllElementsEEEvRT_
FNDA:1,_ZN5boost9unit_test20teardown_conditionalIN14HashTableTests24TestDoubleGetAllElementsEEEvRT_
FN:118,_ZN5boost9unit_test20teardown_conditionalIN14HashTableTests24TestDoubleFileOperationsEEEvRT_
FNDA:1,_ZN5boost9unit_test20teardown_conditionalIN14HashTableTests24TestDoubleFileOperationsEEEvRT_
FN:118,_ZN5boost9unit_test20teardown_conditionalIN14HashTableTests24TestCuckooFileOperationsEEEvRT_
FNDA:1,_ZN5boost9unit_test20teardown_conditionalIN14HashTableTests24TestCuckooFileOperationsEEEvRT_
DA:98,1
DA:98,1
DA:98,1
DA:98,1
DA:98,1
DA:98,1
DA:98,1
DA:98,1
DA:98,1
DA:98,1
DA:98,1
DA:98,1
DA:98,1
DA:98,1
DA:98,1
DA:98,1
DA:98,1
DA:98,1
DA:98,1
DA:98,1
DA:104,1
DA:104,1
DA:104,1
DA:104,1
DA:104,1
DA:104,1
DA:104,1
DA:104,1
DA:104,1
DA:104,1
DA:104,1
DA:104,1
DA:104,1
DA:104,1
DA:104,1
DA:104,1
DA:104,1
DA:104,1
DA:104,1
DA:104,1
DA:112,1
DA:113,1
DA:112,1
DA:113,1
DA:112,1
DA:113,1
DA:112,1
DA:113,1
DA:112,1
DA:113,1
DA:112,1
DA:113,1
DA:112,1
DA:113,1
DA:112,1
DA:113,1
DA:112,1
DA:113,1
DA:112,1
DA:113,1
DA:112,1
DA:113,1
DA:112,1
DA:113,1
DA:112,1
DA:113,1
DA:112,1
DA:113,1
DA:112,1
DA:113,1
DA:112,1
DA:113,1
DA:112,1
DA:113,1
DA:112,1
DA:113,1
DA:112,1
DA:113,1
DA:112,1
DA:113,1
DA:118,1
DA:119,1
DA:118,1
DA:119,1
DA:118,1
DA:119,1
DA:118,1
DA:119,1
DA:118,1
DA:119,1
DA:118,1
DA:119,1
DA:118,1
DA:119,1
DA:118,1
DA:119,1
DA:118,1
DA:119,1
DA:118,1
DA:119,1
DA:118,1
DA:119,1
DA:118,1
DA:119,1
DA:118,1
DA:119,1
DA:118,1
DA:119,1
DA:118,1
DA:119,1
DA:118,1
DA:119,1
DA:118,1
DA:119,1
DA:118,1
DA:119,1
DA:118,1
DA:119,1
DA:118,1
DA:119,1
end_of_record
SF:/usr/include/c++/11/bits/stl_pair.h
FN:315,_ZNSt4pairINSt7__cxx1112basic_stringIcSt11char_traitsIcESaIcEEES5_EC2EOS6_
FNDA:447,_ZNSt4pairINSt7__cxx1112basic_stringIcSt11char_traitsIcESaIcEEES5_EC2EOS6_
FN:352,_ZNSt4pairINSt7__cxx1112basic_stringIcSt11char_traitsIcESaIcEEES5_EC2IS5_S5_Lb1EEEOT_OT0_
FNDA:166,_ZNSt4pairINSt7__cxx1112basic_stringIcSt11char_traitsIcESaIcEEES5_EC2IS5_S5_Lb1EEEOT_OT0_
DA:315,447
DA:352,166
DA:353,166
end_of_record
SF:/usr/include/boost/test/tools/assertion_result.hpp
FN:52,_ZN5boost10test_tools16assertion_resultC2Eb
FNDA:486,_ZN5boost10test_tools16assertion_resultC2Eb
FN:65,_ZN5boost10test_tools16assertion_result19readonly_property65C2Eb
FNDA:486,_ZN5boost10test_tools16assertion_result19readonly_property65C2Eb
DA:52,486
DA:53,486
DA:54,486
DA:65,486
end_of_record
SF:/usr/include/boost/test/tools/detail/fwd.hpp
FN:45,_ZN5boost10test_tools9tt_detail10dummy_condEv
FNDA:498,_ZN5boost10test_tools9tt_detail10dummy_condEv
DA:45,498
end_of_record
SF:/usr/include/boost/test/utils/basic_cstring/io.hpp
FN:51,_ZN5boost9unit_testlsIcSt11char_traitsIcEKcEERSt13basic_ostreamIT_T0_ES9_RKNS0_13basic_cstringIT1_EE
FNDA:0,_ZN5boost9unit_testlsIcSt11char_traitsIcEKcEERSt13basic_ostreamIT_T0_ES9_RKNS0_13basic_cstringIT1_EE
DA:51,0
DA:53,0
DA:54,0
DA:55,0
DA:57,0
end_of_record
SF:/usr/include/c++/11/bits/vector.tcc
FN:109,_ZNSt6vectorISt4pairINSt7__cxx1112basic_stringIcSt11char_traitsIcESaIcEEES6_ESaIS7_EE12emplace_backIJS6_S6_EEERS7_DpOT_
FNDA:166,_ZNSt6vectorISt4pairINSt7__cxx1112basic_stringIcSt11char_traitsIcESaIcEEES6_ESaIS7_EE12emplace_backIJS6_S6_EEERS7_DpOT_
FN:426,_ZNSt6vectorISt4pairINSt7__cxx1112basic_stringIcSt11char_traitsIcESaIcEEES6_ESaIS7_EE17_M_realloc_insertIJS6_S6_EEEvN9__gnu_cxx17__normal_iteratorIPS7_S9_EEDpOT_
FNDA:62,_ZNSt6vectorISt4pairINSt7__cxx1112basic_stringIcSt11char_traitsIcESaIcEEES6_ESaIS7_EE17_M_realloc_insertIJS6_S6_EEEvN9__gnu_cxx17__normal_iteratorIPS7_S9_EEDpOT_
DA:109,166
DA:112,166
DA:115,104
DA:117,104
DA:121,62
DA:123,166
DA:426,62
DA:436,62
DA:437,62
DA:438,62
DA:439,62
DA:440,62
DA:441,62
DA:449,62
DA:450,62
DA:456,62
DA:461,62
DA:462,62
DA:464,62
DA:466,62
DA:467,62
DA:485,0
DA:487,0
DA:488,0
DA:489,0
DA:491,0
DA:492,0
DA:493,0
DA:500,62
DA:501,62
DA:502,62
DA:503,62
DA:504,62
DA:505,62
end_of_record
SF:/usr/include/boost/type_traits/integral_constant.hpp
FN:80,_ZNK5boost17integral_constantIbLb0EEcvRKN4mpl_5bool_ILb0EEEEv
FNDA:264,_ZNK5boost17integral_constantIbLb0EEcvRKN4mpl_5bool_ILb0EEEEv
DA:80,264
DA:84,264
end_of_record
SF:/usr/include/c++/11/bits/uniform_int_dist.h
FN:93,_ZNSt24uniform_int_distributionImE10param_typeC2Emm
FNDA:338,_ZNSt24uniform_int_distributionImE10param_typeC2Emm
FN:101,_ZNKSt24uniform_int_distributionImE10param_type1aEv
FNDA:7756,_ZNKSt24uniform_int_distributionImE10param_type1aEv
FN:105,_ZNKSt24uniform_int_distributionImE10param_type1bEv
FNDA:3878,_ZNKSt24uniform_int_distributionImE10param_type1bEv
FN:131,_ZNSt24uniform_int_distributionImEC2Emm
FNDA:338,_ZNSt24uniform_int_distributionImEC2Emm
FN:192,_ZNSt24uniform_int_distributionImEclISt23mersenne_twister_engineImLm32ELm624ELm397ELm31ELm2567483615ELm11ELm4294967295ELm7ELm2636928640ELm15ELm4022730752ELm18ELm1812433253EEEEmRT_
FNDA:3878,_ZNSt24uniform_int_distributionImEclISt23mersenne_twister_engineImLm32ELm624ELm397ELm31ELm2567483615ELm11ELm4294967295ELm7ELm2636928640ELm15ELm4022730752ELm18ELm1812433253EEEEmRT_
FN:246,_ZNSt24uniform_int_distributionImE5_S_ndImSt23mersenne_twister_engineImLm32ELm624ELm397ELm31ELm2567483615ELm11ELm4294967295ELm7ELm2636928640ELm15ELm4022730752ELm18ELm1812433253EEjEET1_RT0_S4_
FNDA:3878,_ZNSt24uniform_int_distributionImE5_S_ndImSt23mersenne_twister_engineImLm32ELm624ELm397ELm31ELm2567483615ELm11ELm4294967295ELm7ELm2636928640ELm15ELm4022730752ELm18ELm1812433253EEjEET1_RT0_S4_
FN:276,_ZNSt24uniform_int_distributionImEclISt23mersenne_twister_engineImLm32ELm624ELm397ELm31ELm2567483615ELm11ELm4294967295ELm7ELm2636928640ELm15ELm4022730752ELm18ELm1812433253EEEEmRT_RKNS0_10param_typeE
FNDA:3878,_ZNSt24uniform_int_distributionImEclISt23mersenne_twister_engineImLm32ELm624ELm397ELm31ELm2567483615ELm11ELm4294967295ELm7ELm2636928640ELm15ELm4022730752ELm18ELm1812433253EEEEmRT_RKNS0_10param_typeE
DA:93,338
DA:95,338
DA:98,338
DA:101,7756
DA:102,7756
DA:105,3878
DA:106,3878
DA:131,338
DA:134,338
DA:135,338
DA:192,3878
DA:193,3878
DA:246,3878
DA:258,3878
DA:259,3878
DA:260,3878
DA:262,0
DA:263,0
DA:265,0
DA:266,0
DA:269,3878
DA:276,3878
DA:284,3878
DA:285,3878
DA:288,3878
DA:290,3878
DA:291,3878
DA:294,3878
DA:298,3878
DA:315,3878
DA:316,3878
DA:330,0
DA:350,0
DA:351,0
DA:352,0
DA:353,0
DA:355,0
DA:358,0
DA:360,3878
end_of_record
SF:/usr/include/c++/11/bits/move.h
FN:49,_ZSt11__addressofISt4pairINSt7__cxx1112basic_stringIcSt11char_traitsIcESaIcEEES6_EEPT_RS8_
FNDA:1684,_ZSt11__addressofISt4pairINSt7__cxx1112basic_stringIcSt11char_traitsIcESaIcEEES6_EEPT_RS8_
FN:77,_ZSt7forwardISt4pairINSt7__cxx1112basic_stringIcSt11char_traitsIcESaIcEEES6_EEOT_RNSt16remove_referenceIS8_E4typeE
FNDA:894,_ZSt7forwardISt4pairINSt7__cxx1112basic_stringIcSt11char_traitsIcESaIcEEES6_EEOT_RNSt16remove_referenceIS8_E4typeE
FN:77,_ZSt7forwardINSt7__cxx1112basic_stringIcSt11char_traitsIcESaIcEEEEOT_RNSt16remove_referenceIS6_E4typeE
FNDA:1452,_ZSt7forwardINSt7__cxx1112basic_stringIcSt11char_traitsIcESaIcEEEEOT_RNSt16remove_referenceIS6_E4typeE
FN:104,_ZSt4moveIRSt4pairINSt7__cxx1112basic_stringIcSt11char_traitsIcESaIcEEES6_EEONSt16remove_referenceIT_E4typeEOSA_
FNDA:447,_ZSt4moveIRSt4pairINSt7__cxx1112basic_stringIcSt11char_traitsIcESaIcEEES6_EEONSt16remove_referenceIT_E4typeEOSA_
FN:104,_ZSt4moveIRSaIcEEONSt16remove_referenceIT_E4typeEOS3_
FNDA:0,_ZSt4moveIRSaIcEEONSt16remove_referenceIT_E4typeEOS3_
DA:49,1684
DA:50,1684
DA:77,894
DA:78,894
DA:77,1452
DA:78,1452
DA:104,447
DA:105,447
DA:104,0
DA:105,0
end_of_record
SF:/usr/include/boost/function/function_template.hpp
FN:112,_ZN5boost6detail8function22void_function_invoker0IPFvvEvE6invokeERNS1_15function_bufferE
FNDA:20,_ZN5boost6detail8function22void_function_invoker0IPFvvEvE6invokeERNS1_15function_bufferE
FN:490,_ZNK5boost6detail8function13basic_vtable0IvE9assign_toIPFvvEEEbT_RNS1_15function_bufferE
FNDA:20,_ZNK5boost6detail8function13basic_vtable0IvE9assign_toIPFvvEEEbT_RNS1_15function_bufferE
FN:502,_ZNK5boost6detail8function13basic_vtable0IvE5clearERNS1_15function_bufferE
FNDA:20,_ZNK5boost6detail8function13basic_vtable0IvE5clearERNS1_15function_bufferE
FN:512,_ZNK5boost6detail8function13basic_vtable0IvE9assign_toIPFvvEEEbT_RNS1_15function_bufferENS1_16function_ptr_tagE
FNDA:20,_ZNK5boost6detail8function13basic_vtable0IvE9assign_toIPFvvEEEbT_RNS1_15function_bufferENS1_16function_ptr_tagE
FN:677,_ZNK5boost9function0IvE10get_vtableEv
FNDA:0,_ZNK5boost9function0IvE10get_vtableEv
FN:711,_ZN5boost9function0IvEC2IPFvvEEET_NS_10enable_if_IXntsrNS_11is_integralIS5_EE5valueEiE4typeE
FNDA:20,_ZN5boost9function0IvEC2IPFvvEEET_NS_10enable_if_IXntsrNS_11is_integralIS5_EE5valueEiE4typeE
FN:756,_ZN5boost9function0IvED2Ev
FNDA:20,_ZN5boost9function0IvED2Ev
FN:868,_ZN5boost9function0IvE5clearEv
FNDA:20,_ZN5boost9function0IvE5clearEv
FN:921,_ZN5boost9function0IvE9assign_toIPFvvEEEvT_
FNDA:20,_ZN5boost9function0IvE9assign_toIPFvvEEEvT_
FN:1079,_ZN5boost8functionIFvvEEC2IPS1_EET_NS_10enable_if_IXntsrNS_11is_integralIS5_EE5valueEiE4typeE
FNDA:20,_ZN5boost8functionIFvvEEC2IPS1_EET_NS_10enable_if_IXntsrNS_11is_integralIS5_EE5valueEiE4typeE
DA:112,20
DA:116,20
DA:117,20
DA:118,20
DA:490,20
DA:493,20
DA:502,20
DA:504,20
DA:505,20
DA:506,20
DA:512,20
DA:514,20
DA:515,20
DA:518,20
DA:519,20
DA:521,0
DA:677,0
DA:679,0
DA:711,20
DA:718,20
DA:720,20
DA:721,20
DA:756,20
DA:868,20
DA:870,20
DA:871,20
DA:872,0
DA:873,20
DA:875,20
DA:921,20
DA:942,20
DA:943,20
DA:948,20
DA:949,20
DA:951,0
DA:952,20
DA:1079,20
DA:1086,20
DA:1088,20
end_of_record
SF:/usr/include/boost/type_index/type_index_facade.hpp
FN:154,_ZN5boost9typeindexeqINS0_14stl_type_indexESt9type_infoEEbRKNS0_17type_index_facadeIT_T0_EES9_
FNDA:0,_ZN5boost9typeindexeqINS0_14stl_type_indexESt9type_infoEEbRKNS0_17type_index_facadeIT_T0_EES9_
FN:187,_ZN5boost9typeindexeqINS0_14stl_type_indexESt9type_infoEEbRKT0_RKNS0_17type_index_facadeIT_S4_EE
FNDA:0,_ZN5boost9typeindexeqINS0_14stl_type_indexESt9type_infoEEbRKT0_RKNS0_17type_index_facadeIT_S4_EE
DA:154,0
DA:155,0
DA:187,0
DA:188,0
end_of_record
SF:/usr/include/c++/11/iostream
end_of_record
SF:/usr/include/c++/11/bits/stl_iterator.h
FN:1027,_ZN9__gnu_cxx17__normal_iteratorIPSt4pairINSt7__cxx1112basic_stringIcSt11char_traitsIcESaIcEEES7_ESt6vectorIS8_SaIS8_EEEC2ERKS9_
FNDA:1040,_ZN9__gnu_cxx17__normal_iteratorIPSt4pairINSt7__cxx1112basic_stringIcSt11char_traitsIcESaIcEEES7_ESt6vectorIS8_SaIS8_EEEC2ERKS9_
FN:1042,_ZNK9__gnu_cxx17__normal_iteratorIPSt4pairINSt7__cxx1112basic_stringIcSt11char_traitsIcESaIcEEES7_ESt6vectorIS8_SaIS8_EEEdeEv
FNDA:856,_ZNK9__gnu_cxx17__normal_iteratorIPSt4pairINSt7__cxx1112basic_stringIcSt11char_traitsIcESaIcEEES7_ESt6vectorIS8_SaIS8_EEEdeEv
FN:1052,_ZN9__gnu_cxx17__normal_iteratorIPSt4pairINSt7__cxx1112basic_stringIcSt11char_traitsIcESaIcEEES7_ESt6vectorIS8_SaIS8_EEEppEv
FNDA:503,_ZN9__gnu_cxx17__normal_iteratorIPSt4pairINSt7__cxx1112basic_stringIcSt11char_traitsIcESaIcEEES7_ESt6vectorIS8_SaIS8_EEEppEv
FN:1100,_ZNK9__gnu_cxx17__normal_iteratorIPSt4pairINSt7__cxx1112basic_stringIcSt11char_traitsIcESaIcEEES7_ESt6vectorIS8_SaIS8_EEEmiEl
FNDA:343,_ZNK9__gnu_cxx17__normal_iteratorIPSt4pairINSt7__cxx1112basic_stringIcSt11char_traitsIcESaIcEEES7_ESt6vectorIS8_SaIS8_EEEmiEl
FN:1105,_ZNK9__gnu_cxx17__normal_iteratorIPSt4pairINSt7__cxx1112basic_stringIcSt11char_traitsIcESaIcEEES7_ESt6vectorIS8_SaIS8_EEE4baseEv
FNDA:1620,_ZNK9__gnu_cxx17__normal_iteratorIPSt4pairINSt7__cxx1112basic_stringIcSt11char_traitsIcESaIcEEES7_ESt6vectorIS8_SaIS8_EEE4baseEv
FN:1179,_ZN9__gnu_cxxneIPSt4pairINSt7__cxx1112basic_stringIcSt11char_traitsIcESaIcEEES7_ESt6vectorIS8_SaIS8_EEEEbRKNS_17__normal_iteratorIT_T0_EESI_
FNDA:550,_ZN9__gnu_cxxneIPSt4pairINSt7__cxx1112basic_stringIcSt11char_traitsIcESaIcEEES7_ESt6vectorIS8_SaIS8_EEEEbRKNS_17__normal_iteratorIT_T0_EESI_
FN:1268,_ZN9__gnu_cxxmiIPSt4pairINSt7__cxx1112basic_stringIcSt11char_traitsIcESaIcEEES7_ESt6vectorIS8_SaIS8_EEEENS_17__normal_iteratorIT_T0_E15difference_typeERKSG_SJ_
FNDA:130,_ZN9__gnu_cxxmiIPSt4pairINSt7__cxx1112basic_stringIcSt11char_traitsIcESaIcEEES7_ESt6vectorIS8_SaIS8_EEEENS_17__normal_iteratorIT_T0_E15difference_typeERKSG_SJ_
DA:1027,1040
DA:1028,1040
DA:1042,856
DA:1043,856
DA:1052,503
DA:1054,503
DA:1055,503
DA:1100,343
DA:1101,343
DA:1105,1620
DA:1106,1620
DA:1179,550
DA:1182,550
DA:1268,130
DA:1271,130
end_of_record
SF:/usr/include/boost/test/unit_test_suite.hpp
FN:387,_Z14init_unit_testv
FNDA:1,_Z14init_unit_testv
DA:387,1
DA:394,1
end_of_record
SF:/usr/include/boost/function/function_base.hpp
FN:259,_ZN5boost6detail8function22functor_manager_commonIPFvvEE10manage_ptrERKNS1_15function_bufferERS6_NS1_30functor_manager_operation_typeE
FNDA:20,_ZN5boost6detail8function22functor_manager_commonIPFvvEE10manage_ptrERKNS1_15function_bufferERS6_NS1_30functor_manager_operation_typeE
FN:322,_ZN5boost6detail8function15functor_managerIPFvvEE7managerERKNS1_15function_bufferERS6_NS1_30functor_manager_operation_typeENS1_16function_ptr_tagE
FNDA:20,_ZN5boost6detail8function15functor_managerIPFvvEE7managerERKNS1_15function_bufferERS6_NS1_30functor_manager_operation_typeENS1_16function_ptr_tagE
FN:395,_ZN5boost6detail8function15functor_managerIPFvvEE6manageERKNS1_15function_bufferERS6_NS1_30functor_manager_operation_typeE
FNDA:20,_ZN5boost6detail8function15functor_managerIPFvvEE6manageERKNS1_15function_bufferERS6_NS1_30functor_manager_operation_typeE
FN:603,_ZN5boost13function_baseC2Ev
FNDA:20,_ZN5boost13function_baseC2Ev
FN:689,_ZNK5boost13function_base28has_trivial_copy_and_destroyEv
FNDA:20,_ZNK5boost13function_base28has_trivial_copy_and_destroyEv
DA:259,20
DA:262,20
DA:263,0
DA:264,20
DA:265,0
DA:266,0
DA:267,20
DA:268,20
DA:269,0
DA:270,0
DA:271,0
DA:273,0
DA:275,0
DA:276,0
DA:277,0
DA:279,20
DA:322,20
DA:325,20
DA:326,20
DA:395,20
DA:399,20
DA:400,0
DA:401,0
DA:402,0
DA:404,20
DA:406,20
DA:603,20
DA:689,20
DA:690,20
end_of_record
SF:/usr/include/c++/11/bits/char_traits.h
FN:106,_ZN9__gnu_cxx11char_traitsIcE2eqERKcS3_
FNDA:0,_ZN9__gnu_cxx11char_traitsIcE2eqERKcS3_
FN:167,_ZN9__gnu_cxx11char_traitsIcE6lengthEPKc
FNDA:0,_ZN9__gnu_cxx11char_traitsIcE6lengthEPKc
FN:364,_ZNSt11char_traitsIcE2ltERKcS2_
FNDA:0,_ZNSt11char_traitsIcE2ltERKcS2_
FN:372,_ZNSt11char_traitsIcE7compareEPKcS2_m
FNDA:1142,_ZNSt11char_traitsIcE7compareEPKcS2_m
FN:393,_ZNSt11char_traitsIcE6lengthEPKc
FNDA:89,_ZNSt11char_traitsIcE6lengthEPKc
FN:429,_ZNSt11char_traitsIcE4copyEPcPKcm
FNDA:0,_ZNSt11char_traitsIcE4copyEPcPKcm
DA:106,0
DA:107,0
DA:167,0
DA:170,0
DA:171,0
DA:172,0
DA:173,0
DA:290,89
DA:364,0
DA:367,0
DA:368,0
DA:372,1142
DA:374,1142
DA:375,0
DA:377,1142
DA:379,1142
DA:381,0
DA:382,0
DA:383,0
DA:384,0
DA:385,0
DA:386,0
DA:389,1142
DA:393,89
DA:396,89
DA:397,0
DA:399,89
DA:429,0
DA:431,0
DA:432,0
DA:437,0
end_of_record
SF:/usr/include/c++/11/ext/new_allocator.h
FN:79,_ZN9__gnu_cxx13new_allocatorISt4pairINSt7__cxx1112basic_stringIcSt11char_traitsIcESaIcEEES7_EEC2Ev
FNDA:29,_ZN9__gnu_cxx13new_allocatorISt4pairINSt7__cxx1112basic_stringIcSt11char_traitsIcESaIcEEES7_EEC2Ev
FN:79,_ZN9__gnu_cxx13new_allocatorIcEC2Ev
FNDA:0,_ZN9__gnu_cxx13new_allocatorIcEC2Ev
FN:82,_ZN9__gnu_cxx13new_allocatorIcEC2ERKS1_
FNDA:0,_ZN9__gnu_cxx13new_allocatorIcEC2ERKS1_
FN:89,_ZN9__gnu_cxx13new_allocatorISt4pairINSt7__cxx1112basic_stringIcSt11char_traitsIcESaIcEEES7_EED2Ev
FNDA:29,_ZN9__gnu_cxx13new_allocatorISt4pairINSt7__cxx1112basic_stringIcSt11char_traitsIcESaIcEEES7_EED2Ev
FN:89,_ZN9__gnu_cxx13new_allocatorIcED2Ev
FNDA:0,_ZN9__gnu_cxx13new_allocatorIcED2Ev
FN:103,_ZN9__gnu_cxx13new_allocatorISt4pairINSt7__cxx1112basic_stringIcSt11char_traitsIcESaIcEEES7_EE8allocateEmPKv
FNDA:130,_ZN9__gnu_cxx13new_allocatorISt4pairINSt7__cxx1112basic_stringIcSt11char_traitsIcESaIcEEES7_EE8allocateEmPKv
FN:132,_ZN9__gnu_cxx13new_allocatorISt4pairINSt7__cxx1112basic_stringIcSt11char_traitsIcESaIcEEES7_EE10deallocateEPS8_m
FNDA:130,_ZN9__gnu_cxx13new_allocatorISt4pairINSt7__cxx1112basic_stringIcSt11char_traitsIcESaIcEEES7_EE10deallocateEPS8_m
FN:154,_ZNK9__gnu_cxx13new_allocatorISt4pairINSt7__cxx1112basic_stringIcSt11char_traitsIcESaIcEEES7_EE8max_sizeEv
FNDA:260,_ZNK9__gnu_cxx13new_allocatorISt4pairINSt7__cxx1112basic_stringIcSt11char_traitsIcESaIcEEES7_EE8max_sizeEv
FN:160,_ZN9__gnu_cxx13new_allocatorISt4pairINSt7__cxx1112basic_stringIcSt11char_traitsIcESaIcEEES7_EE9constructIS8_JS8_EEEvPT_DpOT0_
FNDA:447,_ZN9__gnu_cxx13new_allocatorISt4pairINSt7__cxx1112basic_stringIcSt11char_traitsIcESaIcEEES7_EE9constructIS8_JS8_EEEvPT_DpOT0_
FN:160,_ZN9__gnu_cxx13new_allocatorISt4pairINSt7__cxx1112basic_stringIcSt11char_traitsIcESaIcEEES7_EE9constructIS8_JS7_S7_EEEvPT_DpOT0_
FNDA:166,_ZN9__gnu_cxx13new_allocatorISt4pairINSt7__cxx1112basic_stringIcSt11char_traitsIcESaIcEEES7_EE9constructIS8_JS7_S7_EEEvPT_DpOT0_
FN:166,_ZN9__gnu_cxx13new_allocatorISt4pairINSt7__cxx1112basic_stringIcSt11char_traitsIcESaIcEEES7_EE7destroyIS8_EEvPT_
FNDA:447,_ZN9__gnu_cxx13new_allocatorISt4pairINSt7__cxx1112basic_stringIcSt11char_traitsIcESaIcEEES7_EE7destroyIS8_EEvPT_
FN:197,_ZNK9__gnu_cxx13new_allocatorISt4pairINSt7__cxx1112basic_stringIcSt11char_traitsIcESaIcEEES7_EE11_M_max_sizeEv
FNDA:390,_ZNK9__gnu_cxx13new_allocatorISt4pairINSt7__cxx1112basic_stringIcSt11char_traitsIcESaIcEEES7_EE11_M_max_sizeEv
DA:79,29
DA:79,0
DA:82,0
DA:89,29
DA:89,0
DA:103,130
DA:111,130
DA:115,0
DA:116,0
DA:117,0
DA:127,130
DA:132,130
DA:145,130
DA:154,260
DA:155,260
DA:160,447
DA:162,447
DA:160,166
DA:162,166
DA:166,447
DA:168,447
DA:197,390
DA:200,390
end_of_record
SF:/usr/include/boost/test/tools/old/impl.hpp
FN:92,_ZN5boost10test_tools9tt_detail10check_frwdINS1_15equal_impl_frwdEmmEEbT_RKNS_9unit_test12lazy_ostreamENS5_13basic_cstringIKcEEmNS1_10tool_levelENS1_10check_typeERKT0_PSA_RKT1_SH_
FNDA:2,_ZN5boost10test_tools9tt_detail10check_frwdINS1_15equal_impl_frwdEmmEEbT_RKNS_9unit_test12lazy_ostreamENS5_13basic_cstringIKcEEmNS1_10tool_levelENS1_10check_typeERKT0_PSA_RKT1_SH_
FN:92,_ZN5boost10test_tools9tt_detail10check_frwdINS1_15equal_impl_frwdENSt7__cxx1112basic_stringIcSt11char_traitsIcESaIcEEEA1_cEEbT_RKNS_9unit_test12lazy_ostreamENSC_13basic_cstringIKcEEmNS1_10tool_levelENS1_10check_typeERKT0_PSH_RKT1_SO_
FNDA:56,_ZN5boost10test_tools9tt_detail10check_frwdINS1_15equal_impl_frwdENSt7__cxx1112basic_stringIcSt11char_traitsIcESaIcEEEA1_cEEbT_RKNS_9unit_test12lazy_ostreamENSC_13basic_cstringIKcEEmNS1_10tool_levelENS1_10check_typeERKT0_PSH_RKT1_SO_
FN:92,_ZN5boost10test_tools9tt_detail10check_frwdINS1_15equal_impl_frwdENSt7__cxx1112basic_stringIcSt11char_traitsIcESaIcEEES9_EEbT_RKNS_9unit_test12lazy_ostreamENSB_13basic_cstringIKcEEmNS1_10tool_levelENS1_10check_typeERKT0_PSG_RKT1_SN_
FNDA:206,_ZN5boost10test_tools9tt_detail10check_frwdINS1_15equal_impl_frwdENSt7__cxx1112basic_stringIcSt11char_traitsIcESaIcEEES9_EEbT_RKNS_9unit_test12lazy_ostreamENSB_13basic_cstringIKcEEmNS1_10tool_levelENS1_10check_typeERKT0_PSG_RKT1_SN_
FN:105,_ZN5boost10test_tools9tt_detail10equal_implImmEENS0_16assertion_resultERKT_RKT0_
FNDA:2,_ZN5boost10test_tools9tt_detail10equal_implImmEENS0_16assertion_resultERKT_RKT0_
FN:105,_ZN5boost10test_tools9tt_detail10equal_implINSt7__cxx1112basic_stringIcSt11char_traitsIcESaIcEEEA1_cEENS0_16assertion_resultERKT_RKT0_
FNDA:56,_ZN5boost10test_tools9tt_detail10equal_implINSt7__cxx1112basic_stringIcSt11char_traitsIcESaIcEEEA1_cEENS0_16assertion_resultERKT_RKT0_
FN:105,_ZN5boost10test_tools9tt_detail10equal_implINSt7__cxx1112basic_stringIcSt11char_traitsIcESaIcEEES8_EENS0_16assertion_resultERKT_RKT0_
FNDA:206,_ZN5boost10test_tools9tt_detail10equal_implINSt7__cxx1112basic_stringIcSt11char_traitsIcESaIcEEES8_EENS0_16assertion_resultERKT_RKT0_
FN:128,_ZNK5boost10test_tools9tt_detail15equal_impl_frwd9call_implImmEENS0_16assertion_resultERKT_RKT0_N4mpl_5bool_ILb0EEE
FNDA:2,_ZNK5boost10test_tools9tt_detail15equal_impl_frwd9call_implImmEENS0_16assertion_resultERKT_RKT0_N4mpl_5bool_ILb0EEE
FN:128,_ZNK5boost10test_tools9tt_detail15equal_impl_frwd9call_implINSt7__cxx1112basic_stringIcSt11char_traitsIcESaIcEEEA1_cEENS0_16assertion_resultERKT_RKT0_N4mpl_5bool_ILb0EEE
FNDA:56,_ZNK5boost10test_tools9tt_detail15equal_impl_frwd9call_implINSt7__cxx1112basic_stringIcSt11char_traitsIcESaIcEEEA1_cEENS0_16assertion_resultERKT_RKT0_N4mpl_5bool_ILb0EEE
FN:128,_ZNK5boost10test_tools9tt_detail15equal_impl_frwd9call_implINSt7__cxx1112basic_stringIcSt11char_traitsIcESaIcEEES9_EENS0_16assertion_resultERKT_RKT0_N4mpl_5bool_ILb0EEE
FNDA:206,_ZNK5boost10test_tools9tt_detail15equal_impl_frwd9call_implINSt7__cxx1112basic_stringIcSt11char_traitsIcESaIcEEES9_EENS0_16assertion_resultERKT_RKT0_N4mpl_5bool_ILb0EEE
FN:142,_ZNK5boost10test_tools9tt_detail15equal_impl_frwdclImmEENS0_16assertion_resultERKT_RKT0_
FNDA:2,_ZNK5boost10test_tools9tt_detail15equal_impl_frwdclImmEENS0_16assertion_resultERKT_RKT0_
FN:142,_ZNK5boost10test_tools9tt_detail15equal_impl_frwdclINSt7__cxx1112basic_stringIcSt11char_traitsIcESaIcEEEA1_cEENS0_16assertion_resultERKT_RKT0_
FNDA:56,_ZNK5boost10test_tools9tt_detail15equal_impl_frwdclINSt7__cxx1112basic_stringIcSt11char_traitsIcESaIcEEEA1_cEENS0_16assertion_resultERKT_RKT0_
FN:142,_ZNK5boost10test_tools9tt_detail15equal_impl_frwdclINSt7__cxx1112basic_stringIcSt11char_traitsIcESaIcEEES9_EENS0_16assertion_resultERKT_RKT0_
FNDA:206,_ZNK5boost10test_tools9tt_detail15equal_impl_frwdclINSt7__cxx1112basic_stringIcSt11char_traitsIcESaIcEEES9_EENS0_16assertion_resultERKT_RKT0_
DA:92,2
DA:92,56
DA:92,206
DA:105,2
DA:107,2
DA:105,56
DA:107,56
DA:105,206
DA:107,206
DA:128,2
DA:130,2
DA:128,56
DA:130,56
DA:128,206
DA:130,206
DA:142,2
DA:145,4
DA:142,56
DA:145,112
DA:142,206
DA:145,412
end_of_record
SF:/usr/include/boost/test/tools/detail/print_helper.hpp
FN:52,_ZN5boost10test_tools9tt_detail4impl21boost_test_print_typeIA1_cEERSoS5_RKT_
FNDA:0,_ZN5boost10test_tools9tt_detail4impl21boost_test_print_typeIA1_cEERSoS5_RKT_
FN:52,_ZN5boost10test_tools9tt_detail4impl21boost_test_print_typeImEERSoS4_RKT_
FNDA:0,_ZN5boost10test_tools9tt_detail4impl21boost_test_print_typeImEERSoS4_RKT_
FN:52,_ZN5boost10test_tools9tt_detail4impl21boost_test_print_typeINSt7__cxx1112basic_stringIcSt11char_traitsIcESaIcEEEEERSoSA_RKT_
FNDA:0,_ZN5boost10test_tools9tt_detail4impl21boost_test_print_typeINSt7__cxx1112basic_stringIcSt11char_traitsIcESaIcEEEEERSoSA_RKT_
FN:61,_ZNK5boost10test_tools9tt_detail4impl26boost_test_print_type_implclINSt7__cxx1112basic_stringIcSt11char_traitsIcESaIcEEEEERSoSB_RKT_
FNDA:0,_ZNK5boost10test_tools9tt_detail4impl26boost_test_print_type_implclINSt7__cxx1112basic_stringIcSt11char_traitsIcESaIcEEEEERSoSB_RKT_
FN:61,_ZNK5boost10test_tools9tt_detail4impl26boost_test_print_type_implclIA1_cEERSoS6_RKT_
FNDA:0,_ZNK5boost10test_tools9tt_detail4impl26boost_test_print_type_implclIA1_cEERSoS6_RKT_
FN:61,_ZNK5boost10test_tools9tt_detail4impl26boost_test_print_type_implclImEERSoS5_RKT_
FNDA:0,_ZNK5boost10test_tools9tt_detail4impl26boost_test_print_type_implclImEERSoS5_RKT_
FN:83,_ZN5boost10test_tools9tt_detail15print_log_valueIA1_cEclERSoRA1_Kc
FNDA:0,_ZN5boost10test_tools9tt_detail15print_log_valueIA1_cEclERSoRA1_Kc
FN:83,_ZN5boost10test_tools9tt_detail15print_log_valueImEclERSoRKm
FNDA:0,_ZN5boost10test_tools9tt_detail15print_log_valueImEclERSoRKm
FN:83,_ZN5boost10test_tools9tt_detail15print_log_valueINSt7__cxx1112basic_stringIcSt11char_traitsIcESaIcEEEEclERSoRKS8_
FNDA:0,_ZN5boost10test_tools9tt_detail15print_log_valueINSt7__cxx1112basic_stringIcSt11char_traitsIcESaIcEEEEclERSoRKS8_
FN:97,_ZN5boost10test_tools9tt_detail15print_log_valueImE13set_precisionERSoN4mpl_5bool_ILb0EEE
FNDA:0,_ZN5boost10test_tools9tt_detail15print_log_valueImE13set_precisionERSoN4mpl_5bool_ILb0EEE
FN:97,_ZN5boost10test_tools9tt_detail15print_log_valueINSt7__cxx1112basic_stringIcSt11char_traitsIcESaIcEEEE13set_precisionERSoN4mpl_5bool_ILb0EEE
FNDA:0,_ZN5boost10test_tools9tt_detail15print_log_valueINSt7__cxx1112basic_stringIcSt11char_traitsIcESaIcEEEE13set_precisionERSoN4mpl_5bool_ILb0EEE
FN:118,_ZN5boost10test_tools9tt_detail15print_log_valueIA1_cE13set_precisionERSoN4mpl_5bool_ILb1EEE
FNDA:0,_ZN5boost10test_tools9tt_detail15print_log_valueIA1_cE13set_precisionERSoN4mpl_5bool_ILb1EEE
FN:188,_ZN5boost10test_tools9tt_detail14print_helper_tImEC2ERKm
FNDA:4,_ZN5boost10test_tools9tt_detail14print_helper_tImEC2ERKm
FN:188,_ZN5boost10test_tools9tt_detail14print_helper_tIA1_cEC2ERA1_Kc
FNDA:56,_ZN5boost10test_tools9tt_detail14print_helper_tIA1_cEC2ERA1_Kc
FN:188,_ZN5boost10test_tools9tt_detail14print_helper_tINSt7__cxx1112basic_stringIcSt11char_traitsIcESaIcEEEEC2ERKS8_
FNDA:468,_ZN5boost10test_tools9tt_detail14print_helper_tINSt7__cxx1112basic_stringIcSt11char_traitsIcESaIcEEEEC2ERKS8_
FN:209,_ZN5boost10test_tools9tt_detail12print_helperImEENS1_14print_helper_tIT_EERKS4_
FNDA:4,_ZN5boost10test_tools9tt_detail12print_helperImEENS1_14print_helper_tIT_EERKS4_
FN:209,_ZN5boost10test_tools9tt_detail12print_helperIA1_cEENS1_14print_helper_tIT_EERKS5_
FNDA:56,_ZN5boost10test_tools9tt_detail12print_helperIA1_cEENS1_14print_helper_tIT_EERKS5_
FN:209,_ZN5boost10test_tools9tt_detail12print_helperINSt7__cxx1112basic_stringIcSt11char_traitsIcESaIcEEEEENS1_14print_helper_tIT_EERKSA_
FNDA:468,_ZN5boost10test_tools9tt_detail12print_helperINSt7__cxx1112basic_stringIcSt11char_traitsIcESaIcEEEEENS1_14print_helper_tIT_EERKSA_
FN:218,_ZN5boost10test_tools9tt_detaillsINSt7__cxx1112basic_stringIcSt11char_traitsIcESaIcEEEEERSoS9_RKNS1_14print_helper_tIT_EE
FNDA:0,_ZN5boost10test_tools9tt_detaillsINSt7__cxx1112basic_stringIcSt11char_traitsIcESaIcEEEEERSoS9_RKNS1_14print_helper_tIT_EE
FN:218,_ZN5boost10test_tools9tt_detaillsIA1_cEERSoS4_RKNS1_14print_helper_tIT_EE
FNDA:0,_ZN5boost10test_tools9tt_detaillsIA1_cEERSoS4_RKNS1_14print_helper_tIT_EE
FN:218,_ZN5boost10test_tools9tt_detaillsImEERSoS3_RKNS1_14print_helper_tIT_EE
FNDA:0,_ZN5boost10test_tools9tt_detaillsImEERSoS3_RKNS1_14print_helper_tIT_EE
DA:52,0
DA:55,0
DA:56,0
DA:52,0
DA:55,0
DA:56,0
DA:52,0
DA:55,0
DA:56,0
DA:61,0
DA:62,0
DA:61,0
DA:62,0
DA:61,0
DA:62,0
DA:83,0
DA:87,0
DA:91,0
DA:93,0
DA:94,0
DA:95,0
DA:83,0
DA:87,0
DA:91,0
DA:93,0
DA:94,0
DA:95,0
DA:83,0
DA:87,0
DA:91,0
DA:93,0
DA:94,0
DA:95,0
DA:97,0
DA:115,0
DA:97,0
DA:100,0
DA:118,0
DA:188,4
DA:188,56
DA:188,468
DA:209,4
DA:211,4
DA:209,56
DA:211,56
DA:209,468
DA:211,468
DA:218,0
DA:220,0
DA:222,0
DA:218,0
DA:220,0
DA:222,0
DA:218,0
DA:220,0
DA:222,0
end_of_record
SF:/usr/include/c++/11/bits/stl_iterator_base_types.h
FN:238,_ZSt19__iterator_categoryIPcENSt15iterator_traitsIT_E17iterator_categoryERKS2_
FNDA:0,_ZSt19__iterator_categoryIPcENSt15iterator_traitsIT_E17iterator_categoryERKS2_
FN:238,_ZSt19__iterator_categoryIPKcENSt15iterator_traitsIT_E17iterator_categoryERKS3_
FNDA:109,_ZSt19__iterator_categoryIPKcENSt15iterator_traitsIT_E17iterator_categoryERKS3_
DA:238,0
DA:239,0
DA:238,109
DA:239,109
end_of_record
SF:/usr/include/boost/test/utils/basic_cstring/bcs_char_traits.hpp
FN:60,_ZN5boost9unit_test9ut_detail20bcs_char_traits_implIKcE2eqEcc
FNDA:867,_ZN5boost9unit_test9ut_detail20bcs_char_traits_implIKcE2eqEcc
FN:82,_ZN5boost9unit_test9ut_detail20bcs_char_traits_implIKcE6lengthEPS3_
FNDA:43,_ZN5boost9unit_test9ut_detail20bcs_char_traits_implIKcE6lengthEPS3_
FN:93,_ZN5boost9unit_test9ut_detail20bcs_char_traits_implIKcE4findEPS3_mc
FNDA:2,_ZN5boost9unit_test9ut_detail20bcs_char_traits_implIKcE4findEPS3_mc
DA:60,867
DA:62,867
DA:82,43
DA:84,43
DA:86,43
DA:87,865
DA:88,822
DA:90,43
DA:93,2
DA:95,4
DA:96,2
DA:97,0
DA:99,2
DA:100,2
DA:102,2
end_of_record
SF:/usr/include/c++/11/bits/stl_uninitialized.h
FN:986,_ZSt19__relocate_object_aISt4pairINSt7__cxx1112basic_stringIcSt11char_traitsIcESaIcEEES6_ES7_SaIS7_EEvPT_PT0_RT1_
FNDA:447,_ZSt19__relocate_object_aISt4pairINSt7__cxx1112basic_stringIcSt11char_traitsIcESaIcEEES6_ES7_SaIS7_EEvPT_PT0_RT1_
FN:1018,_ZSt14__relocate_a_1IPSt4pairINSt7__cxx1112basic_stringIcSt11char_traitsIcESaIcEEES6_ES8_SaIS7_EET0_T_SB_SA_RT1_
FNDA:260,_ZSt14__relocate_a_1IPSt4pairINSt7__cxx1112basic_stringIcSt11char_traitsIcESaIcEEES6_ES8_SaIS7_EET0_T_SB_SA_RT1_
FN:1040,_ZSt12__relocate_aIPSt4pairINSt7__cxx1112basic_stringIcSt11char_traitsIcESaIcEEES6_ES8_SaIS7_EET0_T_SB_SA_RT1_
FNDA:260,_ZSt12__relocate_aIPSt4pairINSt7__cxx1112basic_stringIcSt11char_traitsIcESaIcEEES6_ES8_SaIS7_EET0_T_SB_SA_RT1_
DA:986,447
DA:994,447
DA:995,447
DA:996,447
DA:1018,260
DA:1030,260
DA:1031,707
DA:1032,447
DA:1034,260
DA:1040,260
DA:1046,260
DA:1048,260
end_of_record
SF:/usr/include/boost/smart_ptr/detail/shared_count.hpp
FN:127,_ZN5boost6detail12shared_countC2Ev
FNDA:486,_ZN5boost6detail12shared_countC2Ev
FN:430,_ZN5boost6detail12shared_countD2Ev
FNDA:486,_ZN5boost6detail12shared_countD2Ev
DA:127,486
DA:132,486
DA:430,486
DA:432,486
DA:436,486
end_of_record
SF:/usr/include/c++/11/bits/alloc_traits.h
FN:463,_ZNSt16allocator_traitsISaISt4pairINSt7__cxx1112basic_stringIcSt11char_traitsIcESaIcEEES6_EEE8allocateERS8_m
FNDA:130,_ZNSt16allocator_traitsISaISt4pairINSt7__cxx1112basic_stringIcSt11char_traitsIcESaIcEEES6_EEE8allocateERS8_m
FN:495,_ZNSt16allocator_traitsISaISt4pairINSt7__cxx1112basic_stringIcSt11char_traitsIcESaIcEEES6_EEE10deallocateERS8_PS7_m
FNDA:130,_ZNSt16allocator_traitsISaISt4pairINSt7__cxx1112basic_stringIcSt11char_traitsIcESaIcEEES6_EEE10deallocateERS8_PS7_m
FN:511,_ZNSt16allocator_traitsISaISt4pairINSt7__cxx1112basic_stringIcSt11char_traitsIcESaIcEEES6_EEE9constructIS7_JS7_EEEvRS8_PT_DpOT0_
FNDA:447,_ZNSt16allocator_traitsISaISt4pairINSt7__cxx1112basic_stringIcSt11char_traitsIcESaIcEEES6_EEE9constructIS7_JS7_EEEvRS8_PT_DpOT0_
FN:511,_ZNSt16allocator_traitsISaISt4pairINSt7__cxx1112basic_stringIcSt11char_traitsIcESaIcEEES6_EEE9constructIS7_JS6_S6_EEEvRS8_PT_DpOT0_
FNDA:166,_ZNSt16allocator_traitsISaISt4pairINSt7__cxx1112basic_stringIcSt11char_traitsIcESaIcEEES6_EEE9constructIS7_JS6_S6_EEEvRS8_PT_DpOT0_
FN:531,_ZNSt16allocator_traitsISaISt4pairINSt7__cxx1112basic_stringIcSt11char_traitsIcESaIcEEES6_EEE7destroyIS7_EEvRS8_PT_
FNDA:447,_ZNSt16allocator_traitsISaISt4pairINSt7__cxx1112basic_stringIcSt11char_traitsIcESaIcEEES6_EEE7destroyIS7_EEvRS8_PT_
FN:547,_ZNSt16allocator_traitsISaISt4pairINSt7__cxx1112basic_stringIcSt11char_traitsIcESaIcEEES6_EEE8max_sizeERKS8_
FNDA:260,_ZNSt16allocator_traitsISaISt4pairINSt7__cxx1112basic_stringIcSt11char_traitsIcESaIcEEES6_EEE8max_sizeERKS8_
FN:562,_ZNSt16allocator_traitsISaIcEE37select_on_container_copy_constructionERKS0_
FNDA:0,_ZNSt16allocator_traitsISaIcEE37select_on_container_copy_constructionERKS0_
FN:845,_ZSt8_DestroyIPSt4pairINSt7__cxx1112basic_stringIcSt11char_traitsIcESaIcEEES6_ES7_EvT_S9_RSaIT0_E
FNDA:29,_ZSt8_DestroyIPSt4pairINSt7__cxx1112basic_stringIcSt11char_traitsIcESaIcEEES6_ES7_EvT_S9_RSaIT0_E
DA:463,130
DA:464,130
DA:495,130
DA:496,130
DA:511,447
DA:516,447
DA:520,447
DA:511,166
DA:516,166
DA:520,166
DA:531,447
DA:535,447
DA:539,447
DA:547,260
DA:550,260
DA:562,0
DA:563,0
DA:845,29
DA:848,29
DA:849,29
end_of_record
SF:/usr/include/boost/test/unit_test_log.hpp
end_of_record
SF:/usr/include/boost/test/utils/lazy_ostream.hpp
FN:33,_ZN5boost9unit_test12lazy_ostreamD2Ev
FNDA:1014,_ZN5boost9unit_test12lazy_ostreamD2Ev
FN:33,_ZN5boost9unit_test12lazy_ostreamD0Ev
FNDA:0,_ZN5boost9unit_test12lazy_ostreamD0Ev
FN:35,_ZN5boost9unit_test12lazy_ostream8instanceEv
FNDA:1014,_ZN5boost9unit_test12lazy_ostream8instanceEv
FN:51,_ZNK5boost9unit_test12lazy_ostreamclERSo
FNDA:0,_ZNK5boost9unit_test12lazy_ostreamclERSo
FN:53,_ZN5boost9unit_test12lazy_ostreamC2Eb
FNDA:1014,_ZN5boost9unit_test12lazy_ostreamC2Eb
FN:72,_ZN5boost9unit_test17lazy_ostream_implINS0_12lazy_ostreamEA45_cRA45_KcEC2ERKS2_S6_
FNDA:0,_ZN5boost9unit_test17lazy_ostream_implINS0_12lazy_ostreamEA45_cRA45_KcEC2ERKS2_S6_
FN:72,_ZN5boost9unit_test17lazy_ostream_implINS0_12lazy_ostreamEA39_cRA39_KcEC2ERKS2_S6_
FNDA:2,_ZN5boost9unit_test17lazy_ostream_implINS0_12lazy_ostreamEA39_cRA39_KcEC2ERKS2_S6_
FN:72,_ZN5boost9unit_test17lazy_ostream_implINS0_12lazy_ostreamEA46_cRA46_KcEC2ERKS2_S6_
FNDA:0,_ZN5boost9unit_test17lazy_ostream_implINS0_12lazy_ostreamEA46_cRA46_KcEC2ERKS2_S6_
FN:72,_ZN5boost9unit_test17lazy_ostream_implINS0_12lazy_ostreamEA40_cRA40_KcEC2ERKS2_S6_
FNDA:2,_ZN5boost9unit_test17lazy_ostream_implINS0_12lazy_ostreamEA40_cRA40_KcEC2ERKS2_S6_
FN:72,_ZN5boost9unit_test17lazy_ostream_implINS0_12lazy_ostreamEA47_cRA47_KcEC2ERKS2_S6_
FNDA:0,_ZN5boost9unit_test17lazy_ostream_implINS0_12lazy_ostreamEA47_cRA47_KcEC2ERKS2_S6_
FN:72,_ZN5boost9unit_test17lazy_ostream_implINS0_12lazy_ostreamEA38_cRA38_KcEC2ERKS2_S6_
FNDA:8,_ZN5boost9unit_test17lazy_ostream_implINS0_12lazy_ostreamEA38_cRA38_KcEC2ERKS2_S6_
FN:72,_ZN5boost9unit_test17lazy_ostream_implINS0_12lazy_ostreamENS0_13basic_cstringIKcEERKS5_EC2ERKS2_S7_
FNDA:210,_ZN5boost9unit_test17lazy_ostream_implINS0_12lazy_ostreamENS0_13basic_cstringIKcEERKS5_EC2ERKS2_S7_
FN:72,_ZN5boost9unit_test17lazy_ostream_implINS0_12lazy_ostreamEA1_cRA1_KcEC2ERKS2_S6_
FNDA:264,_ZN5boost9unit_test17lazy_ostream_implINS0_12lazy_ostreamEA1_cRA1_KcEC2ERKS2_S6_
FN:72,_ZN5boost9unit_test17lazy_ostream_implINS0_12lazy_ostreamENS_10test_tools9tt_detail14print_helper_tINSt7__cxx1112basic_stringIcSt11char_traitsIcESaIcEEEEERKSC_EC2ERKS2_SE_
FNDA:468,_ZN5boost9unit_test17lazy_ostream_implINS0_12lazy_ostreamENS_10test_tools9tt_detail14print_helper_tINSt7__cxx1112basic_stringIcSt11char_traitsIcESaIcEEEEERKSC_EC2ERKS2_SE_
FN:72,_ZN5boost9unit_test17lazy_ostream_implINS0_12lazy_ostreamENS_10test_tools9tt_detail14print_helper_tIA1_cEERKS7_EC2ERKS2_S9_
FNDA:56,_ZN5boost9unit_test17lazy_ostream_implINS0_12lazy_ostreamENS_10test_tools9tt_detail14print_helper_tIA1_cEERKS7_EC2ERKS2_S9_
FN:72,_ZN5boost9unit_test17lazy_ostream_implINS0_12lazy_ostreamENS_10test_tools9tt_detail14print_helper_tImEERKS6_EC2ERKS2_S8_
FNDA:4,_ZN5boost9unit_test17lazy_ostream_implINS0_12lazy_ostreamENS_10test_tools9tt_detail14print_helper_tImEERKS6_EC2ERKS2_S8_
FN:79,_ZNK5boost9unit_test17lazy_ostream_implINS0_12lazy_ostreamEA46_cRA46_KcEclERSo
FNDA:0,_ZNK5boost9unit_test17lazy_ostream_implINS0_12lazy_ostreamEA46_cRA46_KcEclERSo
FN:79,_ZNK5boost9unit_test17lazy_ostream_implINS0_12lazy_ostreamEA45_cRA45_KcEclERSo
FNDA:0,_ZNK5boost9unit_test17lazy_ostream_implINS0_12lazy_ostreamEA45_cRA45_KcEclERSo
FN:79,_ZNK5boost9unit_test17lazy_ostream_implINS0_12lazy_ostreamEA38_cRA38_KcEclERSo
FNDA:0,_ZNK5boost9unit_test17lazy_ostream_implINS0_12lazy_ostreamEA38_cRA38_KcEclERSo
FN:79,_ZNK5boost9unit_test17lazy_ostream_implINS0_12lazy_ostreamENS0_13basic_cstringIKcEERKS5_EclERSo
FNDA:0,_ZNK5boost9unit_test17lazy_ostream_implINS0_12lazy_ostreamENS0_13basic_cstringIKcEERKS5_EclERSo
FN:79,_ZNK5boost9unit_test17lazy_ostream_implINS0_12lazy_ostreamEA1_cRA1_KcEclERSo
FNDA:0,_ZNK5boost9unit_test17lazy_ostream_implINS0_12lazy_ostreamEA1_cRA1_KcEclERSo
FN:79,_ZNK5boost9unit_test17lazy_ostream_implINS0_12lazy_ostreamENS_10test_tools9tt_detail14print_helper_tINSt7__cxx1112basic_stringIcSt11char_traitsIcESaIcEEEEERKSC_EclERSo
FNDA:0,_ZNK5boost9unit_test17lazy_ostream_implINS0_12lazy_ostreamENS_10test_tools9tt_detail14print_helper_tINSt7__cxx1112basic_stringIcSt11char_traitsIcESaIcEEEEERKSC_EclERSo
FN:79,_ZNK5boost9unit_test17lazy_ostream_implINS0_12lazy_ostreamENS_10test_tools9tt_detail14print_helper_tIA1_cEERKS7_EclERSo
FNDA:0,_ZNK5boost9unit_test17lazy_ostream_implINS0_12lazy_ostreamENS_10test_tools9tt_detail14print_helper_tIA1_cEERKS7_EclERSo
FN:79,_ZNK5boost9unit_test17lazy_ostream_implINS0_12lazy_ostreamENS_10test_tools9tt_detail14print_helper_tImEERKS6_EclERSo
FNDA:0,_ZNK5boost9unit_test17lazy_ostream_implINS0_12lazy_ostreamENS_10test_tools9tt_detail14print_helper_tImEERKS6_EclERSo
FN:79,_ZNK5boost9unit_test17lazy_ostream_implINS0_12lazy_ostreamEA39_cRA39_KcEclERSo
FNDA:0,_ZNK5boost9unit_test17lazy_ostream_implINS0_12lazy_ostreamEA39_cRA39_KcEclERSo
FN:79,_ZNK5boost9unit_test17lazy_ostream_implINS0_12lazy_ostreamEA47_cRA47_KcEclERSo
FNDA:0,_ZNK5boost9unit_test17lazy_ostream_implINS0_12lazy_ostreamEA47_cRA47_KcEclERSo
FN:79,_ZNK5boost9unit_test17lazy_ostream_implINS0_12lazy_ostreamEA40_cRA40_KcEclERSo
FNDA:0,_ZNK5boost9unit_test17lazy_ostream_implINS0_12lazy_ostreamEA40_cRA40_KcEclERSo
FN:93,_ZN5boost9unit_testlsIA1_cEENS0_17lazy_ostream_implINS0_12lazy_ostreamET_RKS5_EERKS4_S7_
FNDA:264,_ZN5boost9unit_testlsIA1_cEENS0_17lazy_ostream_implINS0_12lazy_ostreamET_RKS5_EERKS4_S7_
FN:93,_ZN5boost9unit_testlsIA39_cEENS0_17lazy_ostream_implINS0_12lazy_ostreamET_RKS5_EERKS4_S7_
FNDA:2,_ZN5boost9unit_testlsIA39_cEENS0_17lazy_ostream_implINS0_12lazy_ostreamET_RKS5_EERKS4_S7_
FN:93,_ZN5boost9unit_testlsIA46_cEENS0_17lazy_ostream_implINS0_12lazy_ostreamET_RKS5_EERKS4_S7_
FNDA:0,_ZN5boost9unit_testlsIA46_cEENS0_17lazy_ostream_implINS0_12lazy_ostreamET_RKS5_EERKS4_S7_
FN:93,_ZN5boost9unit_testlsIA40_cEENS0_17lazy_ostream_implINS0_12lazy_ostreamET_RKS5_EERKS4_S7_
FNDA:2,_ZN5boost9unit_testlsIA40_cEENS0_17lazy_ostream_implINS0_12lazy_ostreamET_RKS5_EERKS4_S7_
FN:93,_ZN5boost9unit_testlsIA47_cEENS0_17lazy_ostream_implINS0_12lazy_ostreamET_RKS5_EERKS4_S7_
FNDA:0,_ZN5boost9unit_testlsIA47_cEENS0_17lazy_ostream_implINS0_12lazy_ostreamET_RKS5_EERKS4_S7_
FN:93,_ZN5boost9unit_testlsIA38_cEENS0_17lazy_ostream_implINS0_12lazy_ostreamET_RKS5_EERKS4_S7_
FNDA:8,_ZN5boost9unit_testlsIA38_cEENS0_17lazy_ostream_implINS0_12lazy_ostreamET_RKS5_EERKS4_S7_
FN:93,_ZN5boost9unit_testlsIA45_cEENS0_17lazy_ostream_implINS0_12lazy_ostreamET_RKS5_EERKS4_S7_
FNDA:0,_ZN5boost9unit_testlsIA45_cEENS0_17lazy_ostream_implINS0_12lazy_ostreamET_RKS5_EERKS4_S7_
FN:93,_ZN5boost9unit_testlsINS0_13basic_cstringIKcEEEENS0_17lazy_ostream_implINS0_12lazy_ostreamET_RKS7_EERKS6_S9_
FNDA:210,_ZN5boost9unit_testlsINS0_13basic_cstringIKcEEEENS0_17lazy_ostream_implINS0_12lazy_ostreamET_RKS7_EERKS6_S9_
FN:93,_ZN5boost9unit_testlsINS_10test_tools9tt_detail14print_helper_tINSt7__cxx1112basic_stringIcSt11char_traitsIcESaIcEEEEEEENS0_17lazy_ostream_implINS0_12lazy_ostreamET_RKSE_EERKSD_SG_
FNDA:468,_ZN5boost9unit_testlsINS_10test_tools9tt_detail14print_helper_tINSt7__cxx1112basic_stringIcSt11char_traitsIcESaIcEEEEEEENS0_17lazy_ostream_implINS0_12lazy_ostreamET_RKSE_EERKSD_SG_
FN:93,_ZN5boost9unit_testlsINS_10test_tools9tt_detail14print_helper_tIA1_cEEEENS0_17lazy_ostream_implINS0_12lazy_ostreamET_RKS9_EERKS8_SB_
FNDA:56,_ZN5boost9unit_testlsINS_10test_tools9tt_detail14print_helper_tIA1_cEEEENS0_17lazy_ostream_implINS0_12lazy_ostreamET_RKS9_EERKS8_SB_
FN:93,_ZN5boost9unit_testlsINS_10test_tools9tt_detail14print_helper_tImEEEENS0_17lazy_ostream_implINS0_12lazy_ostreamET_RKS8_EERKS7_SA_
FNDA:4,_ZN5boost9unit_testlsINS_10test_tools9tt_detail14print_helper_tImEEEENS0_17lazy_ostream_implINS0_12lazy_ostreamET_RKS8_EERKS7_SA_
DA:33,0
DA:33,1014
DA:35,1014
DA:51,0
DA:53,1014
DA:72,4
DA:74,4
DA:75,4
DA:77,4
DA:72,56
DA:74,56
DA:75,56
DA:77,56
DA:72,468
DA:74,468
DA:75,468
DA:77,468
DA:72,264
DA:74,264
DA:75,264
DA:77,264
DA:72,210
DA:74,210
DA:75,210
DA:77,210
DA:72,0
DA:74,0
DA:75,0
DA:77,0
DA:72,8
DA:74,8
DA:75,8
DA:77,8
DA:72,0
DA:74,0
DA:75,0
DA:77,0
DA:72,2
DA:74,2
DA:75,2
DA:77,2
DA:72,0
DA:74,0
DA:75,0
DA:77,0
DA:72,2
DA:74,2
DA:75,2
DA:77,2
DA:79,0
DA:81,0
DA:79,0
DA:81,0
DA:79,0
DA:81,0
DA:79,0
DA:81,0
DA:79,0
DA:81,0
DA:79,0
DA:81,0
DA:79,0
DA:81,0
DA:79,0
DA:81,0
DA:79,0
DA:81,0
DA:79,0
DA:81,0
DA:79,0
DA:81,0
DA:93,4
DA:95,4
DA:93,56
DA:95,56
DA:93,468
DA:95,468
DA:93,264
DA:95,264
DA:93,210
DA:95,210
DA:93,0
DA:95,0
DA:93,8
DA:95,8
DA:93,0
DA:95,0
DA:93,2
DA:95,2
DA:93,0
DA:95,0
DA:93,2
DA:95,2
end_of_record
SF:/home/danilglock-18/laba3/zad2/cpp/hashtable/hashtabletest.cpp
FN:11,_Z20generateRandomStringB5cxx11m
FNDA:338,_Z20generateRandomStringB5cxx11m
FN:28,_Z27generateRandomKeyValuePairsB5cxx11i
FNDA:14,_Z27generateRandomKeyValuePairsB5cxx11i
FN:38,_ZN14HashTableTestsL39TestCuckooConstructorDestructor_invokerEv
FNDA:1,_ZN14HashTableTestsL39TestCuckooConstructorDestructor_invokerEv
FN:38,_ZN14HashTableTests31TestCuckooConstructorDestructor11test_methodEv
FNDA:1,_ZN14HashTableTests31TestCuckooConstructorDestructor11test_methodEv
FN:47,_ZN14HashTableTestsL39TestDoubleConstructorDestructor_invokerEv
FNDA:1,_ZN14HashTableTestsL39TestDoubleConstructorDestructor_invokerEv
FN:47,_ZN14HashTableTests31TestDoubleConstructorDestructor11test_methodEv
FNDA:1,_ZN14HashTableTests31TestDoubleConstructorDestructor11test_methodEv
FN:56,_ZN14HashTableTestsL30TestCuckooInsertSearch_invokerEv
FNDA:1,_ZN14HashTableTestsL30TestCuckooInsertSearch_invokerEv
FN:56,_ZN14HashTableTests22TestCuckooInsertSearch11test_methodEv
FNDA:1,_ZN14HashTableTests22TestCuckooInsertSearch11test_methodEv
FN:69,_ZN14HashTableTests22TestDoubleInsertSearch11test_methodEv
FNDA:1,_ZN14HashTableTests22TestDoubleInsertSearch11test_methodEv
FN:69,_ZN14HashTableTestsL30TestDoubleInsertSearch_invokerEv
FNDA:1,_ZN14HashTableTestsL30TestDoubleInsertSearch_invokerEv
FN:82,_ZN14HashTableTestsL33TestCuckooInsertDuplicate_invokerEv
FNDA:1,_ZN14HashTableTestsL33TestCuckooInsertDuplicate_invokerEv
FN:82,_ZN14HashTableTests25TestCuckooInsertDuplicate11test_methodEv
FNDA:1,_ZN14HashTableTests25TestCuckooInsertDuplicate11test_methodEv
FN:95,_ZN14HashTableTestsL33TestDoubleInsertDuplicate_invokerEv
FNDA:1,_ZN14HashTableTestsL33TestDoubleInsertDuplicate_invokerEv
FN:95,_ZN14HashTableTests25TestDoubleInsertDuplicate11test_methodEv
FNDA:1,_ZN14HashTableTests25TestDoubleInsertDuplicate11test_methodEv
FN:108,_ZN14HashTableTestsL24TestCuckooRemove_invokerEv
FNDA:1,_ZN14HashTableTestsL24TestCuckooRemove_invokerEv
FN:108,_ZN14HashTableTests16TestCuckooRemove11test_methodEv
FNDA:1,_ZN14HashTableTests16TestCuckooRemove11test_methodEv
FN:128,_ZN14HashTableTestsL24TestDoubleRemove_invokerEv
FNDA:1,_ZN14HashTableTestsL24TestDoubleRemove_invokerEv
FN:128,_ZN14HashTableTests16TestDoubleRemove11test_methodEv
FNDA:1,_ZN14HashTableTests16TestDoubleRemove11test_methodEv
FN:148,_ZN14HashTableTestsL24TestCuckooRehash_invokerEv
FNDA:1,_ZN14HashTableTestsL24TestCuckooRehash_invokerEv
FN:148,_ZN14HashTableTests16TestCuckooRehash11test_methodEv
FNDA:1,_ZN14HashTableTests16TestCuckooRehash11test_methodEv
FN:164,_ZN14HashTableTestsL24TestDoubleRehash_invokerEv
FNDA:1,_ZN14HashTableTestsL24TestDoubleRehash_invokerEv
FN:164,_ZN14HashTableTests16TestDoubleRehash11test_methodEv
FNDA:1,_ZN14HashTableTests16TestDoubleRehash11test_methodEv
FN:180,_ZN14HashTableTestsL32TestCuckooGetAllElements_invokerEv
FNDA:1,_ZN14HashTableTestsL32TestCuckooGetAllElements_invokerEv
FN:180,_ZN14HashTableTests24TestCuckooGetAllElements11test_methodEv
FNDA:1,_ZN14HashTableTests24TestCuckooGetAllElements11test_methodEv
FN:204,_ZN14HashTableTestsL32TestDoubleGetAllElements_invokerEv
FNDA:1,_ZN14HashTableTestsL32TestDoubleGetAllElements_invokerEv
FN:204,_ZN14HashTableTests24TestDoubleGetAllElements11test_methodEv
FNDA:1,_ZN14HashTableTests24TestDoubleGetAllElements11test_methodEv
FN:228,_ZN14HashTableTestsL32TestCuckooFileOperations_invokerEv
FNDA:1,_ZN14HashTableTestsL32TestCuckooFileOperations_invokerEv
FN:228,_ZN14HashTableTests24TestCuckooFileOperations11test_methodEv
FNDA:1,_ZN14HashTableTests24TestCuckooFileOperations11test_methodEv
FN:255,_ZN14HashTableTestsL32TestDoubleFileOperations_invokerEv
FNDA:1,_ZN14HashTableTestsL32TestDoubleFileOperations_invokerEv
FN:255,_ZN14HashTableTests24TestDoubleFileOperations11test_methodEv
FNDA:1,_ZN14HashTableTests24TestDoubleFileOperations11test_methodEv
FN:282,_ZN14HashTableTestsL38TestCuckooBinaryFileOperations_invokerEv
FNDA:1,_ZN14HashTableTestsL38TestCuckooBinaryFileOperations_invokerEv
FN:282,_ZN14HashTableTests30TestCuckooBinaryFileOperations11test_methodEv
FNDA:1,_ZN14HashTableTests30TestCuckooBinaryFileOperations11test_methodEv
FN:309,_ZN14HashTableTestsL38TestDoubleBinaryFileOperations_invokerEv
FNDA:1,_ZN14HashTableTestsL38TestDoubleBinaryFileOperations_invokerEv
FN:309,_ZN14HashTableTests30TestDoubleBinaryFileOperations11test_methodEv
FNDA:1,_ZN14HashTableTests30TestDoubleBinaryFileOperations11test_methodEv
FN:336,_ZN14HashTableTestsL27TestCuckooLargeData_invokerEv
FNDA:1,_ZN14HashTableTestsL27TestCuckooLargeData_invokerEv
FN:336,_ZN14HashTableTests19TestCuckooLargeData11test_methodEv
FNDA:1,_ZN14HashTableTests19TestCuckooLargeData11test_methodEv
FN:362,_ZN14HashTableTestsL27TestDoubleLargeData_invokerEv
FNDA:1,_ZN14HashTableTestsL27TestDoubleLargeData_invokerEv
FN:362,_ZN14HashTableTests19TestDoubleLargeData11test_methodEv
FNDA:1,_ZN14HashTableTests19TestDoubleLargeData11test_methodEv
FN:388,_ZN14HashTableTestsL26TestCuckooEmptyKey_invokerEv
FNDA:1,_ZN14HashTableTestsL26TestCuckooEmptyKey_invokerEv
FN:388,_ZN14HashTableTests18TestCuckooEmptyKey11test_methodEv
FNDA:1,_ZN14HashTableTests18TestCuckooEmptyKey11test_methodEv
FN:397,_ZN14HashTableTests18TestDoubleEmptyKey11test_methodEv
FNDA:1,_ZN14HashTableTests18TestDoubleEmptyKey11test_methodEv
FN:397,_ZN14HashTableTestsL26TestDoubleEmptyKey_invokerEv
FNDA:1,_ZN14HashTableTestsL26TestDoubleEmptyKey_invokerEv
DA:11,338
DA:17,338
DA:18,338
DA:20,338
DA:21,338
DA:22,4216
DA:23,3878
DA:25,676
DA:26,0
DA:28,14
DA:29,14
DA:30,180
DA:31,166
DA:33,14
DA:34,0
DA:38,1
DA:39,1
DA:40,1
DA:42,1
DA:43,1
DA:44,2
DA:45,1
DA:38,1
DA:47,1
DA:48,1
DA:49,1
DA:51,1
DA:52,1
DA:53,2
DA:54,1
DA:47,1
DA:56,1
DA:57,1
DA:58,1
DA:60,6
DA:61,5
DA:62,5
DA:63,5
DA:64,5
DA:66,1
DA:67,1
DA:56,1
DA:69,1
DA:70,1
DA:71,1
DA:73,6
DA:74,5
DA:75,5
DA:76,5
DA:77,5
DA:79,1
DA:80,1
DA:69,1
DA:82,1
DA:83,1
DA:84,1
DA:85,1
DA:86,1
DA:88,1
DA:89,1
DA:91,1
DA:92,1
DA:93,1
DA:82,1
DA:95,1
DA:96,1
DA:97,1
DA:98,1
DA:99,1
DA:101,1
DA:102,1
DA:104,1
DA:105,1
DA:106,1
DA:95,1
DA:108,1
DA:109,1
DA:110,1
DA:112,4
DA:113,3
DA:114,3
DA:115,3
DA:117,1
DA:118,1
DA:120,1
DA:121,1
DA:123,1
DA:125,1
DA:126,1
DA:108,1
DA:128,1
DA:129,1
DA:130,1
DA:132,4
DA:133,3
DA:134,3
DA:135,3
DA:137,1
DA:138,1
DA:140,1
DA:141,1
DA:143,1
DA:145,1
DA:146,1
DA:128,1
DA:148,1
DA:149,1
DA:150,1
DA:152,11
DA:153,10
DA:154,10
DA:155,10
DA:157,11
DA:158,10
DA:161,1
DA:162,1
DA:148,1
DA:164,1
DA:165,1
DA:166,1
DA:168,11
DA:169,10
DA:170,10
DA:171,10
DA:173,11
DA:174,10
DA:177,1
DA:178,1
DA:164,1
DA:180,1
DA:181,1
DA:182,1
DA:184,6
DA:185,5
DA:186,5
DA:187,5
DA:189,1
DA:190,1
DA:192,6
DA:193,5
DA:194,15
DA:195,15
DA:196,5
DA:197,5
DA:200,5
DA:202,1
DA:180,1
DA:204,1
DA:205,1
DA:206,1
DA:208,6
DA:209,5
DA:210,5
DA:211,5
DA:213,1
DA:214,1
DA:216,6
DA:217,5
DA:218,15
DA:219,15
DA:220,5
DA:221,5
DA:224,5
DA:226,1
DA:204,1
DA:228,1
DA:229,1
DA:230,1
DA:231,1
DA:233,6
DA:234,5
DA:235,5
DA:236,5
DA:238,1
DA:239,1
DA:240,1
DA:241,1
DA:243,1
DA:244,1
DA:245,1
DA:246,1
DA:248,6
DA:249,5
DA:252,1
DA:253,1
DA:228,1
DA:255,1
DA:256,1
DA:257,1
DA:258,1
DA:260,6
DA:261,5
DA:262,5
DA:263,5
DA:265,1
DA:266,1
DA:267,1
DA:268,1
DA:270,1
DA:271,1
DA:272,1
DA:273,1
DA:275,6
DA:276,5
DA:279,1
DA:280,1
DA:255,1
DA:282,1
DA:283,1
DA:284,1
DA:285,1
DA:287,6
DA:288,5
DA:289,5
DA:290,5
DA:292,1
DA:293,1
DA:294,1
DA:295,1
DA:297,1
DA:298,1
DA:299,1
DA:300,1
DA:302,6
DA:303,5
DA:306,1
DA:307,1
DA:282,1
DA:309,1
DA:310,1
DA:311,1
DA:312,1
DA:314,6
DA:315,5
DA:316,5
DA:317,5
DA:319,1
DA:320,1
DA:321,1
DA:322,1
DA:324,1
DA:325,1
DA:326,1
DA:327,1
DA:329,6
DA:330,5
DA:333,1
DA:334,1
DA:309,1
DA:336,1
DA:337,1
DA:338,1
DA:340,51
DA:341,50
DA:342,50
DA:343,50
DA:345,51
DA:346,50
DA:349,26
DA:350,25
DA:353,26
DA:354,25
DA:357,26
DA:358,25
DA:360,1
DA:336,1
DA:362,1
DA:363,1
DA:364,1
DA:366,51
DA:367,50
DA:368,50
DA:369,50
DA:371,51
DA:372,50
DA:375,26
DA:376,25
DA:379,26
DA:380,25
DA:383,26
DA:384,25
DA:386,1
DA:362,1
DA:388,1
DA:389,1
DA:390,2
DA:392,1
DA:393,1
DA:394,1
DA:395,1
DA:388,1
DA:397,1
DA:398,1
DA:399,2
DA:401,1
DA:402,1
DA:403,1
DA:404,1
DA:397,1
end_of_record
SF:/usr/include/c++/11/ext/alloc_traits.h
FN:97,_ZN9__gnu_cxx14__alloc_traitsISaIcEcE17_S_select_on_copyERKS1_
FNDA:0,_ZN9__gnu_cxx14__alloc_traitsISaIcEcE17_S_select_on_copyERKS1_
DA:97,0
DA:98,0
end_of_record
SF:/usr/include/c++/11/bits/stl_construct.h
FN:146,_ZSt8_DestroyISt4pairINSt7__cxx1112basic_stringIcSt11char_traitsIcESaIcEEES6_EEvPT_
FNDA:343,_ZSt8_DestroyISt4pairINSt7__cxx1112basic_stringIcSt11char_traitsIcESaIcEEES6_EEvPT_
FN:160,_ZNSt12_Destroy_auxILb0EE9__destroyIPSt4pairINSt7__cxx1112basic_stringIcSt11char_traitsIcESaIcEEES8_EEEvT_SB_
FNDA:29,_ZNSt12_Destroy_auxILb0EE9__destroyIPSt4pairINSt7__cxx1112basic_stringIcSt11char_traitsIcESaIcEEES8_EEEvT_SB_
FN:182,_ZSt8_DestroyIPSt4pairINSt7__cxx1112basic_stringIcSt11char_traitsIcESaIcEEES6_EEvT_S9_
FNDA:29,_ZSt8_DestroyIPSt4pairINSt7__cxx1112basic_stringIcSt11char_traitsIcESaIcEEES6_EEvT_S9_
DA:146,343
DA:151,343
DA:153,343
DA:160,29
DA:162,372
DA:163,343
DA:164,29
DA:182,29
DA:196,29
DA:197,29
end_of_record
SF:/usr/include/c++/11/ext/type_traits.h
FN:152,_ZN9__gnu_cxx17__is_null_pointerIcEEbPT_
FNDA:0,_ZN9__gnu_cxx17__is_null_pointerIcEEbPT_
FN:152,_ZN9__gnu_cxx17__is_null_pointerIKcEEbPT_
FNDA:109,_ZN9__gnu_cxx17__is_null_pointerIKcEEbPT_
DA:152,0
DA:153,0
DA:152,109
DA:153,109
end_of_record
SF:/usr/include/boost/smart_ptr/shared_ptr.hpp
FN:346,_ZN5boost10shared_ptrINS_23basic_wrap_stringstreamIcEEEC2Ev
FNDA:486,_ZN5boost10shared_ptrINS_23basic_wrap_stringstreamIcEEEC2Ev
DA:346,486
DA:348,486
end_of_record
SF:/usr/include/c++/11/bits/stl_iterator_base_funcs.h
FN:98,_ZSt10__distanceIPcENSt15iterator_traitsIT_E15difference_typeES2_S2_St26random_access_iterator_tag
FNDA:0,_ZSt10__distanceIPcENSt15iterator_traitsIT_E15difference_typeES2_S2_St26random_access_iterator_tag
FN:98,_ZSt10__distanceIPKcENSt15iterator_traitsIT_E15difference_typeES3_S3_St26random_access_iterator_tag
FNDA:109,_ZSt10__distanceIPKcENSt15iterator_traitsIT_E15difference_typeES3_S3_St26random_access_iterator_tag
FN:138,_ZSt8distanceIPcENSt15iterator_traitsIT_E15difference_typeES2_S2_
FNDA:0,_ZSt8distanceIPcENSt15iterator_traitsIT_E15difference_typeES2_S2_
FN:138,_ZSt8distanceIPKcENSt15iterator_traitsIT_E15difference_typeES3_S3_
FNDA:109,_ZSt8distanceIPKcENSt15iterator_traitsIT_E15difference_typeES3_S3_
DA:98,0
DA:104,0
DA:98,109
DA:104,109
DA:138,0
DA:141,0
DA:142,0
DA:138,109
DA:141,109
DA:142,218
end_of_record
SF:/usr/include/boost/smart_ptr/detail/sp_counted_base_gcc_atomic.hpp
FN:38,_ZN5boost6detail16atomic_decrementEPj
FNDA:0,_ZN5boost6detail16atomic_decrementEPj
FN:116,_ZN5boost6detail15sp_counted_base7releaseEv
FNDA:0,_ZN5boost6detail15sp_counted_base7releaseEv
FN:130,_ZN5boost6detail15sp_counted_base12weak_releaseEv
FNDA:0,_ZN5boost6detail15sp_counted_base12weak_releaseEv
DA:38,0
DA:40,0
DA:116,0
DA:118,0
DA:120,0
DA:121,0
DA:123,0
DA:130,0
DA:132,0
DA:134,0
DA:136,0
end_of_record
SF:/usr/include/boost/test/utils/class_properties.hpp
FN:54,_ZN5boost9unit_test14class_propertyIbEC2Eb
FNDA:486,_ZN5boost9unit_test14class_propertyIbEC2Eb
FN:131,_ZN5boost9unit_test17readonly_propertyIbEC2Eb
FNDA:486,_ZN5boost9unit_test17readonly_propertyIbEC2Eb
DA:54,486
DA:55,486
DA:131,486
end_of_record
SF:/usr/include/boost/type_index.hpp
FN:211,_ZN5boost9typeindex7type_idIPFvvEEENS0_14stl_type_indexEv
FNDA:0,_ZN5boost9typeindex7type_idIPFvvEEENS0_14stl_type_indexEv
DA:211,0
DA:212,0
end_of_record
