TN:
SF:/usr/include/c++/11/bits/stl_construct.h
FN:172,_ZNSt12_Destroy_auxILb1EE9__destroyIPiEEvT_S3_
FNDA:9,_ZNSt12_Destroy_auxILb1EE9__destroyIPiEEvT_S3_
FN:182,_ZSt8_DestroyIPiEvT_S1_
FNDA:9,_ZSt8_DestroyIPiEvT_S1_
DA:172,9
DA:182,9
DA:196,9
DA:197,9
end_of_record
SF:/usr/include/c++/11/iostream
end_of_record
SF:/usr/include/c++/11/bits/stl_heap.h
FN:134,_ZSt11__push_heapIN9__gnu_cxx17__normal_iteratorIPiSt6vectorIiSaIiEEEEliNS0_5__ops14_Iter_less_valEEvT_T0_SA_T1_RT2_
FNDA:0,_ZSt11__push_heapIN9__gnu_cxx17__normal_iteratorIPiSt6vectorIiSaIiEEEEliNS0_5__ops14_Iter_less_valEEvT_T0_SA_T1_RT2_
FN:223,_ZSt13__adjust_heapIN9__gnu_cxx17__normal_iteratorIPiSt6vectorIiSaIiEEEEliNS0_5__ops15_Iter_less_iterEEvT_T0_SA_T1_T2_
FNDA:0,_ZSt13__adjust_heapIN9__gnu_cxx17__normal_iteratorIPiSt6vectorIiSaIiEEEEliNS0_5__ops15_Iter_less_iterEEvT_T0_SA_T1_T2_
FN:253,_ZSt10__pop_heapIN9__gnu_cxx17__normal_iteratorIPiSt6vectorIiSaIiEEEENS0_5__ops15_Iter_less_iterEEvT_S9_S9_RT0_
FNDA:0,_ZSt10__pop_heapIN9__gnu_cxx17__normal_iteratorIPiSt6vectorIiSaIiEEEENS0_5__ops15_Iter_less_iterEEvT_S9_S9_RT0_
FN:339,_ZSt11__make_heapIN9__gnu_cxx17__normal_iteratorIPiSt6vectorIiSaIiEEEENS0_5__ops15_Iter_less_iterEEvT_S9_RT0_
FNDA:0,_ZSt11__make_heapIN9__gnu_cxx17__normal_iteratorIPiSt6vectorIiSaIiEEEENS0_5__ops15_Iter_less_iterEEvT_S9_RT0_
FN:418,_ZSt11__sort_heapIN9__gnu_cxx17__normal_iteratorIPiSt6vectorIiSaIiEEEENS0_5__ops15_Iter_less_iterEEvT_S9_RT0_
FNDA:0,_ZSt11__sort_heapIN9__gnu_cxx17__normal_iteratorIPiSt6vectorIiSaIiEEEENS0_5__ops15_Iter_less_iterEEvT_S9_RT0_
DA:134,0
DA:138,0
DA:139,0
DA:141,0
DA:142,0
DA:143,0
DA:145,0
DA:146,0
DA:223,0
DA:226,0
DA:227,0
DA:228,0
DA:230,0
DA:231,0
DA:233,0
DA:234,0
DA:235,0
DA:237,0
DA:239,0
DA:240,0
DA:242,0
DA:245,0
DA:246,0
DA:247,0
DA:248,0
DA:253,0
DA:261,0
DA:262,0
DA:263,0
DA:264,0
DA:265,0
DA:266,0
DA:339,0
DA:347,0
DA:348,0
DA:350,0
DA:351,0
DA:352,0
DA:354,0
DA:355,0
DA:357,0
DA:358,0
DA:359,0
DA:418,0
DA:421,0
DA:423,0
DA:424,0
DA:426,0
end_of_record
SF:/usr/include/boost/test/tree/fixture.hpp
FN:98,_ZN5boost9unit_test12impl_fixture10call_setupILb0EEclIN11RBTreeTests13TestLargeTreeEEEvRT_
FNDA:1,_ZN5boost9unit_test12impl_fixture10call_setupILb0EEclIN11RBTreeTests13TestLargeTreeEEEvRT_
FN:98,_ZN5boost9unit_test12impl_fixture10call_setupILb0EEclIN11RBTreeTests25TestConstructorDestructorEEEvRT_
FNDA:1,_ZN5boost9unit_test12impl_fixture10call_setupILb0EEclIN11RBTreeTests25TestConstructorDestructorEEEvRT_
FN:98,_ZN5boost9unit_test12impl_fixture10call_setupILb0EEclIN11RBTreeTests10TestInsertEEEvRT_
FNDA:1,_ZN5boost9unit_test12impl_fixture10call_setupILb0EEclIN11RBTreeTests10TestInsertEEEvRT_
FN:98,_ZN5boost9unit_test12impl_fixture10call_setupILb0EEclIN11RBTreeTests19TestInsertDuplicateEEEvRT_
FNDA:1,_ZN5boost9unit_test12impl_fixture10call_setupILb0EEclIN11RBTreeTests19TestInsertDuplicateEEEvRT_
FN:98,_ZN5boost9unit_test12impl_fixture10call_setupILb0EEclIN11RBTreeTests8TestFindEEEvRT_
FNDA:1,_ZN5boost9unit_test12impl_fixture10call_setupILb0EEclIN11RBTreeTests8TestFindEEEvRT_
FN:98,_ZN5boost9unit_test12impl_fixture10call_setupILb0EEclIN11RBTreeTests10TestRemoveEEEvRT_
FNDA:1,_ZN5boost9unit_test12impl_fixture10call_setupILb0EEclIN11RBTreeTests10TestRemoveEEEvRT_
FN:98,_ZN5boost9unit_test12impl_fixture10call_setupILb0EEclIN11RBTreeTests14TestRemoveRootEEEvRT_
FNDA:1,_ZN5boost9unit_test12impl_fixture10call_setupILb0EEclIN11RBTreeTests14TestRemoveRootEEEvRT_
FN:98,_ZN5boost9unit_test12impl_fixture10call_setupILb0EEclIN11RBTreeTests21TestRemoveAllElementsEEEvRT_
FNDA:1,_ZN5boost9unit_test12impl_fixture10call_setupILb0EEclIN11RBTreeTests21TestRemoveAllElementsEEEvRT_
FN:98,_ZN5boost9unit_test12impl_fixture10call_setupILb0EEclIN11RBTreeTests18TestFileOperationsEEEvRT_
FNDA:1,_ZN5boost9unit_test12impl_fixture10call_setupILb0EEclIN11RBTreeTests18TestFileOperationsEEEvRT_
FN:98,_ZN5boost9unit_test12impl_fixture10call_setupILb0EEclIN11RBTreeTests24TestBinaryFileOperationsEEEvRT_
FNDA:1,_ZN5boost9unit_test12impl_fixture10call_setupILb0EEclIN11RBTreeTests24TestBinaryFileOperationsEEEvRT_
FN:104,_ZN5boost9unit_test12impl_fixture13call_teardownILb0EEclIN11RBTreeTests14TestRemoveRootEEEvRT_
FNDA:1,_ZN5boost9unit_test12impl_fixture13call_teardownILb0EEclIN11RBTreeTests14TestRemoveRootEEEvRT_
FN:104,_ZN5boost9unit_test12impl_fixture13call_teardownILb0EEclIN11RBTreeTests13TestLargeTreeEEEvRT_
FNDA:1,_ZN5boost9unit_test12impl_fixture13call_teardownILb0EEclIN11RBTreeTests13TestLargeTreeEEEvRT_
FN:104,_ZN5boost9unit_test12impl_fixture13call_teardownILb0EEclIN11RBTreeTests25TestConstructorDestructorEEEvRT_
FNDA:1,_ZN5boost9unit_test12impl_fixture13call_teardownILb0EEclIN11RBTreeTests25TestConstructorDestructorEEEvRT_
FN:104,_ZN5boost9unit_test12impl_fixture13call_teardownILb0EEclIN11RBTreeTests24TestBinaryFileOperationsEEEvRT_
FNDA:1,_ZN5boost9unit_test12impl_fixture13call_teardownILb0EEclIN11RBTreeTests24TestBinaryFileOperationsEEEvRT_
FN:104,_ZN5boost9unit_test12impl_fixture13call_teardownILb0EEclIN11RBTreeTests10TestInsertEEEvRT_
FNDA:1,_ZN5boost9unit_test12impl_fixture13call_teardownILb0EEclIN11RBTreeTests10TestInsertEEEvRT_
FN:104,_ZN5boost9unit_test12impl_fixture13call_teardownILb0EEclIN11RBTreeTests19TestInsertDuplicateEEEvRT_
FNDA:1,_ZN5boost9unit_test12impl_fixture13call_teardownILb0EEclIN11RBTreeTests19TestInsertDuplicateEEEvRT_
FN:104,_ZN5boost9unit_test12impl_fixture13call_teardownILb0EEclIN11RBTreeTests18TestFileOperationsEEEvRT_
FNDA:1,_ZN5boost9unit_test12impl_fixture13call_teardownILb0EEclIN11RBTreeTests18TestFileOperationsEEEvRT_
FN:104,_ZN5boost9unit_test12impl_fixture13call_teardownILb0EEclIN11RBTreeTests8TestFindEEEvRT_
FNDA:1,_ZN5boost9unit_test12impl_fixture13call_teardownILb0EEclIN11RBTreeTests8TestFindEEEvRT_
FN:104,_ZN5boost9unit_test12impl_fixture13call_teardownILb0EEclIN11RBTreeTests10TestRemoveEEEvRT_
FNDA:1,_ZN5boost9unit_test12impl_fixture13call_teardownILb0EEclIN11RBTreeTests10TestRemoveEEEvRT_
FN:104,_ZN5boost9unit_test12impl_fixture13call_teardownILb0EEclIN11RBTreeTests21TestRemoveAllElementsEEEvRT_
FNDA:1,_ZN5boost9unit_test12impl_fixture13call_teardownILb0EEclIN11RBTreeTests21TestRemoveAllElementsEEEvRT_
FN:112,_ZN5boost9unit_test17setup_conditionalIN11RBTreeTests25TestConstructorDestructorEEEvRT_
FNDA:1,_ZN5boost9unit_test17setup_conditionalIN11RBTreeTests25TestConstructorDestructorEEEvRT_
FN:112,_ZN5boost9unit_test17setup_conditionalIN11RBTreeTests10TestInsertEEEvRT_
FNDA:1,_ZN5boost9unit_test17setup_conditionalIN11RBTreeTests10TestInsertEEEvRT_
FN:112,_ZN5boost9unit_test17setup_conditionalIN11RBTreeTests19TestInsertDuplicateEEEvRT_
FNDA:1,_ZN5boost9unit_test17setup_conditionalIN11RBTreeTests19TestInsertDuplicateEEEvRT_
FN:112,_ZN5boost9unit_test17setup_conditionalIN11RBTreeTests8TestFindEEEvRT_
FNDA:1,_ZN5boost9unit_test17setup_conditionalIN11RBTreeTests8TestFindEEEvRT_
FN:112,_ZN5boost9unit_test17setup_conditionalIN11RBTreeTests10TestRemoveEEEvRT_
FNDA:1,_ZN5boost9unit_test17setup_conditionalIN11RBTreeTests10TestRemoveEEEvRT_
FN:112,_ZN5boost9unit_test17setup_conditionalIN11RBTreeTests14TestRemoveRootEEEvRT_
FNDA:1,_ZN5boost9unit_test17setup_conditionalIN11RBTreeTests14TestRemoveRootEEEvRT_
FN:112,_ZN5boost9unit_test17setup_conditionalIN11RBTreeTests21TestRemoveAllElementsEEEvRT_
FNDA:1,_ZN5boost9unit_test17setup_conditionalIN11RBTreeTests21TestRemoveAllElementsEEEvRT_
FN:112,_ZN5boost9unit_test17setup_conditionalIN11RBTreeTests18TestFileOperationsEEEvRT_
FNDA:1,_ZN5boost9unit_test17setup_conditionalIN11RBTreeTests18TestFileOperationsEEEvRT_
FN:112,_ZN5boost9unit_test17setup_conditionalIN11RBTreeTests24TestBinaryFileOperationsEEEvRT_
FNDA:1,_ZN5boost9unit_test17setup_conditionalIN11RBTreeTests24TestBinaryFileOperationsEEEvRT_
FN:112,_ZN5boost9unit_test17setup_conditionalIN11RBTreeTests13TestLargeTreeEEEvRT_
FNDA:1,_ZN5boost9unit_test17setup_conditionalIN11RBTreeTests13TestLargeTreeEEEvRT_
FN:118,_ZN5boost9unit_test20teardown_conditionalIN11RBTreeTests21TestRemoveAllElementsEEEvRT_
FNDA:1,_ZN5boost9unit_test20teardown_conditionalIN11RBTreeTests21TestRemoveAllElementsEEEvRT_
FN:118,_ZN5boost9unit_test20teardown_conditionalIN11RBTreeTests14TestRemoveRootEEEvRT_
FNDA:1,_ZN5boost9unit_test20teardown_conditionalIN11RBTreeTests14TestRemoveRootEEEvRT_
FN:118,_ZN5boost9unit_test20teardown_conditionalIN11RBTreeTests10TestRemoveEEEvRT_
FNDA:1,_ZN5boost9unit_test20teardown_conditionalIN11RBTreeTests10TestRemoveEEEvRT_
FN:118,_ZN5boost9unit_test20teardown_conditionalIN11RBTreeTests18TestFileOperationsEEEvRT_
FNDA:1,_ZN5boost9unit_test20teardown_conditionalIN11RBTreeTests18TestFileOperationsEEEvRT_
FN:118,_ZN5boost9unit_test20teardown_conditionalIN11RBTreeTests8TestFindEEEvRT_
FNDA:1,_ZN5boost9unit_test20teardown_conditionalIN11RBTreeTests8TestFindEEEvRT_
FN:118,_ZN5boost9unit_test20teardown_conditionalIN11RBTreeTests19TestInsertDuplicateEEEvRT_
FNDA:1,_ZN5boost9unit_test20teardown_conditionalIN11RBTreeTests19TestInsertDuplicateEEEvRT_
FN:118,_ZN5boost9unit_test20teardown_conditionalIN11RBTreeTests24TestBinaryFileOperationsEEEvRT_
FNDA:1,_ZN5boost9unit_test20teardown_conditionalIN11RBTreeTests24TestBinaryFileOperationsEEEvRT_
FN:118,_ZN5boost9unit_test20teardown_conditionalIN11RBTreeTests10TestInsertEEEvRT_
FNDA:1,_ZN5boost9unit_test20teardown_conditionalIN11RBTreeTests10TestInsertEEEvRT_
FN:118,_ZN5boost9unit_test20teardown_conditionalIN11RBTreeTests25TestConstructorDestructorEEEvRT_
FNDA:1,_ZN5boost9unit_test20teardown_conditionalIN11RBTreeTests25TestConstructorDestructorEEEvRT_
FN:118,_ZN5boost9unit_test20teardown_conditionalIN11RBTreeTests13TestLargeTreeEEEvRT_
FNDA:1,_ZN5boost9unit_test20teardown_conditionalIN11RBTreeTests13TestLargeTreeEEEvRT_
DA:98,1
DA:98,1
DA:98,1
DA:98,1
DA:98,1
DA:98,1
DA:98,1
DA:98,1
DA:98,1
DA:98,1
DA:104,1
DA:104,1
DA:104,1
DA:104,1
DA:104,1
DA:104,1
DA:104,1
DA:104,1
DA:104,1
DA:104,1
DA:112,1
DA:113,1
DA:112,1
DA:113,1
DA:112,1
DA:113,1
DA:112,1
DA:113,1
DA:112,1
DA:113,1
DA:112,1
DA:113,1
DA:112,1
DA:113,1
DA:112,1
DA:113,1
DA:112,1
DA:113,1
DA:112,1
DA:113,1
DA:118,1
DA:119,1
DA:118,1
DA:119,1
DA:118,1
DA:119,1
DA:118,1
DA:119,1
DA:118,1
DA:119,1
DA:118,1
DA:119,1
DA:118,1
DA:119,1
DA:118,1
DA:119,1
DA:118,1
DA:119,1
DA:118,1
DA:119,1
end_of_record
SF:/usr/include/boost/type_index/stl_type_index.hpp
FN:93,_ZN5boost9typeindex14stl_type_indexC2ERKSt9type_info
FNDA:0,_ZN5boost9typeindex14stl_type_indexC2ERKSt9type_info
FN:117,_ZNK5boost9typeindex14stl_type_index9type_infoEv
FNDA:0,_ZNK5boost9typeindex14stl_type_index9type_infoEv
FN:206,_ZNK5boost9typeindex14stl_type_index5equalERKS1_
FNDA:0,_ZNK5boost9typeindex14stl_type_index5equalERKS1_
FN:226,_ZN5boost9typeindex14stl_type_index7type_idIPFvvEEES1_v
FNDA:0,_ZN5boost9typeindex14stl_type_index7type_idIPFvvEEES1_v
DA:93,0
DA:94,0
DA:95,0
DA:117,0
DA:118,0
DA:206,0
DA:210,0
DA:226,0
DA:246,0
end_of_record
SF:/usr/include/boost/test/unit_test_suite.hpp
FN:387,_Z14init_unit_testv
FNDA:1,_Z14init_unit_testv
DA:387,1
DA:394,1
end_of_record
SF:/usr/include/c++/11/bits/stl_uninitialized.h
FN:1006,_ZSt14__relocate_a_1IiiENSt9enable_ifIXsrSt24__is_bitwise_relocatableIT_vE5valueEPS2_E4typeES4_S4_S4_RSaIT0_E
FNDA:92,_ZSt14__relocate_a_1IiiENSt9enable_ifIXsrSt24__is_bitwise_relocatableIT_vE5valueEPS2_E4typeES4_S4_S4_RSaIT0_E
FN:1040,_ZSt12__relocate_aIPiS0_SaIiEET0_T_S3_S2_RT1_
FNDA:92,_ZSt12__relocate_aIPiS0_SaIiEET0_T_S3_S2_RT1_
DA:1006,92
DA:1009,92
DA:1010,92
DA:1011,38
DA:1012,92
DA:1040,92
DA:1046,92
DA:1048,92
end_of_record
SF:/usr/include/c++/11/bits/random.h
FN:136,_ZNSt8__detail4_ModImLm624ELm1ELm0ELb1ELb1EE6__calcEm
FNDA:623,_ZNSt8__detail4_ModImLm624ELm1ELm0ELb1ELb1EE6__calcEm
FN:136,_ZNSt8__detail4_ModImLm4294967296ELm1ELm0ELb1ELb1EE6__calcEm
FNDA:624,_ZNSt8__detail4_ModImLm4294967296ELm1ELm0ELb1ELb1EE6__calcEm
FN:147,_ZNSt8__detail5__modImLm624ELm1ELm0EEET_S1_
FNDA:623,_ZNSt8__detail5__modImLm624ELm1ELm0EEET_S1_
FN:147,_ZNSt8__detail5__modImLm4294967296ELm1ELm0EEET_S1_
FNDA:624,_ZNSt8__detail5__modImLm4294967296ELm1ELm0EEET_S1_
FN:530,_ZNSt23mersenne_twister_engineImLm32ELm624ELm397ELm31ELm2567483615ELm11ELm4294967295ELm7ELm2636928640ELm15ELm4022730752ELm18ELm1812433253EEC2Em
FNDA:1,_ZNSt23mersenne_twister_engineImLm32ELm624ELm397ELm31ELm2567483615ELm11ELm4294967295ELm7ELm2636928640ELm15ELm4022730752ELm18ELm1812433253EEC2Em
FN:1618,_ZNSt13random_deviceC2Ev
FNDA:1,_ZNSt13random_deviceC2Ev
FN:1624,_ZNSt13random_deviceD2Ev
FNDA:1,_ZNSt13random_deviceD2Ev
FN:1647,_ZNSt13random_deviceclEv
FNDA:1,_ZNSt13random_deviceclEv
DA:136,623
DA:138,623
DA:140,623
DA:141,623
DA:136,624
DA:138,624
DA:140,624
DA:141,624
DA:147,623
DA:154,623
DA:155,623
DA:147,624
DA:154,624
DA:155,624
DA:530,1
DA:531,1
DA:1618,1
DA:1624,1
DA:1625,1
DA:1647,1
DA:1648,1
end_of_record
SF:/usr/include/c++/11/bits/basic_string.h
FN:251,_ZNSt7__cxx1112basic_stringIcSt11char_traitsIcESaIcEE16_M_construct_auxIPKcEEvT_S8_St12__false_type
FNDA:0,_ZNSt7__cxx1112basic_stringIcSt11char_traitsIcESaIcEE16_M_construct_auxIPKcEEvT_S8_St12__false_type
FN:271,_ZNSt7__cxx1112basic_stringIcSt11char_traitsIcESaIcEE12_M_constructIPKcEEvT_S8_
FNDA:0,_ZNSt7__cxx1112basic_stringIcSt11char_traitsIcESaIcEE12_M_constructIPKcEEvT_S8_
FN:533,_ZNSt7__cxx1112basic_stringIcSt11char_traitsIcESaIcEEC2IS3_EEPKcRKS3_
FNDA:198,_ZNSt7__cxx1112basic_stringIcSt11char_traitsIcESaIcEEC2IS3_EEPKcRKS3_
DA:251,0
DA:255,0
DA:256,0
DA:271,0
DA:274,0
DA:275,0
DA:533,198
DA:534,198
DA:536,198
DA:539,198
DA:540,198
end_of_record
SF:/usr/include/c++/11/bits/alloc_traits.h
FN:463,_ZNSt16allocator_traitsISaIiEE8allocateERS0_m
FNDA:46,_ZNSt16allocator_traitsISaIiEE8allocateERS0_m
FN:495,_ZNSt16allocator_traitsISaIiEE10deallocateERS0_Pim
FNDA:46,_ZNSt16allocator_traitsISaIiEE10deallocateERS0_Pim
FN:511,_ZNSt16allocator_traitsISaIiEE9constructIiJiEEEvRS0_PT_DpOT0_
FNDA:322,_ZNSt16allocator_traitsISaIiEE9constructIiJiEEEvRS0_PT_DpOT0_
FN:511,_ZNSt16allocator_traitsISaIiEE9constructIiJRKiEEEvRS0_PT_DpOT0_
FNDA:49,_ZNSt16allocator_traitsISaIiEE9constructIiJRKiEEEvRS0_PT_DpOT0_
FN:547,_ZNSt16allocator_traitsISaIiEE8max_sizeERKS0_
FNDA:92,_ZNSt16allocator_traitsISaIiEE8max_sizeERKS0_
FN:845,_ZSt8_DestroyIPiiEvT_S1_RSaIT0_E
FNDA:9,_ZSt8_DestroyIPiiEvT_S1_RSaIT0_E
DA:463,46
DA:464,46
DA:495,46
DA:496,46
DA:511,322
DA:516,322
DA:520,322
DA:511,49
DA:516,49
DA:520,49
DA:547,92
DA:550,92
DA:845,9
DA:848,9
DA:849,9
end_of_record
SF:/usr/include/boost/test/utils/lazy_ostream.hpp
FN:33,_ZN5boost9unit_test12lazy_ostreamD2Ev
FNDA:533,_ZN5boost9unit_test12lazy_ostreamD2Ev
FN:33,_ZN5boost9unit_test12lazy_ostreamD0Ev
FNDA:0,_ZN5boost9unit_test12lazy_ostreamD0Ev
FN:35,_ZN5boost9unit_test12lazy_ostream8instanceEv
FNDA:533,_ZN5boost9unit_test12lazy_ostream8instanceEv
FN:51,_ZNK5boost9unit_test12lazy_ostreamclERSo
FNDA:0,_ZNK5boost9unit_test12lazy_ostreamclERSo
FN:53,_ZN5boost9unit_test12lazy_ostreamC2Eb
FNDA:533,_ZN5boost9unit_test12lazy_ostreamC2Eb
FN:72,_ZN5boost9unit_test17lazy_ostream_implINS0_12lazy_ostreamEA39_cRA39_KcEC2ERKS2_S6_
FNDA:1,_ZN5boost9unit_test17lazy_ostream_implINS0_12lazy_ostreamEA39_cRA39_KcEC2ERKS2_S6_
FN:72,_ZN5boost9unit_test17lazy_ostream_implINS0_12lazy_ostreamEA38_cRA38_KcEC2ERKS2_S6_
FNDA:5,_ZN5boost9unit_test17lazy_ostream_implINS0_12lazy_ostreamEA38_cRA38_KcEC2ERKS2_S6_
FN:72,_ZN5boost9unit_test17lazy_ostream_implINS0_12lazy_ostreamEA45_cRA45_KcEC2ERKS2_S6_
FNDA:3,_ZN5boost9unit_test17lazy_ostream_implINS0_12lazy_ostreamEA45_cRA45_KcEC2ERKS2_S6_
FN:72,_ZN5boost9unit_test17lazy_ostream_implINS0_12lazy_ostreamEA46_cRA46_KcEC2ERKS2_S6_
FNDA:0,_ZN5boost9unit_test17lazy_ostream_implINS0_12lazy_ostreamEA46_cRA46_KcEC2ERKS2_S6_
FN:72,_ZN5boost9unit_test17lazy_ostream_implINS0_12lazy_ostreamEA37_cRA37_KcEC2ERKS2_S6_
FNDA:7,_ZN5boost9unit_test17lazy_ostream_implINS0_12lazy_ostreamEA37_cRA37_KcEC2ERKS2_S6_
FN:72,_ZN5boost9unit_test17lazy_ostream_implINS0_12lazy_ostreamEA44_cRA44_KcEC2ERKS2_S6_
FNDA:0,_ZN5boost9unit_test17lazy_ostream_implINS0_12lazy_ostreamEA44_cRA44_KcEC2ERKS2_S6_
FN:72,_ZN5boost9unit_test17lazy_ostream_implINS0_12lazy_ostreamEA41_cRA41_KcEC2ERKS2_S6_
FNDA:244,_ZN5boost9unit_test17lazy_ostream_implINS0_12lazy_ostreamEA41_cRA41_KcEC2ERKS2_S6_
FN:72,_ZN5boost9unit_test17lazy_ostream_implINS0_12lazy_ostreamENS0_13basic_cstringIKcEERKS5_EC2ERKS2_S7_
FNDA:261,_ZN5boost9unit_test17lazy_ostream_implINS0_12lazy_ostreamENS0_13basic_cstringIKcEERKS5_EC2ERKS2_S7_
FN:72,_ZN5boost9unit_test17lazy_ostream_implINS0_12lazy_ostreamEA55_cRA55_KcEC2ERKS2_S6_
FNDA:0,_ZN5boost9unit_test17lazy_ostream_implINS0_12lazy_ostreamEA55_cRA55_KcEC2ERKS2_S6_
FN:72,_ZN5boost9unit_test17lazy_ostream_implINS0_12lazy_ostreamEA48_cRA48_KcEC2ERKS2_S6_
FNDA:12,_ZN5boost9unit_test17lazy_ostream_implINS0_12lazy_ostreamEA48_cRA48_KcEC2ERKS2_S6_
FN:79,_ZNK5boost9unit_test17lazy_ostream_implINS0_12lazy_ostreamEA45_cRA45_KcEclERSo
FNDA:0,_ZNK5boost9unit_test17lazy_ostream_implINS0_12lazy_ostreamEA45_cRA45_KcEclERSo
FN:79,_ZNK5boost9unit_test17lazy_ostream_implINS0_12lazy_ostreamEA39_cRA39_KcEclERSo
FNDA:0,_ZNK5boost9unit_test17lazy_ostream_implINS0_12lazy_ostreamEA39_cRA39_KcEclERSo
FN:79,_ZNK5boost9unit_test17lazy_ostream_implINS0_12lazy_ostreamEA46_cRA46_KcEclERSo
FNDA:0,_ZNK5boost9unit_test17lazy_ostream_implINS0_12lazy_ostreamEA46_cRA46_KcEclERSo
FN:79,_ZNK5boost9unit_test17lazy_ostream_implINS0_12lazy_ostreamEA37_cRA37_KcEclERSo
FNDA:0,_ZNK5boost9unit_test17lazy_ostream_implINS0_12lazy_ostreamEA37_cRA37_KcEclERSo
FN:79,_ZNK5boost9unit_test17lazy_ostream_implINS0_12lazy_ostreamEA44_cRA44_KcEclERSo
FNDA:0,_ZNK5boost9unit_test17lazy_ostream_implINS0_12lazy_ostreamEA44_cRA44_KcEclERSo
FN:79,_ZNK5boost9unit_test17lazy_ostream_implINS0_12lazy_ostreamEA41_cRA41_KcEclERSo
FNDA:0,_ZNK5boost9unit_test17lazy_ostream_implINS0_12lazy_ostreamEA41_cRA41_KcEclERSo
FN:79,_ZNK5boost9unit_test17lazy_ostream_implINS0_12lazy_ostreamEA48_cRA48_KcEclERSo
FNDA:9,_ZNK5boost9unit_test17lazy_ostream_implINS0_12lazy_ostreamEA48_cRA48_KcEclERSo
FN:79,_ZNK5boost9unit_test17lazy_ostream_implINS0_12lazy_ostreamEA38_cRA38_KcEclERSo
FNDA:0,_ZNK5boost9unit_test17lazy_ostream_implINS0_12lazy_ostreamEA38_cRA38_KcEclERSo
FN:79,_ZNK5boost9unit_test17lazy_ostream_implINS0_12lazy_ostreamENS0_13basic_cstringIKcEERKS5_EclERSo
FNDA:11,_ZNK5boost9unit_test17lazy_ostream_implINS0_12lazy_ostreamENS0_13basic_cstringIKcEERKS5_EclERSo
FN:79,_ZNK5boost9unit_test17lazy_ostream_implINS0_12lazy_ostreamEA55_cRA55_KcEclERSo
FNDA:0,_ZNK5boost9unit_test17lazy_ostream_implINS0_12lazy_ostreamEA55_cRA55_KcEclERSo
FN:93,_ZN5boost9unit_testlsIA55_cEENS0_17lazy_ostream_implINS0_12lazy_ostreamET_RKS5_EERKS4_S7_
FNDA:0,_ZN5boost9unit_testlsIA55_cEENS0_17lazy_ostream_implINS0_12lazy_ostreamET_RKS5_EERKS4_S7_
FN:93,_ZN5boost9unit_testlsINS0_13basic_cstringIKcEEEENS0_17lazy_ostream_implINS0_12lazy_ostreamET_RKS7_EERKS6_S9_
FNDA:261,_ZN5boost9unit_testlsINS0_13basic_cstringIKcEEEENS0_17lazy_ostream_implINS0_12lazy_ostreamET_RKS7_EERKS6_S9_
FN:93,_ZN5boost9unit_testlsIA48_cEENS0_17lazy_ostream_implINS0_12lazy_ostreamET_RKS5_EERKS4_S7_
FNDA:12,_ZN5boost9unit_testlsIA48_cEENS0_17lazy_ostream_implINS0_12lazy_ostreamET_RKS5_EERKS4_S7_
FN:93,_ZN5boost9unit_testlsIA41_cEENS0_17lazy_ostream_implINS0_12lazy_ostreamET_RKS5_EERKS4_S7_
FNDA:244,_ZN5boost9unit_testlsIA41_cEENS0_17lazy_ostream_implINS0_12lazy_ostreamET_RKS5_EERKS4_S7_
FN:93,_ZN5boost9unit_testlsIA44_cEENS0_17lazy_ostream_implINS0_12lazy_ostreamET_RKS5_EERKS4_S7_
FNDA:0,_ZN5boost9unit_testlsIA44_cEENS0_17lazy_ostream_implINS0_12lazy_ostreamET_RKS5_EERKS4_S7_
FN:93,_ZN5boost9unit_testlsIA37_cEENS0_17lazy_ostream_implINS0_12lazy_ostreamET_RKS5_EERKS4_S7_
FNDA:7,_ZN5boost9unit_testlsIA37_cEENS0_17lazy_ostream_implINS0_12lazy_ostreamET_RKS5_EERKS4_S7_
FN:93,_ZN5boost9unit_testlsIA46_cEENS0_17lazy_ostream_implINS0_12lazy_ostreamET_RKS5_EERKS4_S7_
FNDA:0,_ZN5boost9unit_testlsIA46_cEENS0_17lazy_ostream_implINS0_12lazy_ostreamET_RKS5_EERKS4_S7_
FN:93,_ZN5boost9unit_testlsIA39_cEENS0_17lazy_ostream_implINS0_12lazy_ostreamET_RKS5_EERKS4_S7_
FNDA:1,_ZN5boost9unit_testlsIA39_cEENS0_17lazy_ostream_implINS0_12lazy_ostreamET_RKS5_EERKS4_S7_
FN:93,_ZN5boost9unit_testlsIA45_cEENS0_17lazy_ostream_implINS0_12lazy_ostreamET_RKS5_EERKS4_S7_
FNDA:3,_ZN5boost9unit_testlsIA45_cEENS0_17lazy_ostream_implINS0_12lazy_ostreamET_RKS5_EERKS4_S7_
FN:93,_ZN5boost9unit_testlsIA38_cEENS0_17lazy_ostream_implINS0_12lazy_ostreamET_RKS5_EERKS4_S7_
FNDA:5,_ZN5boost9unit_testlsIA38_cEENS0_17lazy_ostream_implINS0_12lazy_ostreamET_RKS5_EERKS4_S7_
DA:33,0
DA:33,533
DA:35,533
DA:51,0
DA:53,533
DA:72,0
DA:74,0
DA:75,0
DA:77,0
DA:72,261
DA:74,261
DA:75,261
DA:77,261
DA:72,12
DA:74,12
DA:75,12
DA:77,12
DA:72,244
DA:74,244
DA:75,244
DA:77,244
DA:72,0
DA:74,0
DA:75,0
DA:77,0
DA:72,7
DA:74,7
DA:75,7
DA:77,7
DA:72,0
DA:74,0
DA:75,0
DA:77,0
DA:72,1
DA:74,1
DA:75,1
DA:77,1
DA:72,3
DA:74,3
DA:75,3
DA:77,3
DA:72,5
DA:74,5
DA:75,5
DA:77,5
DA:79,0
DA:81,0
DA:79,0
DA:81,0
DA:79,0
DA:81,0
DA:79,0
DA:81,0
DA:79,0
DA:81,0
DA:79,0
DA:81,0
DA:79,0
DA:81,0
DA:79,9
DA:81,9
DA:79,11
DA:81,11
DA:79,0
DA:81,0
DA:93,0
DA:95,0
DA:93,261
DA:95,261
DA:93,12
DA:95,12
DA:93,244
DA:95,244
DA:93,0
DA:95,0
DA:93,7
DA:95,7
DA:93,0
DA:95,0
DA:93,1
DA:95,1
DA:93,3
DA:95,3
DA:93,5
DA:95,5
end_of_record
SF:/usr/include/boost/test/unit_test_log.hpp
end_of_record
SF:/usr/include/boost/test/tools/assertion_result.hpp
FN:52,_ZN5boost10test_tools16assertion_resultC2Eb
FNDA:533,_ZN5boost10test_tools16assertion_resultC2Eb
FN:65,_ZN5boost10test_tools16assertion_result19readonly_property65C2Eb
FNDA:533,_ZN5boost10test_tools16assertion_result19readonly_property65C2Eb
DA:52,533
DA:53,533
DA:54,533
DA:65,533
end_of_record
SF:/usr/include/boost/function/function_template.hpp
FN:112,_ZN5boost6detail8function22void_function_invoker0IPFvvEvE6invokeERNS1_15function_bufferE
FNDA:10,_ZN5boost6detail8function22void_function_invoker0IPFvvEvE6invokeERNS1_15function_bufferE
FN:490,_ZNK5boost6detail8function13basic_vtable0IvE9assign_toIPFvvEEEbT_RNS1_15function_bufferE
FNDA:10,_ZNK5boost6detail8function13basic_vtable0IvE9assign_toIPFvvEEEbT_RNS1_15function_bufferE
FN:502,_ZNK5boost6detail8function13basic_vtable0IvE5clearERNS1_15function_bufferE
FNDA:10,_ZNK5boost6detail8function13basic_vtable0IvE5clearERNS1_15function_bufferE
FN:512,_ZNK5boost6detail8function13basic_vtable0IvE9assign_toIPFvvEEEbT_RNS1_15function_bufferENS1_16function_ptr_tagE
FNDA:10,_ZNK5boost6detail8function13basic_vtable0IvE9assign_toIPFvvEEEbT_RNS1_15function_bufferENS1_16function_ptr_tagE
FN:677,_ZNK5boost9function0IvE10get_vtableEv
FNDA:0,_ZNK5boost9function0IvE10get_vtableEv
FN:711,_ZN5boost9function0IvEC2IPFvvEEET_NS_10enable_if_IXntsrNS_11is_integralIS5_EE5valueEiE4typeE
FNDA:10,_ZN5boost9function0IvEC2IPFvvEEET_NS_10enable_if_IXntsrNS_11is_integralIS5_EE5valueEiE4typeE
FN:756,_ZN5boost9function0IvED2Ev
FNDA:10,_ZN5boost9function0IvED2Ev
FN:868,_ZN5boost9function0IvE5clearEv
FNDA:10,_ZN5boost9function0IvE5clearEv
FN:921,_ZN5boost9function0IvE9assign_toIPFvvEEEvT_
FNDA:10,_ZN5boost9function0IvE9assign_toIPFvvEEEvT_
FN:1079,_ZN5boost8functionIFvvEEC2IPS1_EET_NS_10enable_if_IXntsrNS_11is_integralIS5_EE5valueEiE4typeE
FNDA:10,_ZN5boost8functionIFvvEEC2IPS1_EET_NS_10enable_if_IXntsrNS_11is_integralIS5_EE5valueEiE4typeE
DA:112,10
DA:116,10
DA:117,10
DA:118,10
DA:490,10
DA:493,10
DA:502,10
DA:504,10
DA:505,10
DA:506,10
DA:512,10
DA:514,10
DA:515,10
DA:518,10
DA:519,10
DA:521,0
DA:677,0
DA:679,0
DA:711,10
DA:718,10
DA:720,10
DA:721,10
DA:756,10
DA:868,10
DA:870,10
DA:871,10
DA:872,0
DA:873,10
DA:875,10
DA:921,10
DA:942,10
DA:943,10
DA:948,10
DA:949,10
DA:951,0
DA:952,10
DA:1079,10
DA:1086,10
DA:1088,10
end_of_record
SF:/usr/include/c++/11/bits/allocator.h
FN:156,_ZNSaIiEC2Ev
FNDA:8,_ZNSaIiEC2Ev
FN:174,_ZNSaIiED2Ev
FNDA:8,_ZNSaIiED2Ev
DA:156,8
DA:174,8
end_of_record
SF:/usr/include/boost/test/utils/wrap_stringstream.hpp
FN:64,_ZN5boostlsIcA14_cEERNS_23basic_wrap_stringstreamIT_EES5_RKT0_
FNDA:5,_ZN5boostlsIcA14_cEERNS_23basic_wrap_stringstreamIT_EES5_RKT0_
FN:64,_ZN5boostlsIcA25_cEERNS_23basic_wrap_stringstreamIT_EES5_RKT0_
FNDA:5,_ZN5boostlsIcA25_cEERNS_23basic_wrap_stringstreamIT_EES5_RKT0_
FN:64,_ZN5boostlsIcA22_cEERNS_23basic_wrap_stringstreamIT_EES5_RKT0_
FNDA:5,_ZN5boostlsIcA22_cEERNS_23basic_wrap_stringstreamIT_EES5_RKT0_
FN:64,_ZN5boostlsIcA9_cEERNS_23basic_wrap_stringstreamIT_EES5_RKT0_
FNDA:5,_ZN5boostlsIcA9_cEERNS_23basic_wrap_stringstreamIT_EES5_RKT0_
FN:64,_ZN5boostlsIcA20_cEERNS_23basic_wrap_stringstreamIT_EES5_RKT0_
FNDA:5,_ZN5boostlsIcA20_cEERNS_23basic_wrap_stringstreamIT_EES5_RKT0_
FN:64,_ZN5boostlsIcA11_cEERNS_23basic_wrap_stringstreamIT_EES5_RKT0_
FNDA:10,_ZN5boostlsIcA11_cEERNS_23basic_wrap_stringstreamIT_EES5_RKT0_
FN:64,_ZN5boostlsIcA19_cEERNS_23basic_wrap_stringstreamIT_EES5_RKT0_
FNDA:15,_ZN5boostlsIcA19_cEERNS_23basic_wrap_stringstreamIT_EES5_RKT0_
FN:64,_ZN5boostlsIcA13_cEERNS_23basic_wrap_stringstreamIT_EES5_RKT0_
FNDA:10,_ZN5boostlsIcA13_cEERNS_23basic_wrap_stringstreamIT_EES5_RKT0_
FN:64,_ZN5boostlsIcA16_cEERNS_23basic_wrap_stringstreamIT_EES5_RKT0_
FNDA:10,_ZN5boostlsIcA16_cEERNS_23basic_wrap_stringstreamIT_EES5_RKT0_
FN:64,_ZN5boostlsIcA15_cEERNS_23basic_wrap_stringstreamIT_EES5_RKT0_
FNDA:25,_ZN5boostlsIcA15_cEERNS_23basic_wrap_stringstreamIT_EES5_RKT0_
FN:64,_ZN5boostlsIcA26_cEERNS_23basic_wrap_stringstreamIT_EES5_RKT0_
FNDA:5,_ZN5boostlsIcA26_cEERNS_23basic_wrap_stringstreamIT_EES5_RKT0_
FN:64,_ZN5boostlsIccEERNS_23basic_wrap_stringstreamIT_EES4_RKT0_
FNDA:50,_ZN5boostlsIccEERNS_23basic_wrap_stringstreamIT_EES4_RKT0_
FN:74,_ZN5boost23basic_wrap_stringstreamIcE6streamB5cxx11Ev
FNDA:150,_ZN5boost23basic_wrap_stringstreamIcE6streamB5cxx11Ev
FN:83,_ZN5boost23basic_wrap_stringstreamIcE3refEv
FNDA:50,_ZN5boost23basic_wrap_stringstreamIcE3refEv
FN:92,_ZN5boost23basic_wrap_stringstreamIcE3strB5cxx11Ev
FNDA:50,_ZN5boost23basic_wrap_stringstreamIcE3strB5cxx11Ev
DA:64,5
DA:66,5
DA:67,5
DA:64,5
DA:66,5
DA:67,5
DA:64,5
DA:66,5
DA:67,5
DA:64,5
DA:66,5
DA:67,5
DA:64,5
DA:66,5
DA:67,5
DA:64,10
DA:66,10
DA:67,10
DA:64,15
DA:66,15
DA:67,15
DA:64,10
DA:66,10
DA:67,10
DA:64,10
DA:66,10
DA:67,10
DA:64,25
DA:66,25
DA:67,25
DA:64,5
DA:66,5
DA:67,5
DA:64,50
DA:66,50
DA:67,50
DA:74,150
DA:76,150
DA:83,50
DA:85,50
DA:92,50
DA:99,50
DA:102,50
end_of_record
SF:/usr/include/c++/11/bits/predefined_ops.h
FN:44,_ZNK9__gnu_cxx5__ops15_Iter_less_iterclINS_17__normal_iteratorIPiSt6vectorIiSaIiEEEES8_EEbT_T0_
FNDA:395,_ZNK9__gnu_cxx5__ops15_Iter_less_iterclINS_17__normal_iteratorIPiSt6vectorIiSaIiEEEES8_EEbT_T0_
FN:50,_ZN9__gnu_cxx5__ops16__iter_less_iterEv
FNDA:1,_ZN9__gnu_cxx5__ops16__iter_less_iterEv
FN:63,_ZN9__gnu_cxx5__ops14_Iter_less_valC2ENS0_15_Iter_less_iterE
FNDA:0,_ZN9__gnu_cxx5__ops14_Iter_less_valC2ENS0_15_Iter_less_iterE
FN:68,_ZNK9__gnu_cxx5__ops14_Iter_less_valclINS_17__normal_iteratorIPiSt6vectorIiSaIiEEEEiEEbT_RT0_
FNDA:0,_ZNK9__gnu_cxx5__ops14_Iter_less_valclINS_17__normal_iteratorIPiSt6vectorIiSaIiEEEEiEEbT_RT0_
FN:97,_ZNK9__gnu_cxx5__ops14_Val_less_iterclIiNS_17__normal_iteratorIPiSt6vectorIiSaIiEEEEEEbRT_T0_
FNDA:347,_ZNK9__gnu_cxx5__ops14_Val_less_iterclIiNS_17__normal_iteratorIPiSt6vectorIiSaIiEEEEEEbRT_T0_
FN:108,_ZN9__gnu_cxx5__ops15__val_comp_iterENS0_15_Iter_less_iterE
FNDA:96,_ZN9__gnu_cxx5__ops15__val_comp_iterENS0_15_Iter_less_iterE
FN:116,_ZNK9__gnu_cxx5__ops19_Iter_equal_to_iterclINS_17__normal_iteratorIPiSt6vectorIiSaIiEEEES8_EEbT_T0_
FNDA:99,_ZNK9__gnu_cxx5__ops19_Iter_equal_to_iterclINS_17__normal_iteratorIPiSt6vectorIiSaIiEEEES8_EEbT_T0_
FN:122,_ZN9__gnu_cxx5__ops20__iter_equal_to_iterEv
FNDA:1,_ZN9__gnu_cxx5__ops20__iter_equal_to_iterEv
DA:44,395
DA:45,395
DA:50,1
DA:51,1
DA:63,0
DA:68,0
DA:69,0
DA:97,347
DA:98,347
DA:108,96
DA:109,96
DA:116,99
DA:117,99
DA:122,1
DA:123,1
end_of_record
SF:/usr/include/boost/function/function_base.hpp
FN:259,_ZN5boost6detail8function22functor_manager_commonIPFvvEE10manage_ptrERKNS1_15function_bufferERS6_NS1_30functor_manager_operation_typeE
FNDA:10,_ZN5boost6detail8function22functor_manager_commonIPFvvEE10manage_ptrERKNS1_15function_bufferERS6_NS1_30functor_manager_operation_typeE
FN:322,_ZN5boost6detail8function15functor_managerIPFvvEE7managerERKNS1_15function_bufferERS6_NS1_30functor_manager_operation_typeENS1_16function_ptr_tagE
FNDA:10,_ZN5boost6detail8function15functor_managerIPFvvEE7managerERKNS1_15function_bufferERS6_NS1_30functor_manager_operation_typeENS1_16function_ptr_tagE
FN:395,_ZN5boost6detail8function15functor_managerIPFvvEE6manageERKNS1_15function_bufferERS6_NS1_30functor_manager_operation_typeE
FNDA:10,_ZN5boost6detail8function15functor_managerIPFvvEE6manageERKNS1_15function_bufferERS6_NS1_30functor_manager_operation_typeE
FN:603,_ZN5boost13function_baseC2Ev
FNDA:10,_ZN5boost13function_baseC2Ev
FN:689,_ZNK5boost13function_base28has_trivial_copy_and_destroyEv
FNDA:10,_ZNK5boost13function_base28has_trivial_copy_and_destroyEv
DA:259,10
DA:262,10
DA:263,0
DA:264,10
DA:265,0
DA:266,0
DA:267,10
DA:268,10
DA:269,0
DA:270,0
DA:271,0
DA:273,0
DA:275,0
DA:276,0
DA:277,0
DA:279,10
DA:322,10
DA:325,10
DA:326,10
DA:395,10
DA:399,10
DA:400,0
DA:401,0
DA:402,0
DA:404,10
DA:406,10
DA:603,10
DA:689,10
DA:690,10
end_of_record
SF:/usr/include/boost/test/tools/detail/fwd.hpp
FN:45,_ZN5boost10test_tools9tt_detail10dummy_condEv
FNDA:805,_ZN5boost10test_tools9tt_detail10dummy_condEv
DA:45,805
end_of_record
SF:/usr/include/c++/11/bits/basic_string.tcc
FN:206,_ZNSt7__cxx1112basic_stringIcSt11char_traitsIcESaIcEE12_M_constructIPKcEEvT_S8_St20forward_iterator_tag
FNDA:223,_ZNSt7__cxx1112basic_stringIcSt11char_traitsIcESaIcEE12_M_constructIPKcEEvT_S8_St20forward_iterator_tag
DA:206,223
DA:211,223
DA:212,0
DA:215,223
DA:217,223
DA:219,12
DA:220,12
DA:225,223
DA:226,0
DA:228,0
DA:229,0
DA:232,223
DA:233,223
end_of_record
SF:/usr/include/c++/11/typeinfo
FN:120,_ZNKSt9type_infoeqERKS_
FNDA:0,_ZNKSt9type_infoeqERKS_
DA:120,0
DA:122,0
DA:123,0
DA:124,0
end_of_record
SF:/usr/include/c++/11/bits/stl_iterator_base_types.h
FN:238,_ZSt19__iterator_categoryIPKcENSt15iterator_traitsIT_E17iterator_categoryERKS3_
FNDA:223,_ZSt19__iterator_categoryIPKcENSt15iterator_traitsIT_E17iterator_categoryERKS3_
DA:238,223
DA:239,223
end_of_record
SF:/usr/include/boost/test/utils/basic_cstring/basic_cstring.hpp
FN:83,_ZN5boost9unit_test13basic_cstringIKcEC2IiEEPS2_T_
FNDA:0,_ZN5boost9unit_test13basic_cstringIKcEC2IiEEPS2_T_
FN:83,_ZN5boost9unit_test13basic_cstringIKcEC2ImEEPS2_T_
FNDA:1381,_ZN5boost9unit_test13basic_cstringIKcEC2ImEEPS2_T_
FN:206,_ZN5boost9unit_test13basic_cstringIKcE8null_strEv
FNDA:536,_ZN5boost9unit_test13basic_cstringIKcE8null_strEv
FN:215,_ZN5boost9unit_test13basic_cstringIKcEC2Ev
FNDA:536,_ZN5boost9unit_test13basic_cstringIKcEC2Ev
FN:225,_ZN5boost9unit_test13basic_cstringIKcEC2ERKS3_
FNDA:23,_ZN5boost9unit_test13basic_cstringIKcEC2ERKS3_
FN:235,_ZN5boost9unit_test13basic_cstringIKcEC2ERKNSt7__cxx1112basic_stringIcSt11char_traitsIcESaIcEEE
FNDA:60,_ZN5boost9unit_test13basic_cstringIKcEC2ERKNSt7__cxx1112basic_stringIcSt11char_traitsIcESaIcEEE
FN:245,_ZN5boost9unit_test13basic_cstringIKcEC2EPS2_
FNDA:23,_ZN5boost9unit_test13basic_cstringIKcEC2EPS2_
FN:286,_ZNK5boost9unit_test13basic_cstringIKcE4sizeEv
FNDA:2,_ZNK5boost9unit_test13basic_cstringIKcE4sizeEv
FN:295,_ZNK5boost9unit_test13basic_cstringIKcE8is_emptyEv
FNDA:2,_ZNK5boost9unit_test13basic_cstringIKcE8is_emptyEv
FN:313,_ZN5boost9unit_test13basic_cstringIKcE5clearEv
FNDA:0,_ZN5boost9unit_test13basic_cstringIKcE5clearEv
FN:345,_ZN5boost9unit_test13basic_cstringIKcE9trim_leftEPS2_
FNDA:1,_ZN5boost9unit_test13basic_cstringIKcE9trim_leftEPS2_
FN:358,_ZN5boost9unit_test13basic_cstringIKcE9trim_leftES3_
FNDA:1,_ZN5boost9unit_test13basic_cstringIKcE9trim_leftES3_
FN:389,_ZN5boost9unit_test13basic_cstringIKcE10trim_rightEPS2_
FNDA:1,_ZN5boost9unit_test13basic_cstringIKcE10trim_rightEPS2_
FN:402,_ZN5boost9unit_test13basic_cstringIKcE10trim_rightES3_
FNDA:1,_ZN5boost9unit_test13basic_cstringIKcE10trim_rightES3_
FN:421,_ZN5boost9unit_test13basic_cstringIKcE4trimES3_
FNDA:1,_ZN5boost9unit_test13basic_cstringIKcE4trimES3_
FN:433,_ZN5boost9unit_test13basic_cstringIKcEaSERKS3_
FNDA:0,_ZN5boost9unit_test13basic_cstringIKcEaSERKS3_
FN:507,_ZN5boost9unit_test13basic_cstringIKcE5beginEv
FNDA:4,_ZN5boost9unit_test13basic_cstringIKcE5beginEv
FN:516,_ZNK5boost9unit_test13basic_cstringIKcE5beginEv
FNDA:11,_ZNK5boost9unit_test13basic_cstringIKcE5beginEv
FN:525,_ZN5boost9unit_test13basic_cstringIKcE3endEv
FNDA:2,_ZN5boost9unit_test13basic_cstringIKcE3endEv
FN:534,_ZNK5boost9unit_test13basic_cstringIKcE3endEv
FNDA:11,_ZNK5boost9unit_test13basic_cstringIKcE3endEv
FN:600,_ZN5boost9unit_test13basic_cstringIKcE15default_trim_exEv
FNDA:0,_ZN5boost9unit_test13basic_cstringIKcE15default_trim_exEv
DA:83,0
DA:83,1381
DA:206,536
DA:208,536
DA:215,536
DA:216,536
DA:217,536
DA:219,536
DA:225,23
DA:226,23
DA:227,23
DA:229,23
DA:235,60
DA:236,60
DA:237,60
DA:239,60
DA:245,23
DA:246,23
DA:247,23
DA:249,23
DA:286,2
DA:288,2
DA:295,2
DA:297,2
DA:313,0
DA:315,0
DA:316,0
DA:345,1
DA:347,1
DA:348,1
DA:349,0
DA:351,1
DA:358,1
DA:360,1
DA:361,0
DA:364,1
DA:365,1
DA:366,1
DA:369,1
DA:389,1
DA:391,1
DA:392,1
DA:393,0
DA:395,1
DA:402,1
DA:404,1
DA:405,0
DA:409,1
DA:410,1
DA:411,1
DA:414,1
DA:421,1
DA:423,1
DA:424,1
DA:426,1
DA:433,0
DA:435,0
DA:436,0
DA:438,0
DA:507,4
DA:509,4
DA:516,11
DA:518,11
DA:525,2
DA:527,2
DA:534,11
DA:536,11
DA:600,0
DA:604,0
end_of_record
SF:/usr/include/c++/11/ext/type_traits.h
FN:152,_ZN9__gnu_cxx17__is_null_pointerIKcEEbPT_
FNDA:223,_ZN9__gnu_cxx17__is_null_pointerIKcEEbPT_
DA:152,223
DA:153,223
end_of_record
SF:/usr/include/c++/11/bits/move.h
FN:77,_ZSt7forwardIRKiEOT_RNSt16remove_referenceIS2_E4typeE
FNDA:105,_ZSt7forwardIRKiEOT_RNSt16remove_referenceIS2_E4typeE
FN:77,_ZSt7forwardIiEOT_RNSt16remove_referenceIS0_E4typeE
FNDA:1005,_ZSt7forwardIiEOT_RNSt16remove_referenceIS0_E4typeE
FN:104,_ZSt4moveIRN9__gnu_cxx5__ops15_Iter_less_iterEEONSt16remove_referenceIT_E4typeEOS5_
FNDA:0,_ZSt4moveIRN9__gnu_cxx5__ops15_Iter_less_iterEEONSt16remove_referenceIT_E4typeEOS5_
FN:104,_ZSt4moveIRiEONSt16remove_referenceIT_E4typeEOS2_
FNDA:1116,_ZSt4moveIRiEONSt16remove_referenceIT_E4typeEOS2_
FN:104,_ZSt4moveIRSaIcEEONSt16remove_referenceIT_E4typeEOS3_
FNDA:0,_ZSt4moveIRSaIcEEONSt16remove_referenceIT_E4typeEOS3_
FN:196,_ZSt4swapIiENSt9enable_ifIXsrSt6__and_IJSt6__not_ISt15__is_tuple_likeIT_EESt21is_move_constructibleIS4_ESt18is_move_assignableIS4_EEE5valueEvE4typeERS4_SE_
FNDA:84,_ZSt4swapIiENSt9enable_ifIXsrSt6__and_IJSt6__not_ISt15__is_tuple_likeIT_EESt21is_move_constructibleIS4_ESt18is_move_assignableIS4_EEE5valueEvE4typeERS4_SE_
DA:77,105
DA:78,105
DA:77,1005
DA:78,1005
DA:104,0
DA:105,0
DA:104,1116
DA:105,1116
DA:104,0
DA:105,0
DA:196,84
DA:204,84
DA:205,84
DA:206,84
DA:207,84
end_of_record
SF:/usr/include/boost/type_index.hpp
FN:211,_ZN5boost9typeindex7type_idIPFvvEEENS0_14stl_type_indexEv
FNDA:0,_ZN5boost9typeindex7type_idIPFvvEEENS0_14stl_type_indexEv
DA:211,0
DA:212,0
end_of_record
SF:/usr/include/boost/smart_ptr/detail/sp_counted_base_gcc_atomic.hpp
FN:38,_ZN5boost6detail16atomic_decrementEPj
FNDA:0,_ZN5boost6detail16atomic_decrementEPj
FN:116,_ZN5boost6detail15sp_counted_base7releaseEv
FNDA:0,_ZN5boost6detail15sp_counted_base7releaseEv
FN:130,_ZN5boost6detail15sp_counted_base12weak_releaseEv
FNDA:0,_ZN5boost6detail15sp_counted_base12weak_releaseEv
DA:38,0
DA:40,0
DA:116,0
DA:118,0
DA:120,0
DA:121,0
DA:123,0
DA:130,0
DA:132,0
DA:134,0
DA:136,0
end_of_record
SF:/usr/include/boost/core/ignore_unused.hpp
DA:18,3
end_of_record
SF:/usr/include/boost/test/tree/test_unit.hpp
FN:263,_ZN5boost9unit_test14make_test_caseERKNS_8functionIFvvEEENS0_13basic_cstringIKcEES8_m
FNDA:10,_ZN5boost9unit_test14make_test_caseERKNS_8functionIFvvEEENS0_13basic_cstringIKcEES8_m
DA:263,10
DA:265,10
end_of_record
SF:/usr/include/c++/11/bits/stl_vector.h
FN:97,_ZNSt12_Vector_baseIiSaIiEE17_Vector_impl_dataC2Ev
FNDA:8,_ZNSt12_Vector_baseIiSaIiEE17_Vector_impl_dataC2Ev
FN:131,_ZNSt12_Vector_baseIiSaIiEE12_Vector_implC2Ev
FNDA:8,_ZNSt12_Vector_baseIiSaIiEE12_Vector_implC2Ev
FN:276,_ZNSt12_Vector_baseIiSaIiEE19_M_get_Tp_allocatorEv
FNDA:101,_ZNSt12_Vector_baseIiSaIiEE19_M_get_Tp_allocatorEv
FN:280,_ZNKSt12_Vector_baseIiSaIiEE19_M_get_Tp_allocatorEv
FNDA:92,_ZNKSt12_Vector_baseIiSaIiEE19_M_get_Tp_allocatorEv
FN:288,_ZNSt12_Vector_baseIiSaIiEEC2Ev
FNDA:8,_ZNSt12_Vector_baseIiSaIiEEC2Ev
FN:333,_ZNSt12_Vector_baseIiSaIiEED2Ev
FNDA:8,_ZNSt12_Vector_baseIiSaIiEED2Ev
FN:343,_ZNSt12_Vector_baseIiSaIiEE11_M_allocateEm
FNDA:46,_ZNSt12_Vector_baseIiSaIiEE11_M_allocateEm
FN:350,_ZNSt12_Vector_baseIiSaIiEE13_M_deallocateEPim
FNDA:54,_ZNSt12_Vector_baseIiSaIiEE13_M_deallocateEPim
FN:453,_ZNSt6vectorIiSaIiEE14_S_do_relocateEPiS2_S2_RS0_St17integral_constantIbLb1EE
FNDA:92,_ZNSt6vectorIiSaIiEE14_S_do_relocateEPiS2_S2_RS0_St17integral_constantIbLb1EE
FN:465,_ZNSt6vectorIiSaIiEE11_S_relocateEPiS2_S2_RS0_
FNDA:92,_ZNSt6vectorIiSaIiEE11_S_relocateEPiS2_S2_RS0_
FN:487,_ZNSt6vectorIiSaIiEEC2Ev
FNDA:8,_ZNSt6vectorIiSaIiEEC2Ev
FN:678,_ZNSt6vectorIiSaIiEED2Ev
FNDA:8,_ZNSt6vectorIiSaIiEED2Ev
FN:811,_ZNSt6vectorIiSaIiEE5beginEv
FNDA:60,_ZNSt6vectorIiSaIiEE5beginEv
FN:829,_ZNSt6vectorIiSaIiEE3endEv
FNDA:384,_ZNSt6vectorIiSaIiEE3endEv
FN:884,_ZNKSt6vectorIiSaIiEE6cbeginEv
FNDA:1,_ZNKSt6vectorIiSaIiEE6cbeginEv
FN:918,_ZNKSt6vectorIiSaIiEE4sizeEv
FNDA:283,_ZNKSt6vectorIiSaIiEE4sizeEv
FN:923,_ZNKSt6vectorIiSaIiEE8max_sizeEv
FNDA:92,_ZNKSt6vectorIiSaIiEE8max_sizeEv
FN:1043,_ZNSt6vectorIiSaIiEEixEm
FNDA:106,_ZNSt6vectorIiSaIiEEixEm
FN:1143,_ZNSt6vectorIiSaIiEE4backEv
FNDA:322,_ZNSt6vectorIiSaIiEE4backEv
FN:1187,_ZNSt6vectorIiSaIiEE9push_backERKi
FNDA:49,_ZNSt6vectorIiSaIiEE9push_backERKi
FN:1203,_ZNSt6vectorIiSaIiEE9push_backEOi
FNDA:322,_ZNSt6vectorIiSaIiEE9push_backEOi
FN:1457,_ZNSt6vectorIiSaIiEE5eraseEN9__gnu_cxx17__normal_iteratorIPKiS1_EES6_
FNDA:1,_ZNSt6vectorIiSaIiEE5eraseEN9__gnu_cxx17__normal_iteratorIPKiS1_EES6_
FN:1756,_ZNKSt6vectorIiSaIiEE12_M_check_lenEmPKc
FNDA:46,_ZNKSt6vectorIiSaIiEE12_M_check_lenEmPKc
FN:1776,_ZNSt6vectorIiSaIiEE11_S_max_sizeERKS0_
FNDA:92,_ZNSt6vectorIiSaIiEE11_S_max_sizeERKS0_
FN:1792,_ZNSt6vectorIiSaIiEE15_M_erase_at_endEPi
FNDA:1,_ZNSt6vectorIiSaIiEE15_M_erase_at_endEPi
DA:97,8
DA:98,8
DA:99,8
DA:131,8
DA:133,8
DA:134,8
DA:276,101
DA:277,101
DA:280,92
DA:281,92
DA:288,8
DA:333,8
DA:335,8
DA:336,8
DA:337,8
DA:343,46
DA:346,46
DA:350,54
DA:353,54
DA:354,46
DA:355,54
DA:453,92
DA:456,92
DA:465,92
DA:469,92
DA:487,8
DA:678,8
DA:680,8
DA:681,8
DA:683,8
DA:811,60
DA:812,60
DA:829,384
DA:830,384
DA:884,1
DA:885,1
DA:918,283
DA:919,283
DA:923,92
DA:924,92
DA:1043,106
DA:1046,106
DA:1143,322
DA:1146,322
DA:1187,49
DA:1189,49
DA:1192,42
DA:1194,42
DA:1198,7
DA:1199,49
DA:1203,322
DA:1204,322
DA:1457,1
DA:1459,1
DA:1460,1
DA:1461,2
DA:1756,46
DA:1758,46
DA:1759,0
DA:1761,46
DA:1762,46
DA:1776,92
DA:1781,92
DA:1783,92
DA:1784,92
DA:1792,1
DA:1794,1
DA:1796,1
DA:1797,1
DA:1798,1
DA:1801,1
end_of_record
SF:/usr/include/c++/11/bits/vector.tcc
FN:109,_ZNSt6vectorIiSaIiEE12emplace_backIJiEEERiDpOT_
FNDA:322,_ZNSt6vectorIiSaIiEE12emplace_backIJiEEERiDpOT_
FN:184,_ZNSt6vectorIiSaIiEE8_M_eraseEN9__gnu_cxx17__normal_iteratorIPiS1_EES5_
FNDA:1,_ZNSt6vectorIiSaIiEE8_M_eraseEN9__gnu_cxx17__normal_iteratorIPiS1_EES5_
FN:426,_ZNSt6vectorIiSaIiEE17_M_realloc_insertIJiEEEvN9__gnu_cxx17__normal_iteratorIPiS1_EEDpOT_
FNDA:39,_ZNSt6vectorIiSaIiEE17_M_realloc_insertIJiEEEvN9__gnu_cxx17__normal_iteratorIPiS1_EEDpOT_
FN:426,_ZNSt6vectorIiSaIiEE17_M_realloc_insertIJRKiEEEvN9__gnu_cxx17__normal_iteratorIPiS1_EEDpOT_
FNDA:7,_ZNSt6vectorIiSaIiEE17_M_realloc_insertIJRKiEEEvN9__gnu_cxx17__normal_iteratorIPiS1_EEDpOT_
DA:109,322
DA:112,322
DA:115,283
DA:117,283
DA:121,39
DA:123,322
DA:184,1
DA:187,1
DA:189,1
DA:190,0
DA:191,1
DA:193,1
DA:426,39
DA:436,39
DA:437,39
DA:438,39
DA:439,39
DA:440,39
DA:441,39
DA:449,39
DA:450,39
DA:456,39
DA:461,39
DA:462,39
DA:464,39
DA:466,39
DA:467,39
DA:500,39
DA:501,39
DA:502,39
DA:503,39
DA:504,39
DA:505,39
DA:426,7
DA:436,7
DA:437,7
DA:438,7
DA:439,7
DA:440,7
DA:441,7
DA:449,7
DA:450,7
DA:456,7
DA:461,7
DA:462,7
DA:464,7
DA:466,7
DA:467,7
DA:500,7
DA:501,7
DA:502,7
DA:503,7
DA:504,7
DA:505,7
end_of_record
SF:/usr/include/c++/11/new
FN:174,_ZnwmPv
FNDA:371,_ZnwmPv
DA:174,371
DA:175,371
end_of_record
SF:/usr/include/c++/11/bits/random.tcc
FN:323,_ZNSt23mersenne_twister_engineImLm32ELm624ELm397ELm31ELm2567483615ELm11ELm4294967295ELm7ELm2636928640ELm15ELm4022730752ELm18ELm1812433253EE4seedEm
FNDA:1,_ZNSt23mersenne_twister_engineImLm32ELm624ELm397ELm31ELm2567483615ELm11ELm4294967295ELm7ELm2636928640ELm15ELm4022730752ELm18ELm1812433253EE4seedEm
FN:394,_ZNSt23mersenne_twister_engineImLm32ELm624ELm397ELm31ELm2567483615ELm11ELm4294967295ELm7ELm2636928640ELm15ELm4022730752ELm18ELm1812433253EE11_M_gen_randEv
FNDA:1,_ZNSt23mersenne_twister_engineImLm32ELm624ELm397ELm31ELm2567483615ELm11ELm4294967295ELm7ELm2636928640ELm15ELm4022730752ELm18ELm1812433253EE11_M_gen_randEv
FN:450,_ZNSt23mersenne_twister_engineImLm32ELm624ELm397ELm31ELm2567483615ELm11ELm4294967295ELm7ELm2636928640ELm15ELm4022730752ELm18ELm1812433253EEclEv
FNDA:327,_ZNSt23mersenne_twister_engineImLm32ELm624ELm397ELm31ELm2567483615ELm11ELm4294967295ELm7ELm2636928640ELm15ELm4022730752ELm18ELm1812433253EEclEv
DA:323,1
DA:327,1
DA:328,1
DA:330,624
DA:332,623
DA:333,623
DA:334,623
DA:335,623
DA:336,623
DA:337,623
DA:339,1
DA:340,1
DA:394,1
DA:398,1
DA:399,1
DA:401,228
DA:403,227
DA:404,227
DA:405,454
DA:406,227
DA:409,397
DA:411,396
DA:412,396
DA:413,792
DA:414,396
DA:417,1
DA:418,1
DA:419,2
DA:420,1
DA:421,1
DA:422,1
DA:450,327
DA:455,327
DA:456,1
DA:459,327
DA:460,327
DA:461,327
DA:462,327
DA:463,327
DA:465,327
end_of_record
SF:/usr/include/c++/11/bits/uniform_int_dist.h
FN:93,_ZNSt24uniform_int_distributionIiE10param_typeC2Eii
FNDA:327,_ZNSt24uniform_int_distributionIiE10param_typeC2Eii
FN:101,_ZNKSt24uniform_int_distributionIiE10param_type1aEv
FNDA:654,_ZNKSt24uniform_int_distributionIiE10param_type1aEv
FN:105,_ZNKSt24uniform_int_distributionIiE10param_type1bEv
FNDA:327,_ZNKSt24uniform_int_distributionIiE10param_type1bEv
FN:131,_ZNSt24uniform_int_distributionIiEC2Eii
FNDA:327,_ZNSt24uniform_int_distributionIiEC2Eii
FN:192,_ZNSt24uniform_int_distributionIiEclISt23mersenne_twister_engineImLm32ELm624ELm397ELm31ELm2567483615ELm11ELm4294967295ELm7ELm2636928640ELm15ELm4022730752ELm18ELm1812433253EEEEiRT_
FNDA:327,_ZNSt24uniform_int_distributionIiEclISt23mersenne_twister_engineImLm32ELm624ELm397ELm31ELm2567483615ELm11ELm4294967295ELm7ELm2636928640ELm15ELm4022730752ELm18ELm1812433253EEEEiRT_
FN:246,_ZNSt24uniform_int_distributionIiE5_S_ndImSt23mersenne_twister_engineImLm32ELm624ELm397ELm31ELm2567483615ELm11ELm4294967295ELm7ELm2636928640ELm15ELm4022730752ELm18ELm1812433253EEjEET1_RT0_S4_
FNDA:327,_ZNSt24uniform_int_distributionIiE5_S_ndImSt23mersenne_twister_engineImLm32ELm624ELm397ELm31ELm2567483615ELm11ELm4294967295ELm7ELm2636928640ELm15ELm4022730752ELm18ELm1812433253EEjEET1_RT0_S4_
FN:276,_ZNSt24uniform_int_distributionIiEclISt23mersenne_twister_engineImLm32ELm624ELm397ELm31ELm2567483615ELm11ELm4294967295ELm7ELm2636928640ELm15ELm4022730752ELm18ELm1812433253EEEEiRT_RKNS0_10param_typeE
FNDA:327,_ZNSt24uniform_int_distributionIiEclISt23mersenne_twister_engineImLm32ELm624ELm397ELm31ELm2567483615ELm11ELm4294967295ELm7ELm2636928640ELm15ELm4022730752ELm18ELm1812433253EEEEiRT_RKNS0_10param_typeE
DA:93,327
DA:95,327
DA:98,327
DA:101,654
DA:102,654
DA:105,327
DA:106,327
DA:131,327
DA:134,327
DA:135,327
DA:192,327
DA:193,327
DA:246,327
DA:258,327
DA:259,327
DA:260,327
DA:262,0
DA:263,0
DA:265,0
DA:266,0
DA:269,327
DA:276,327
DA:284,327
DA:285,327
DA:288,327
DA:290,327
DA:291,327
DA:294,327
DA:298,327
DA:315,327
DA:316,327
DA:330,0
DA:350,0
DA:351,0
DA:352,0
DA:353,0
DA:355,0
DA:358,0
DA:360,327
end_of_record
SF:/usr/include/c++/11/bits/cpp_type_traits.h
FN:560,_ZSt12__miter_baseIN9__gnu_cxx17__normal_iteratorIPiSt6vectorIiSaIiEEEEET_S7_
FNDA:6,_ZSt12__miter_baseIN9__gnu_cxx17__normal_iteratorIPiSt6vectorIiSaIiEEEEET_S7_
DA:560,6
DA:561,6
end_of_record
SF:/usr/include/boost/type_index/type_index_facade.hpp
FN:154,_ZN5boost9typeindexeqINS0_14stl_type_indexESt9type_infoEEbRKNS0_17type_index_facadeIT_T0_EES9_
FNDA:0,_ZN5boost9typeindexeqINS0_14stl_type_indexESt9type_infoEEbRKNS0_17type_index_facadeIT_T0_EES9_
FN:187,_ZN5boost9typeindexeqINS0_14stl_type_indexESt9type_infoEEbRKT0_RKNS0_17type_index_facadeIT_S4_EE
FNDA:0,_ZN5boost9typeindexeqINS0_14stl_type_indexESt9type_infoEEbRKT0_RKNS0_17type_index_facadeIT_S4_EE
DA:154,0
DA:155,0
DA:187,0
DA:188,0
end_of_record
SF:/usr/include/boost/test/utils/basic_cstring/io.hpp
FN:51,_ZN5boost9unit_testlsIcSt11char_traitsIcEKcEERSt13basic_ostreamIT_T0_ES9_RKNS0_13basic_cstringIT1_EE
FNDA:11,_ZN5boost9unit_testlsIcSt11char_traitsIcEKcEERSt13basic_ostreamIT_T0_ES9_RKNS0_13basic_cstringIT1_EE
DA:51,11
DA:53,11
DA:54,11
DA:55,11
DA:57,11
end_of_record
SF:/usr/include/c++/11/bits/stl_algo.h
FN:79,_ZSt22__move_median_to_firstIN9__gnu_cxx17__normal_iteratorIPiSt6vectorIiSaIiEEEENS0_5__ops15_Iter_less_iterEEvT_S9_S9_S9_T0_
FNDA:9,_ZSt22__move_median_to_firstIN9__gnu_cxx17__normal_iteratorIPiSt6vectorIiSaIiEEEENS0_5__ops15_Iter_less_iterEEvT_S9_S9_S9_T0_
FN:901,_ZSt15__adjacent_findIN9__gnu_cxx17__normal_iteratorIPiSt6vectorIiSaIiEEEENS0_5__ops19_Iter_equal_to_iterEET_S9_S9_T0_
FNDA:1,_ZSt15__adjacent_findIN9__gnu_cxx17__normal_iteratorIPiSt6vectorIiSaIiEEEENS0_5__ops19_Iter_equal_to_iterEET_S9_S9_T0_
FN:919,_ZSt8__uniqueIN9__gnu_cxx17__normal_iteratorIPiSt6vectorIiSaIiEEEENS0_5__ops19_Iter_equal_to_iterEET_S9_S9_T0_
FNDA:1,_ZSt8__uniqueIN9__gnu_cxx17__normal_iteratorIPiSt6vectorIiSaIiEEEENS0_5__ops19_Iter_equal_to_iterEET_S9_S9_T0_
FN:953,_ZSt6uniqueIN9__gnu_cxx17__normal_iteratorIPiSt6vectorIiSaIiEEEEET_S7_S7_
FNDA:1,_ZSt6uniqueIN9__gnu_cxx17__normal_iteratorIPiSt6vectorIiSaIiEEEEET_S7_S7_
FN:1642,_ZSt13__heap_selectIN9__gnu_cxx17__normal_iteratorIPiSt6vectorIiSaIiEEEENS0_5__ops15_Iter_less_iterEEvT_S9_S9_T0_
FNDA:0,_ZSt13__heap_selectIN9__gnu_cxx17__normal_iteratorIPiSt6vectorIiSaIiEEEENS0_5__ops15_Iter_less_iterEEvT_S9_S9_T0_
FN:1799,_ZSt25__unguarded_linear_insertIN9__gnu_cxx17__normal_iteratorIPiSt6vectorIiSaIiEEEENS0_5__ops14_Val_less_iterEEvT_T0_
FNDA:96,_ZSt25__unguarded_linear_insertIN9__gnu_cxx17__normal_iteratorIPiSt6vectorIiSaIiEEEENS0_5__ops14_Val_less_iterEEvT_T0_
FN:1819,_ZSt16__insertion_sortIN9__gnu_cxx17__normal_iteratorIPiSt6vectorIiSaIiEEEENS0_5__ops15_Iter_less_iterEEvT_S9_T0_
FNDA:1,_ZSt16__insertion_sortIN9__gnu_cxx17__normal_iteratorIPiSt6vectorIiSaIiEEEENS0_5__ops15_Iter_less_iterEEvT_S9_T0_
FN:1843,_ZSt26__unguarded_insertion_sortIN9__gnu_cxx17__normal_iteratorIPiSt6vectorIiSaIiEEEENS0_5__ops15_Iter_less_iterEEvT_S9_T0_
FNDA:1,_ZSt26__unguarded_insertion_sortIN9__gnu_cxx17__normal_iteratorIPiSt6vectorIiSaIiEEEENS0_5__ops15_Iter_less_iterEEvT_S9_T0_
FN:1861,_ZSt22__final_insertion_sortIN9__gnu_cxx17__normal_iteratorIPiSt6vectorIiSaIiEEEENS0_5__ops15_Iter_less_iterEEvT_S9_T0_
FNDA:1,_ZSt22__final_insertion_sortIN9__gnu_cxx17__normal_iteratorIPiSt6vectorIiSaIiEEEENS0_5__ops15_Iter_less_iterEEvT_S9_T0_
FN:1878,_ZSt21__unguarded_partitionIN9__gnu_cxx17__normal_iteratorIPiSt6vectorIiSaIiEEEENS0_5__ops15_Iter_less_iterEET_S9_S9_S9_T0_
FNDA:9,_ZSt21__unguarded_partitionIN9__gnu_cxx17__normal_iteratorIPiSt6vectorIiSaIiEEEENS0_5__ops15_Iter_less_iterEET_S9_S9_S9_T0_
FN:1900,_ZSt27__unguarded_partition_pivotIN9__gnu_cxx17__normal_iteratorIPiSt6vectorIiSaIiEEEENS0_5__ops15_Iter_less_iterEET_S9_S9_T0_
FNDA:9,_ZSt27__unguarded_partition_pivotIN9__gnu_cxx17__normal_iteratorIPiSt6vectorIiSaIiEEEENS0_5__ops15_Iter_less_iterEET_S9_S9_T0_
FN:1912,_ZSt14__partial_sortIN9__gnu_cxx17__normal_iteratorIPiSt6vectorIiSaIiEEEENS0_5__ops15_Iter_less_iterEEvT_S9_S9_T0_
FNDA:0,_ZSt14__partial_sortIN9__gnu_cxx17__normal_iteratorIPiSt6vectorIiSaIiEEEENS0_5__ops15_Iter_less_iterEEvT_S9_S9_T0_
FN:1925,_ZSt16__introsort_loopIN9__gnu_cxx17__normal_iteratorIPiSt6vectorIiSaIiEEEElNS0_5__ops15_Iter_less_iterEEvT_S9_T0_T1_
FNDA:10,_ZSt16__introsort_loopIN9__gnu_cxx17__normal_iteratorIPiSt6vectorIiSaIiEEEElNS0_5__ops15_Iter_less_iterEEvT_S9_T0_T1_
FN:1949,_ZSt6__sortIN9__gnu_cxx17__normal_iteratorIPiSt6vectorIiSaIiEEEENS0_5__ops15_Iter_less_iterEEvT_S9_T0_
FNDA:1,_ZSt6__sortIN9__gnu_cxx17__normal_iteratorIPiSt6vectorIiSaIiEEEENS0_5__ops15_Iter_less_iterEEvT_S9_T0_
FN:4832,_ZSt4sortIN9__gnu_cxx17__normal_iteratorIPiSt6vectorIiSaIiEEEEEvT_S7_
FNDA:1,_ZSt4sortIN9__gnu_cxx17__normal_iteratorIPiSt6vectorIiSaIiEEEEEvT_S7_
DA:79,9
DA:82,9
DA:84,5
DA:85,1
DA:86,4
DA:87,2
DA:89,2
DA:91,4
DA:92,1
DA:93,3
DA:94,2
DA:96,1
DA:97,9
DA:901,1
DA:904,1
DA:905,0
DA:906,1
DA:907,4
DA:909,4
DA:910,1
DA:911,3
DA:913,0
DA:919,1
DA:923,1
DA:924,1
DA:925,0
DA:928,1
DA:929,1
DA:930,96
DA:931,95
DA:932,93
DA:933,1
DA:953,1
DA:962,1
DA:963,2
DA:1642,0
DA:1646,0
DA:1647,0
DA:1648,0
DA:1649,0
DA:1650,0
DA:1799,96
DA:1803,96
DA:1804,96
DA:1805,96
DA:1806,347
DA:1808,251
DA:1809,251
DA:1810,251
DA:1812,96
DA:1813,96
DA:1819,1
DA:1822,1
DA:1824,16
DA:1826,15
DA:1829,3
DA:1830,3
DA:1831,3
DA:1834,12
DA:1835,12
DA:1843,1
DA:1846,85
DA:1847,84
DA:1848,84
DA:1849,1
DA:1861,1
DA:1864,1
DA:1866,1
DA:1867,1
DA:1871,0
DA:1872,1
DA:1878,84
DA:1884,186
DA:1885,102
DA:1886,84
DA:1887,169
DA:1888,85
DA:1889,84
DA:1890,9
DA:1891,75
DA:1892,75
DA:1900,9
DA:1903,9
DA:1904,9
DA:1906,18
DA:1912,0
DA:1917,0
DA:1918,0
DA:1919,0
DA:1925,10
DA:1929,19
DA:1931,9
DA:1933,0
DA:1934,0
DA:1936,9
DA:1938,9
DA:1939,9
DA:1940,9
DA:1949,1
DA:1952,1
DA:1954,1
DA:1955,1
DA:1957,1
DA:1959,1
DA:4832,1
DA:4842,1
DA:4843,1
end_of_record
SF:/usr/include/c++/11/bits/stl_algobase.h
FN:152,_ZSt9iter_swapIN9__gnu_cxx17__normal_iteratorIPiSt6vectorIiSaIiEEEES6_EvT_T0_
FNDA:84,_ZSt9iter_swapIN9__gnu_cxx17__normal_iteratorIPiSt6vectorIiSaIiEEEES6_EvT_T0_
FN:230,_ZSt3minImERKT_S2_S2_
FNDA:92,_ZSt3minImERKT_S2_S2_
FN:254,_ZSt3maxImERKT_S2_S2_
FNDA:46,_ZSt3maxImERKT_S2_S2_
FN:313,_ZSt12__niter_baseIPiET_S1_
FNDA:276,_ZSt12__niter_baseIPiET_S1_
FN:328,_ZSt12__niter_wrapIN9__gnu_cxx17__normal_iteratorIPiSt6vectorIiSaIiEEEES2_ET_S7_T0_
FNDA:3,_ZSt12__niter_wrapIN9__gnu_cxx17__normal_iteratorIPiSt6vectorIiSaIiEEEES2_ET_S7_T0_
FN:420,_ZNSt11__copy_moveILb1ELb1ESt26random_access_iterator_tagE8__copy_mIiEEPT_PKS3_S6_S4_
FNDA:0,_ZNSt11__copy_moveILb1ELb1ESt26random_access_iterator_tagE8__copy_mIiEEPT_PKS3_S6_S4_
FN:486,_ZSt14__copy_move_a2ILb1EPiS0_ET1_T0_S2_S1_
FNDA:0,_ZSt14__copy_move_a2ILb1EPiS0_ET1_T0_S2_S1_
FN:521,_ZSt14__copy_move_a1ILb1EPiS0_ET1_T0_S2_S1_
FNDA:0,_ZSt14__copy_move_a1ILb1EPiS0_ET1_T0_S2_S1_
FN:527,_ZSt13__copy_move_aILb1EN9__gnu_cxx17__normal_iteratorIPiSt6vectorIiSaIiEEEES6_ET1_T0_S8_S7_
FNDA:0,_ZSt13__copy_move_aILb1EN9__gnu_cxx17__normal_iteratorIPiSt6vectorIiSaIiEEEES6_ET1_T0_S8_S7_
FN:644,_ZSt4moveIN9__gnu_cxx17__normal_iteratorIPiSt6vectorIiSaIiEEEES6_ET0_T_S8_S7_
FNDA:0,_ZSt4moveIN9__gnu_cxx17__normal_iteratorIPiSt6vectorIiSaIiEEEES6_ET0_T_S8_S7_
FN:731,_ZNSt20__copy_move_backwardILb1ELb1ESt26random_access_iterator_tagE13__copy_move_bIiEEPT_PKS3_S6_S4_
FNDA:3,_ZNSt20__copy_move_backwardILb1ELb1ESt26random_access_iterator_tagE13__copy_move_bIiEEPT_PKS3_S6_S4_
FN:750,_ZSt23__copy_move_backward_a2ILb1EPiS0_ET1_T0_S2_S1_
FNDA:3,_ZSt23__copy_move_backward_a2ILb1EPiS0_ET1_T0_S2_S1_
FN:768,_ZSt23__copy_move_backward_a1ILb1EPiS0_ET1_T0_S2_S1_
FNDA:3,_ZSt23__copy_move_backward_a1ILb1EPiS0_ET1_T0_S2_S1_
FN:796,_ZSt22__copy_move_backward_aILb1EN9__gnu_cxx17__normal_iteratorIPiSt6vectorIiSaIiEEEES6_ET1_T0_S8_S7_
FNDA:3,_ZSt22__copy_move_backward_aILb1EN9__gnu_cxx17__normal_iteratorIPiSt6vectorIiSaIiEEEES6_ET1_T0_S8_S7_
FN:884,_ZSt13move_backwardIN9__gnu_cxx17__normal_iteratorIPiSt6vectorIiSaIiEEEES6_ET0_T_S8_S7_
FNDA:3,_ZSt13move_backwardIN9__gnu_cxx17__normal_iteratorIPiSt6vectorIiSaIiEEEES6_ET0_T_S8_S7_
FN:1514,_ZSt4__lgl
FNDA:1,_ZSt4__lgl
DA:152,84
DA:182,84
DA:184,84
DA:230,92
DA:235,92
DA:236,0
DA:237,92
DA:254,46
DA:259,46
DA:260,8
DA:261,38
DA:313,276
DA:315,276
DA:328,3
DA:329,3
DA:420,0
DA:429,0
DA:430,0
DA:431,0
DA:432,0
DA:486,0
DA:495,0
DA:521,0
DA:522,0
DA:527,0
DA:529,0
DA:532,0
DA:644,0
DA:652,0
DA:653,0
DA:731,3
DA:740,3
DA:741,3
DA:742,3
DA:743,3
DA:750,3
DA:760,3
DA:762,3
DA:768,3
DA:769,3
DA:796,3
DA:798,3
DA:801,3
DA:884,3
DA:894,3
DA:896,3
DA:1514,1
DA:1515,1
end_of_record
SF:/home/danilglock-18/laba3/zad2/cpp/rbtree/rbtreetest.cpp
FN:11,_Z20generateRandomNumberii
FNDA:327,_Z20generateRandomNumberii
FN:17,_Z21generateRandomNumbersiii
FNDA:7,_Z21generateRandomNumbersiii
FN:27,_ZN11RBTreeTestsL33TestConstructorDestructor_invokerEv
FNDA:1,_ZN11RBTreeTestsL33TestConstructorDestructor_invokerEv
FN:27,_ZN11RBTreeTests25TestConstructorDestructor11test_methodEv
FNDA:1,_ZN11RBTreeTests25TestConstructorDestructor11test_methodEv
FN:36,_ZN11RBTreeTestsL18TestInsert_invokerEv
FNDA:1,_ZN11RBTreeTestsL18TestInsert_invokerEv
FN:36,_ZN11RBTreeTests10TestInsert11test_methodEv
FNDA:1,_ZN11RBTreeTests10TestInsert11test_methodEv
FN:47,_ZN11RBTreeTestsL27TestInsertDuplicate_invokerEv
FNDA:1,_ZN11RBTreeTestsL27TestInsertDuplicate_invokerEv
FN:47,_ZN11RBTreeTests19TestInsertDuplicate11test_methodEv
FNDA:1,_ZN11RBTreeTests19TestInsertDuplicate11test_methodEv
FN:58,_ZN11RBTreeTestsL16TestFind_invokerEv
FNDA:1,_ZN11RBTreeTestsL16TestFind_invokerEv
FN:58,_ZN11RBTreeTests8TestFind11test_methodEv
FNDA:1,_ZN11RBTreeTests8TestFind11test_methodEv
FN:76,_ZN11RBTreeTestsL18TestRemove_invokerEv
FNDA:1,_ZN11RBTreeTestsL18TestRemove_invokerEv
FN:76,_ZN11RBTreeTests10TestRemove11test_methodEv
FNDA:1,_ZN11RBTreeTests10TestRemove11test_methodEv
FN:100,_ZN11RBTreeTestsL22TestRemoveRoot_invokerEv
FNDA:1,_ZN11RBTreeTestsL22TestRemoveRoot_invokerEv
FN:100,_ZN11RBTreeTests14TestRemoveRoot11test_methodEv
FNDA:1,_ZN11RBTreeTests14TestRemoveRoot11test_methodEv
FN:110,_ZN11RBTreeTestsL29TestRemoveAllElements_invokerEv
FNDA:1,_ZN11RBTreeTestsL29TestRemoveAllElements_invokerEv
FN:110,_ZN11RBTreeTests21TestRemoveAllElements11test_methodEv
FNDA:1,_ZN11RBTreeTests21TestRemoveAllElements11test_methodEv
FN:127,_ZN11RBTreeTestsL26TestFileOperations_invokerEv
FNDA:1,_ZN11RBTreeTestsL26TestFileOperations_invokerEv
FN:127,_ZN11RBTreeTests18TestFileOperations11test_methodEv
FNDA:1,_ZN11RBTreeTests18TestFileOperations11test_methodEv
FN:152,_ZN11RBTreeTestsL32TestBinaryFileOperations_invokerEv
FNDA:1,_ZN11RBTreeTestsL32TestBinaryFileOperations_invokerEv
FN:152,_ZN11RBTreeTests24TestBinaryFileOperations11test_methodEv
FNDA:1,_ZN11RBTreeTests24TestBinaryFileOperations11test_methodEv
FN:176,_ZN11RBTreeTests13TestLargeTree11test_methodEv
FNDA:1,_ZN11RBTreeTests13TestLargeTree11test_methodEv
FN:176,_ZN11RBTreeTestsL21TestLargeTree_invokerEv
FNDA:1,_ZN11RBTreeTestsL21TestLargeTree_invokerEv
DA:11,327
DA:12,327
DA:13,327
DA:14,654
DA:17,7
DA:18,7
DA:19,329
DA:20,322
DA:22,7
DA:23,0
DA:27,1
DA:28,1
DA:29,1
DA:31,1
DA:32,1
DA:33,2
DA:34,1
DA:27,1
DA:36,1
DA:37,1
DA:38,1
DA:40,51
DA:41,50
DA:44,1
DA:45,1
DA:36,1
DA:47,1
DA:48,1
DA:49,1
DA:51,1
DA:52,1
DA:53,1
DA:55,1
DA:56,1
DA:47,1
DA:58,1
DA:59,1
DA:60,1
DA:62,1
DA:64,4
DA:65,3
DA:68,4
DA:69,3
DA:72,1
DA:73,1
DA:74,1
DA:58,1
DA:76,1
DA:77,1
DA:78,1
DA:80,2
DA:82,6
DA:83,5
DA:86,1
DA:87,1
DA:89,1
DA:90,1
DA:92,1
DA:93,1
DA:95,1
DA:97,2
DA:98,1
DA:76,1
DA:100,1
DA:101,1
DA:102,1
DA:104,1
DA:105,1
DA:106,1
DA:107,1
DA:108,1
DA:100,1
DA:110,1
DA:111,1
DA:112,1
DA:114,151
DA:115,150
DA:118,151
DA:119,150
DA:120,150
DA:123,1
DA:124,2
DA:125,1
DA:110,1
DA:127,1
DA:128,1
DA:129,1
DA:130,1
DA:132,8
DA:133,7
DA:136,1
DA:137,1
DA:138,1
DA:139,1
DA:141,1
DA:142,1
DA:143,1
DA:144,1
DA:146,1
DA:147,1
DA:149,1
DA:150,1
DA:127,1
DA:152,1
DA:153,1
DA:154,1
DA:155,1
DA:157,8
DA:158,7
DA:161,1
DA:162,1
DA:163,1
DA:164,1
DA:166,1
DA:167,1
DA:168,1
DA:169,1
DA:171,1
DA:172,1
DA:173,1
DA:174,1
DA:152,1
DA:176,1
DA:177,1
DA:178,1
DA:180,1
DA:181,1
DA:183,98
DA:184,97
DA:187,1
DA:189,1
DA:190,50
DA:191,49
DA:194,50
DA:195,49
DA:198,50
DA:199,49
DA:202,49
DA:203,48
DA:205,1
DA:176,1
end_of_record
SF:/usr/include/boost/test/utils/class_properties.hpp
FN:54,_ZN5boost9unit_test14class_propertyIbEC2Eb
FNDA:533,_ZN5boost9unit_test14class_propertyIbEC2Eb
FN:131,_ZN5boost9unit_test17readonly_propertyIbEC2Eb
FNDA:533,_ZN5boost9unit_test17readonly_propertyIbEC2Eb
DA:54,533
DA:55,533
DA:131,533
end_of_record
SF:/usr/include/c++/11/bits/stl_iterator_base_funcs.h
FN:98,_ZSt10__distanceIPKcENSt15iterator_traitsIT_E15difference_typeES3_S3_St26random_access_iterator_tag
FNDA:223,_ZSt10__distanceIPKcENSt15iterator_traitsIT_E15difference_typeES3_S3_St26random_access_iterator_tag
FN:138,_ZSt8distanceIPKcENSt15iterator_traitsIT_E15difference_typeES3_S3_
FNDA:223,_ZSt8distanceIPKcENSt15iterator_traitsIT_E15difference_typeES3_S3_
DA:98,223
DA:104,223
DA:138,223
DA:141,223
DA:142,446
end_of_record
SF:/usr/include/c++/11/bits/stl_iterator.h
FN:1027,_ZN9__gnu_cxx17__normal_iteratorIPKiSt6vectorIiSaIiEEEC2ERKS2_
FNDA:1,_ZN9__gnu_cxx17__normal_iteratorIPKiSt6vectorIiSaIiEEEC2ERKS2_
FN:1027,_ZN9__gnu_cxx17__normal_iteratorIPiSt6vectorIiSaIiEEEC2ERKS1_
FNDA:813,_ZN9__gnu_cxx17__normal_iteratorIPiSt6vectorIiSaIiEEEC2ERKS1_
FN:1033,_ZN9__gnu_cxx17__normal_iteratorIPKiSt6vectorIiSaIiEEEC2IPiEERKNS0_IT_NS_11__enable_ifIXsrSt10__are_sameIS9_S8_E7__valueES5_E6__typeEEE
FNDA:2,_ZN9__gnu_cxx17__normal_iteratorIPKiSt6vectorIiSaIiEEEC2IPiEERKNS0_IT_NS_11__enable_ifIXsrSt10__are_sameIS9_S8_E7__valueES5_E6__typeEEE
FN:1042,_ZNK9__gnu_cxx17__normal_iteratorIPiSt6vectorIiSaIiEEEdeEv
FNDA:3281,_ZNK9__gnu_cxx17__normal_iteratorIPiSt6vectorIiSaIiEEEdeEv
FN:1052,_ZN9__gnu_cxx17__normal_iteratorIPiSt6vectorIiSaIiEEEppEv
FNDA:1041,_ZN9__gnu_cxx17__normal_iteratorIPiSt6vectorIiSaIiEEEppEv
FN:1066,_ZN9__gnu_cxx17__normal_iteratorIPiSt6vectorIiSaIiEEEmmEv
FNDA:516,_ZN9__gnu_cxx17__normal_iteratorIPiSt6vectorIiSaIiEEEmmEv
FN:1090,_ZNK9__gnu_cxx17__normal_iteratorIPiSt6vectorIiSaIiEEEplEl
FNDA:38,_ZNK9__gnu_cxx17__normal_iteratorIPiSt6vectorIiSaIiEEEplEl
FN:1100,_ZNK9__gnu_cxx17__normal_iteratorIPiSt6vectorIiSaIiEEEmiEl
FNDA:331,_ZNK9__gnu_cxx17__normal_iteratorIPiSt6vectorIiSaIiEEEmiEl
FN:1105,_ZNK9__gnu_cxx17__normal_iteratorIPKiSt6vectorIiSaIiEEE4baseEv
FNDA:4,_ZNK9__gnu_cxx17__normal_iteratorIPKiSt6vectorIiSaIiEEE4baseEv
FN:1105,_ZNK9__gnu_cxx17__normal_iteratorIPiSt6vectorIiSaIiEEE4baseEv
FNDA:2005,_ZNK9__gnu_cxx17__normal_iteratorIPiSt6vectorIiSaIiEEE4baseEv
FN:1163,_ZN9__gnu_cxxeqIPiSt6vectorIiSaIiEEEEbRKNS_17__normal_iteratorIT_T0_EESA_
FNDA:3,_ZN9__gnu_cxxeqIPiSt6vectorIiSaIiEEEEbRKNS_17__normal_iteratorIT_T0_EESA_
FN:1179,_ZN9__gnu_cxxneIPiSt6vectorIiSaIiEEEEbRKNS_17__normal_iteratorIT_T0_EESA_
FNDA:785,_ZN9__gnu_cxxneIPiSt6vectorIiSaIiEEEEbRKNS_17__normal_iteratorIT_T0_EESA_
FN:1195,_ZN9__gnu_cxxltIPiSt6vectorIiSaIiEEEEbRKNS_17__normal_iteratorIT_T0_EESA_
FNDA:84,_ZN9__gnu_cxxltIPiSt6vectorIiSaIiEEEEbRKNS_17__normal_iteratorIT_T0_EESA_
FN:1268,_ZN9__gnu_cxxmiIPiSt6vectorIiSaIiEEEENS_17__normal_iteratorIT_T0_E15difference_typeERKS8_SB_
FNDA:77,_ZN9__gnu_cxxmiIPiSt6vectorIiSaIiEEEENS_17__normal_iteratorIT_T0_E15difference_typeERKS8_SB_
FN:1268,_ZN9__gnu_cxxmiIPKiSt6vectorIiSaIiEEEENS_17__normal_iteratorIT_T0_E15difference_typeERKS9_SC_
FNDA:2,_ZN9__gnu_cxxmiIPKiSt6vectorIiSaIiEEEENS_17__normal_iteratorIT_T0_E15difference_typeERKS9_SC_
FN:1291,_ZSt12__niter_baseIPiSt6vectorIiSaIiEEET_N9__gnu_cxx17__normal_iteratorIS4_T0_EE
FNDA:12,_ZSt12__niter_baseIPiSt6vectorIiSaIiEEET_N9__gnu_cxx17__normal_iteratorIS4_T0_EE
DA:1027,1
DA:1028,1
DA:1027,813
DA:1028,813
DA:1033,2
DA:1037,2
DA:1042,3281
DA:1043,3281
DA:1052,1041
DA:1054,1041
DA:1055,1041
DA:1066,516
DA:1068,516
DA:1069,516
DA:1090,38
DA:1091,38
DA:1100,331
DA:1101,331
DA:1105,4
DA:1106,4
DA:1105,2005
DA:1106,2005
DA:1163,3
DA:1166,3
DA:1179,785
DA:1182,785
DA:1195,84
DA:1198,84
DA:1268,77
DA:1271,77
DA:1268,2
DA:1271,2
DA:1291,12
DA:1293,12
end_of_record
SF:/usr/include/boost/smart_ptr/shared_ptr.hpp
FN:346,_ZN5boost10shared_ptrINS_23basic_wrap_stringstreamIcEEEC2Ev
FNDA:533,_ZN5boost10shared_ptrINS_23basic_wrap_stringstreamIcEEEC2Ev
DA:346,533
DA:348,533
end_of_record
SF:/usr/include/boost/test/unit_test.hpp
FN:62,main
FNDA:1,main
DA:62,1
DA:64,1
end_of_record
SF:/usr/include/c++/11/ext/new_allocator.h
FN:79,_ZN9__gnu_cxx13new_allocatorIiEC2Ev
FNDA:8,_ZN9__gnu_cxx13new_allocatorIiEC2Ev
FN:79,_ZN9__gnu_cxx13new_allocatorIcEC2Ev
FNDA:0,_ZN9__gnu_cxx13new_allocatorIcEC2Ev
FN:89,_ZN9__gnu_cxx13new_allocatorIiED2Ev
FNDA:8,_ZN9__gnu_cxx13new_allocatorIiED2Ev
FN:89,_ZN9__gnu_cxx13new_allocatorIcED2Ev
FNDA:0,_ZN9__gnu_cxx13new_allocatorIcED2Ev
FN:103,_ZN9__gnu_cxx13new_allocatorIiE8allocateEmPKv
FNDA:46,_ZN9__gnu_cxx13new_allocatorIiE8allocateEmPKv
FN:132,_ZN9__gnu_cxx13new_allocatorIiE10deallocateEPim
FNDA:46,_ZN9__gnu_cxx13new_allocatorIiE10deallocateEPim
FN:154,_ZNK9__gnu_cxx13new_allocatorIiE8max_sizeEv
FNDA:92,_ZNK9__gnu_cxx13new_allocatorIiE8max_sizeEv
FN:160,_ZN9__gnu_cxx13new_allocatorIiE9constructIiJiEEEvPT_DpOT0_
FNDA:322,_ZN9__gnu_cxx13new_allocatorIiE9constructIiJiEEEvPT_DpOT0_
FN:160,_ZN9__gnu_cxx13new_allocatorIiE9constructIiJRKiEEEvPT_DpOT0_
FNDA:49,_ZN9__gnu_cxx13new_allocatorIiE9constructIiJRKiEEEvPT_DpOT0_
FN:197,_ZNK9__gnu_cxx13new_allocatorIiE11_M_max_sizeEv
FNDA:138,_ZNK9__gnu_cxx13new_allocatorIiE11_M_max_sizeEv
DA:79,8
DA:79,0
DA:89,8
DA:89,0
DA:103,46
DA:111,46
DA:115,0
DA:116,0
DA:117,0
DA:127,46
DA:132,46
DA:145,46
DA:154,92
DA:155,92
DA:160,322
DA:162,322
DA:160,49
DA:162,49
DA:197,138
DA:200,138
end_of_record
SF:/usr/include/boost/test/utils/basic_cstring/bcs_char_traits.hpp
FN:60,_ZN5boost9unit_test9ut_detail20bcs_char_traits_implIKcE2eqEcc
FNDA:353,_ZN5boost9unit_test9ut_detail20bcs_char_traits_implIKcE2eqEcc
FN:82,_ZN5boost9unit_test9ut_detail20bcs_char_traits_implIKcE6lengthEPS3_
FNDA:23,_ZN5boost9unit_test9ut_detail20bcs_char_traits_implIKcE6lengthEPS3_
FN:93,_ZN5boost9unit_test9ut_detail20bcs_char_traits_implIKcE4findEPS3_mc
FNDA:2,_ZN5boost9unit_test9ut_detail20bcs_char_traits_implIKcE4findEPS3_mc
DA:60,353
DA:62,353
DA:82,23
DA:84,23
DA:86,23
DA:87,351
DA:88,328
DA:90,23
DA:93,2
DA:95,4
DA:96,2
DA:97,0
DA:99,2
DA:100,2
DA:102,2
end_of_record
SF:/usr/include/c++/11/bits/char_traits.h
FN:106,_ZN9__gnu_cxx11char_traitsIcE2eqERKcS3_
FNDA:0,_ZN9__gnu_cxx11char_traitsIcE2eqERKcS3_
FN:167,_ZN9__gnu_cxx11char_traitsIcE6lengthEPKc
FNDA:0,_ZN9__gnu_cxx11char_traitsIcE6lengthEPKc
FN:393,_ZNSt11char_traitsIcE6lengthEPKc
FNDA:198,_ZNSt11char_traitsIcE6lengthEPKc
DA:106,0
DA:107,0
DA:167,0
DA:170,0
DA:171,0
DA:172,0
DA:173,0
DA:290,198
DA:393,198
DA:396,198
DA:397,0
DA:399,198
end_of_record
SF:/usr/include/boost/smart_ptr/detail/shared_count.hpp
FN:127,_ZN5boost6detail12shared_countC2Ev
FNDA:533,_ZN5boost6detail12shared_countC2Ev
FN:430,_ZN5boost6detail12shared_countD2Ev
FNDA:533,_ZN5boost6detail12shared_countD2Ev
DA:127,533
DA:132,533
DA:430,533
DA:432,533
DA:436,533
end_of_record
TN:
SF:/usr/include/c++/11/iostream
end_of_record
SF:/usr/include/c++/11/ext/string_conversions.h
FN:54,_ZN9__gnu_cxx6__stoaIlicJiEEET0_PFT_PKT1_PPS3_DpT2_EPKcS5_PmS9_
FNDA:7,_ZN9__gnu_cxx6__stoaIlicJiEEET0_PFT_PKT1_PPS3_DpT2_EPKcS5_PmS9_
FN:63,_ZZN9__gnu_cxx6__stoaIlicJiEEET0_PFT_PKT1_PPS3_DpT2_EPKcS5_PmS9_EN11_Save_errnoC2Ev
FNDA:7,_ZZN9__gnu_cxx6__stoaIlicJiEEET0_PFT_PKT1_PPS3_DpT2_EPKcS5_PmS9_EN11_Save_errnoC2Ev
FN:64,_ZZN9__gnu_cxx6__stoaIlicJiEEET0_PFT_PKT1_PPS3_DpT2_EPKcS5_PmS9_EN11_Save_errnoD2Ev
FNDA:7,_ZZN9__gnu_cxx6__stoaIlicJiEEET0_PFT_PKT1_PPS3_DpT2_EPKcS5_PmS9_EN11_Save_errnoD2Ev
FN:73,_ZZN9__gnu_cxx6__stoaIlicJiEEET0_PFT_PKT1_PPS3_DpT2_EPKcS5_PmS9_EN10_Range_chk6_S_chkElSt17integral_constantIbLb1EE
FNDA:7,_ZZN9__gnu_cxx6__stoaIlicJiEEET0_PFT_PKT1_PPS3_DpT2_EPKcS5_PmS9_EN10_Range_chk6_S_chkElSt17integral_constantIbLb1EE
DA:54,7
DA:63,7
DA:64,7
DA:66,7
DA:73,7
DA:76,7
DA:80,7
DA:82,7
DA:83,0
DA:84,14
DA:85,7
DA:86,0
DA:88,7
DA:90,7
DA:91,0
DA:93,7
DA:94,7
end_of_record
SF:/usr/include/c++/11/bits/basic_string.h
FN:251,_ZNSt7__cxx1112basic_stringIcSt11char_traitsIcESaIcEE16_M_construct_auxIPcEEvT_S7_St12__false_type
FNDA:0,_ZNSt7__cxx1112basic_stringIcSt11char_traitsIcESaIcEE16_M_construct_auxIPcEEvT_S7_St12__false_type
FN:271,_ZNSt7__cxx1112basic_stringIcSt11char_traitsIcESaIcEE12_M_constructIPcEEvT_S7_
FNDA:0,_ZNSt7__cxx1112basic_stringIcSt11char_traitsIcESaIcEE12_M_constructIPcEEvT_S7_
FN:533,_ZNSt7__cxx1112basic_stringIcSt11char_traitsIcESaIcEEC2IS3_EEPKcRKS3_
FNDA:0,_ZNSt7__cxx1112basic_stringIcSt11char_traitsIcESaIcEEC2IS3_EEPKcRKS3_
FN:6132,_ZStplIcSt11char_traitsIcESaIcEENSt7__cxx1112basic_stringIT_T0_T1_EERKS8_PKS5_
FNDA:180,_ZStplIcSt11char_traitsIcESaIcEENSt7__cxx1112basic_stringIT_T0_T1_EERKS8_PKS5_
FN:6248,_ZSteqIcSt11char_traitsIcESaIcEEbRKNSt7__cxx1112basic_stringIT_T0_T1_EEPKS5_
FNDA:22,_ZSteqIcSt11char_traitsIcESaIcEEbRKNSt7__cxx1112basic_stringIT_T0_T1_EEPKS5_
FN:6619,_ZNSt7__cxx114stoiERKNS_12basic_stringIcSt11char_traitsIcESaIcEEEPmi
FNDA:7,_ZNSt7__cxx114stoiERKNS_12basic_stringIcSt11char_traitsIcESaIcEEEPmi
DA:251,0
DA:255,0
DA:256,0
DA:271,0
DA:274,0
DA:275,0
DA:533,0
DA:534,0
DA:536,0
DA:539,0
DA:540,0
DA:6132,180
DA:6135,180
DA:6136,180
DA:6137,180
DA:6138,0
DA:6248,22
DA:6250,22
DA:6619,7
DA:6620,7
DA:6621,7
end_of_record
SF:/usr/include/c++/11/bits/alloc_traits.h
FN:562,_ZNSt16allocator_traitsISaIcEE37select_on_container_copy_constructionERKS0_
FNDA:0,_ZNSt16allocator_traitsISaIcEE37select_on_container_copy_constructionERKS0_
DA:562,0
DA:563,0
end_of_record
SF:/usr/include/c++/11/bits/basic_string.tcc
FN:206,_ZNSt7__cxx1112basic_stringIcSt11char_traitsIcESaIcEE12_M_constructIPcEEvT_S7_St20forward_iterator_tag
FNDA:0,_ZNSt7__cxx1112basic_stringIcSt11char_traitsIcESaIcEE12_M_constructIPcEEvT_S7_St20forward_iterator_tag
FN:206,_ZNSt7__cxx1112basic_stringIcSt11char_traitsIcESaIcEE12_M_constructIPKcEEvT_S8_St20forward_iterator_tag
FNDA:0,_ZNSt7__cxx1112basic_stringIcSt11char_traitsIcESaIcEE12_M_constructIPKcEEvT_S8_St20forward_iterator_tag
DA:206,0
DA:211,0
DA:212,0
DA:215,0
DA:217,0
DA:219,0
DA:220,0
DA:225,0
DA:226,0
DA:228,0
DA:229,0
DA:232,0
DA:233,0
DA:206,0
DA:211,0
DA:212,0
DA:215,0
DA:217,0
DA:219,0
DA:220,0
DA:225,0
DA:226,0
DA:228,0
DA:229,0
DA:232,0
DA:233,0
end_of_record
SF:/usr/include/c++/11/bits/stl_iterator_base_types.h
FN:238,_ZSt19__iterator_categoryIPcENSt15iterator_traitsIT_E17iterator_categoryERKS2_
FNDA:0,_ZSt19__iterator_categoryIPcENSt15iterator_traitsIT_E17iterator_categoryERKS2_
FN:238,_ZSt19__iterator_categoryIPKcENSt15iterator_traitsIT_E17iterator_categoryERKS3_
FNDA:0,_ZSt19__iterator_categoryIPKcENSt15iterator_traitsIT_E17iterator_categoryERKS3_
DA:238,0
DA:239,0
DA:238,0
DA:239,0
end_of_record
SF:/usr/include/c++/11/ext/type_traits.h
FN:152,_ZN9__gnu_cxx17__is_null_pointerIcEEbPT_
FNDA:0,_ZN9__gnu_cxx17__is_null_pointerIcEEbPT_
FN:152,_ZN9__gnu_cxx17__is_null_pointerIKcEEbPT_
FNDA:0,_ZN9__gnu_cxx17__is_null_pointerIKcEEbPT_
DA:152,0
DA:153,0
DA:152,0
DA:153,0
end_of_record
SF:/usr/include/c++/11/bits/move.h
FN:104,_ZSt4moveIRSaIcEEONSt16remove_referenceIT_E4typeEOS3_
FNDA:0,_ZSt4moveIRSaIcEEONSt16remove_referenceIT_E4typeEOS3_
DA:104,0
DA:105,0
end_of_record
SF:/home/danilglock-18/laba3/zad1/cpp/rbtree.cpp
FN:8,_ZN6RBTreeC2Ev
FNDA:13,_ZN6RBTreeC2Ev
FN:17,_ZN6RBTreeD2Ev
FNDA:13,_ZN6RBTreeD2Ev
FN:24,_ZN6RBTree13destroyHelperEP10RBTreeNode
FNDA:136,_ZN6RBTree13destroyHelperEP10RBTreeNode
FN:37,_ZN6RBTree10leftRotateEP10RBTreeNode
FNDA:169,_ZN6RBTree10leftRotateEP10RBTreeNode
FN:55,_ZN6RBTree11rightRotateEP10RBTreeNode
FNDA:74,_ZN6RBTree11rightRotateEP10RBTreeNode
FN:73,_ZN6RBTree11insertFixupEP10RBTreeNode
FNDA:323,_ZN6RBTree11insertFixupEP10RBTreeNode
FN:112,_ZN6RBTree6insertEi
FNDA:323,_ZN6RBTree6insertEi
FN:144,_ZN6RBTree20handleRedSiblingCaseEP10RBTreeNodeS1_b
FNDA:6,_ZN6RBTree20handleRedSiblingCaseEP10RBTreeNodeS1_b
FN:155,_ZN6RBTree23handleBlackChildrenCaseERP10RBTreeNodeS1_
FNDA:13,_ZN6RBTree23handleBlackChildrenCaseERP10RBTreeNodeS1_
FN:160,_ZN6RBTree23handleMixedChildrenCaseERP10RBTreeNodeS1_b
FNDA:15,_ZN6RBTree23handleMixedChildrenCaseERP10RBTreeNodeS1_b
FN:172,_ZN6RBTree25handleBlackInnerChildCaseEP10RBTreeNodeS1_b
FNDA:2,_ZN6RBTree25handleBlackInnerChildCaseEP10RBTreeNodeS1_b
FN:183,_ZN6RBTree17performFinalFixupERP10RBTreeNodeS1_b
FNDA:15,_ZN6RBTree17performFinalFixupERP10RBTreeNodeS1_b
FN:199,_ZN6RBTree15handleFixupCaseERP10RBTreeNode
FNDA:28,_ZN6RBTree15handleFixupCaseERP10RBTreeNode
FN:218,_ZN6RBTree11deleteFixupEP10RBTreeNode
FNDA:118,_ZN6RBTree11deleteFixupEP10RBTreeNode
FN:228,_ZN6RBTree10transplantEP10RBTreeNodeS1_
FNDA:239,_ZN6RBTree10transplantEP10RBTreeNodeS1_
FN:241,_ZN6RBTree6removeEi
FNDA:206,_ZN6RBTree6removeEi
FN:294,_ZNK6RBTree4findEi
FNDA:463,_ZNK6RBTree4findEi
FN:307,_ZNK6RBTree11printHelperEP10RBTreeNodeRKNSt7__cxx1112basic_stringIcSt11char_traitsIcESaIcEEEb
FNDA:180,_ZNK6RBTree11printHelperEP10RBTreeNodeRKNSt7__cxx1112basic_stringIcSt11char_traitsIcESaIcEEEb
FN:328,_ZNK6RBTree5printEv
FNDA:12,_ZNK6RBTree5printEv
FN:336,_ZNK6RBTree14saveTreeHelperERSt14basic_ofstreamIcSt11char_traitsIcEEP10RBTreeNode
FNDA:15,_ZNK6RBTree14saveTreeHelperERSt14basic_ofstreamIcSt11char_traitsIcEEP10RBTreeNode
FN:347,_ZN6RBTree14loadTreeHelperERSt14basic_ifstreamIcSt11char_traitsIcEEP10RBTreeNode
FNDA:15,_ZN6RBTree14loadTreeHelperERSt14basic_ifstreamIcSt11char_traitsIcEEP10RBTreeNode
FN:384,_ZNK6RBTree10saveToFileERSt14basic_ofstreamIcSt11char_traitsIcEE
FNDA:1,_ZNK6RBTree10saveToFileERSt14basic_ofstreamIcSt11char_traitsIcEE
FN:391,_ZN6RBTree12loadFromFileERSt14basic_ifstreamIcSt11char_traitsIcEE
FNDA:1,_ZN6RBTree12loadFromFileERSt14basic_ifstreamIcSt11char_traitsIcEE
FN:404,_ZNK6RBTree18saveToBinaryHelperERSt14basic_ofstreamIcSt11char_traitsIcEEP10RBTreeNode
FNDA:15,_ZNK6RBTree18saveToBinaryHelperERSt14basic_ofstreamIcSt11char_traitsIcEEP10RBTreeNode
FN:420,_ZN6RBTree20loadFromBinaryHelperERSt14basic_ifstreamIcSt11char_traitsIcEEP10RBTreeNode
FNDA:15,_ZN6RBTree20loadFromBinaryHelperERSt14basic_ifstreamIcSt11char_traitsIcEEP10RBTreeNode
FN:442,_ZNK6RBTree16saveToBinaryFileERSt14basic_ofstreamIcSt11char_traitsIcEE
FNDA:1,_ZNK6RBTree16saveToBinaryFileERSt14basic_ofstreamIcSt11char_traitsIcEE
FN:449,_ZN6RBTree18loadFromBinaryFileERSt14basic_ifstreamIcSt11char_traitsIcEE
FNDA:1,_ZN6RBTree18loadFromBinaryFileERSt14basic_ifstreamIcSt11char_traitsIcEE
DA:8,13
DA:10,13
DA:11,13
DA:12,13
DA:13,13
DA:14,13
DA:15,13
DA:17,13
DA:18,13
DA:19,9
DA:21,13
DA:22,13
DA:24,136
DA:25,136
DA:26,2
DA:28,134
DA:29,60
DA:31,134
DA:32,65
DA:34,134
DA:37,169
DA:38,169
DA:39,169
DA:40,169
DA:41,63
DA:43,169
DA:44,169
DA:45,11
DA:46,158
DA:47,50
DA:49,108
DA:51,169
DA:52,169
DA:53,169
DA:55,74
DA:56,74
DA:57,74
DA:58,74
DA:59,21
DA:61,74
DA:62,74
DA:63,5
DA:64,69
DA:65,24
DA:67,45
DA:69,74
DA:70,74
DA:71,74
DA:73,323
DA:74,683
DA:75,360
DA:76,99
DA:77,99
DA:78,52
DA:79,52
DA:80,52
DA:81,52
DA:83,47
DA:84,29
DA:85,29
DA:87,47
DA:88,47
DA:89,47
DA:92,261
DA:93,261
DA:94,137
DA:95,137
DA:96,137
DA:97,137
DA:99,124
DA:100,20
DA:101,20
DA:103,124
DA:104,124
DA:105,124
DA:109,323
DA:110,323
DA:112,323
DA:113,323
DA:114,323
DA:115,323
DA:116,323
DA:117,323
DA:119,323
DA:120,323
DA:122,2276
DA:123,1953
DA:124,1953
DA:125,579
DA:127,1374
DA:131,323
DA:133,323
DA:134,9
DA:135,314
DA:136,110
DA:138,204
DA:141,323
DA:142,323
DA:144,6
DA:145,6
DA:146,6
DA:148,6
DA:149,6
DA:151,0
DA:153,6
DA:155,13
DA:156,13
DA:157,13
DA:158,13
DA:160,15
DA:161,15
DA:162,15
DA:164,15
DA:165,2
DA:166,2
DA:169,15
DA:170,15
DA:172,2
DA:173,2
DA:174,2
DA:176,2
DA:177,1
DA:179,1
DA:181,2
DA:183,15
DA:184,15
DA:185,15
DA:187,15
DA:188,15
DA:190,15
DA:191,9
DA:193,6
DA:196,15
DA:197,15
DA:199,28
DA:200,28
DA:201,28
DA:203,28
DA:204,6
DA:205,6
DA:208,28
DA:209,28
DA:211,28
DA:212,13
DA:214,15
DA:216,28
DA:218,118
DA:219,146
DA:220,28
DA:223,118
DA:224,47
DA:226,118
DA:228,239
DA:229,239
DA:230,4
DA:231,235
DA:232,102
DA:234,133
DA:236,239
DA:237,115
DA:239,239
DA:241,206
DA:242,206
DA:243,206
DA:244,12
DA:247,194
DA:249,194
DA:251,194
DA:252,102
DA:253,102
DA:254,102
DA:255,87
DA:257,102
DA:258,92
DA:259,23
DA:260,23
DA:261,23
DA:262,19
DA:264,23
DA:266,69
DA:267,157
DA:268,88
DA:270,69
DA:271,69
DA:273,69
DA:274,24
DA:276,45
DA:277,45
DA:278,45
DA:281,69
DA:282,69
DA:283,69
DA:284,69
DA:286,69
DA:288,69
DA:289,12
DA:292,194
DA:294,463
DA:296,463
DA:297,2669
DA:298,2206
DA:299,1072
DA:301,1134
DA:304,463
DA:307,180
DA:308,180
DA:309,180
DA:310,180
DA:312,180
DA:313,180
DA:315,180
DA:317,180
DA:318,94
DA:319,88
DA:321,94
DA:322,84
DA:325,180
DA:326,180
DA:328,12
DA:329,12
DA:330,4
DA:331,4
DA:333,8
DA:336,15
DA:337,15
DA:338,8
DA:339,8
DA:341,7
DA:342,7
DA:343,7
DA:344,7
DA:345,7
DA:347,15
DA:349,15
DA:350,15
DA:351,0
DA:354,15
DA:355,8
DA:358,7
DA:359,28
DA:361,21
DA:364,7
DA:365,0
DA:368,7
DA:369,7
DA:371,7
DA:372,7
DA:373,7
DA:374,7
DA:375,7
DA:376,7
DA:378,7
DA:379,7
DA:381,7
DA:382,15
DA:384,1
DA:385,1
DA:386,0
DA:388,1
DA:391,1
DA:392,1
DA:393,0
DA:395,1
DA:397,1
DA:399,1
DA:400,1
DA:404,15
DA:405,15
DA:406,8
DA:407,8
DA:408,8
DA:411,7
DA:412,7
DA:413,7
DA:414,7
DA:416,7
DA:417,7
DA:420,15
DA:423,15
DA:425,15
DA:426,8
DA:429,7
DA:430,7
DA:431,7
DA:432,7
DA:433,7
DA:434,7
DA:436,7
DA:437,7
DA:439,7
DA:442,1
DA:443,1
DA:444,0
DA:446,1
DA:449,1
DA:450,1
DA:451,0
DA:453,1
DA:455,1
DA:457,1
DA:458,1
end_of_record
SF:/home/danilglock-18/laba3/zad1/cpp/node.h
FN:50,_ZN10RBTreeNodeC2Ei
FNDA:350,_ZN10RBTreeNodeC2Ei
DA:50,350
end_of_record
SF:/usr/include/c++/11/ext/alloc_traits.h
FN:97,_ZN9__gnu_cxx14__alloc_traitsISaIcEcE17_S_select_on_copyERKS1_
FNDA:0,_ZN9__gnu_cxx14__alloc_traitsISaIcEcE17_S_select_on_copyERKS1_
DA:97,0
DA:98,0
end_of_record
SF:/usr/include/c++/11/bits/stl_iterator_base_funcs.h
FN:98,_ZSt10__distanceIPcENSt15iterator_traitsIT_E15difference_typeES2_S2_St26random_access_iterator_tag
FNDA:0,_ZSt10__distanceIPcENSt15iterator_traitsIT_E15difference_typeES2_S2_St26random_access_iterator_tag
FN:98,_ZSt10__distanceIPKcENSt15iterator_traitsIT_E15difference_typeES3_S3_St26random_access_iterator_tag
FNDA:0,_ZSt10__distanceIPKcENSt15iterator_traitsIT_E15difference_typeES3_S3_St26random_access_iterator_tag
FN:138,_ZSt8distanceIPcENSt15iterator_traitsIT_E15difference_typeES2_S2_
FNDA:0,_ZSt8distanceIPcENSt15iterator_traitsIT_E15difference_typeES2_S2_
FN:138,_ZSt8distanceIPKcENSt15iterator_traitsIT_E15difference_typeES3_S3_
FNDA:0,_ZSt8distanceIPKcENSt15iterator_traitsIT_E15difference_typeES3_S3_
DA:98,0
DA:104,0
DA:98,0
DA:104,0
DA:138,0
DA:141,0
DA:142,0
DA:138,0
DA:141,0
DA:142,0
end_of_record
SF:/usr/include/c++/11/ext/new_allocator.h
FN:79,_ZN9__gnu_cxx13new_allocatorIcEC2Ev
FNDA:0,_ZN9__gnu_cxx13new_allocatorIcEC2Ev
FN:82,_ZN9__gnu_cxx13new_allocatorIcEC2ERKS1_
FNDA:0,_ZN9__gnu_cxx13new_allocatorIcEC2ERKS1_
FN:89,_ZN9__gnu_cxx13new_allocatorIcED2Ev
FNDA:0,_ZN9__gnu_cxx13new_allocatorIcED2Ev
DA:79,0
DA:82,0
DA:89,0
end_of_record
SF:/usr/include/c++/11/bits/char_traits.h
FN:106,_ZN9__gnu_cxx11char_traitsIcE2eqERKcS3_
FNDA:0,_ZN9__gnu_cxx11char_traitsIcE2eqERKcS3_
FN:167,_ZN9__gnu_cxx11char_traitsIcE6lengthEPKc
FNDA:0,_ZN9__gnu_cxx11char_traitsIcE6lengthEPKc
FN:393,_ZNSt11char_traitsIcE6lengthEPKc
FNDA:0,_ZNSt11char_traitsIcE6lengthEPKc
DA:106,0
DA:107,0
DA:167,0
DA:170,0
DA:171,0
DA:172,0
DA:173,0
DA:290,0
DA:393,0
DA:396,0
DA:397,0
DA:399,0
end_of_record
