TN:
SF:/home/alex/labs3/arr.cpp
FN:11,13,_ZN5MyArrD2Ev
FN:115,138,_ZN5MyArr5delAtEi
FN:141,146,_ZN5MyArr6repArrEiRKNSt7__cxx1112basic_stringIcSt11char_traitsIcESaIcEEE
FN:149,160,_ZNK5MyArr9readArrayEv
FN:16,35,_ZN5MyArr14ensureCapacityEi
FN:163,168,_ZNK5MyArr5getAtB5cxx11Ei
FN:171,173,_ZNK5MyArr6lenArrEv
FN:176,184,_ZNK5MyArr10saveToFileERKNSt7__cxx1112basic_stringIcSt11char_traitsIcESaIcEEE
FN:186,207,_ZN5MyArr12loadFromFileERKNSt7__cxx1112basic_stringIcSt11char_traitsIcESaIcEEE
FN:209,219,_ZNK5MyArr16saveToBinaryFileERKNSt7__cxx1112basic_stringIcSt11char_traitsIcESaIcEEE
FN:221,248,_ZN5MyArr18loadFromBinaryFileERKNSt7__cxx1112basic_stringIcSt11char_traitsIcESaIcEEE
FN:38,41,_ZN5MyArr6addEndERKNSt7__cxx1112basic_stringIcSt11char_traitsIcESaIcEEE
FN:44,58,_ZN5MyArr5addAtEiRKNSt7__cxx1112basic_stringIcSt11char_traitsIcESaIcEEE
FN:60,67,_ZN5MyArr7addHeadERKNSt7__cxx1112basic_stringIcSt11char_traitsIcESaIcEEE
FN:7,8,_ZN5MyArrC2Ev
FN:70,91,_ZN5MyArr7delHeadEv
FN:94,112,_ZN5MyArr6delEndEv
FNDA:7,_ZN5MyArrD2Ev
FNDA:63,_ZN5MyArr5delAtEi
FNDA:3,_ZN5MyArr6repArrEiRKNSt7__cxx1112basic_stringIcSt11char_traitsIcESaIcEEE
FNDA:1,_ZNK5MyArr9readArrayEv
FNDA:151,_ZN5MyArr14ensureCapacityEi
FNDA:7,_ZNK5MyArr5getAtB5cxx11Ei
FNDA:6,_ZNK5MyArr6lenArrEv
FNDA:1,_ZNK5MyArr10saveToFileERKNSt7__cxx1112basic_stringIcSt11char_traitsIcESaIcEEE
FNDA:3,_ZN5MyArr12loadFromFileERKNSt7__cxx1112basic_stringIcSt11char_traitsIcESaIcEEE
FNDA:0,_ZNK5MyArr16saveToBinaryFileERKNSt7__cxx1112basic_stringIcSt11char_traitsIcESaIcEEE
FNDA:0,_ZN5MyArr18loadFromBinaryFileERKNSt7__cxx1112basic_stringIcSt11char_traitsIcESaIcEEE
FNDA:148,_ZN5MyArr6addEndERKNSt7__cxx1112basic_stringIcSt11char_traitsIcESaIcEEE
FNDA:3,_ZN5MyArr5addAtEiRKNSt7__cxx1112basic_stringIcSt11char_traitsIcESaIcEEE
FNDA:1,_ZN5MyArr7addHeadERKNSt7__cxx1112basic_stringIcSt11char_traitsIcESaIcEEE
FNDA:7,_ZN5MyArrC2Ev
FNDA:21,_ZN5MyArr7delHeadEv
FNDA:66,_ZN5MyArr6delEndEv
FNF:17
FNH:15
DA:7,7
DA:8,7
DA:11,7
DA:12,19
DA:13,7
DA:16,151
DA:17,151
DA:18,122
DA:21,29
DA:22,54
DA:23,25
DA:27,543
DA:28,283
DA:29,254
DA:32,283
DA:33,29
DA:34,29
DA:38,148
DA:39,148
DA:40,148
DA:41,148
DA:44,3
DA:45,3
DA:46,2
DA:49,1
DA:52,2
DA:53,1
DA:56,1
DA:57,1
DA:60,1
DA:61,1
DA:62,2
DA:63,1
DA:65,1
DA:66,1
DA:67,1
DA:70,21
DA:71,21
DA:72,1
DA:74,210
DA:75,190
DA:77,20
DA:80,20
DA:81,4
DA:83,34
DA:84,19
DA:85,15
DA:87,64
DA:88,4
DA:89,4
DA:94,66
DA:95,66
DA:96,1
DA:98,65
DA:101,65
DA:102,6
DA:104,132
DA:105,69
DA:106,63
DA:108,258
DA:109,6
DA:110,6
DA:115,63
DA:116,63
DA:117,3
DA:120,1030
DA:121,970
DA:124,60
DA:127,60
DA:128,9
DA:130,101
DA:131,55
DA:132,46
DA:134,193
DA:135,9
DA:136,9
DA:141,3
DA:142,3
DA:143,3
DA:145,0
DA:149,1
DA:150,1
DA:152,1
DA:153,1
DA:155,0
DA:156,0
DA:157,0
DA:159,0
DA:163,7
DA:164,7
DA:165,5
DA:167,4
DA:171,6
DA:172,6
DA:176,1
DA:177,1
DA:178,1
DA:180,1
DA:181,3
DA:182,2
DA:184,1
DA:186,3
DA:187,3
DA:188,3
DA:190,2
DA:191,2
DA:192,2
DA:193,2
DA:196,2
DA:197,2
DA:199,2
DA:201,1
DA:202,1
DA:204,3
DA:205,2
DA:207,4
DA:209,0
DA:210,0
DA:211,0
DA:212,0
DA:215,0
DA:216,0
DA:217,0
DA:219,0
DA:221,0
DA:222,0
DA:223,0
DA:224,0
DA:227,0
DA:228,0
DA:229,0
DA:230,0
DA:233,0
DA:234,0
DA:235,0
DA:238,0
DA:239,0
DA:241,0
DA:242,0
DA:243,0
DA:244,0
DA:245,0
DA:248,0
LF:143
LH:111
end_of_record
TN:
SF:/home/alex/labs3/arr.h
FN:49,51,_ZNK5MyArr12getData_testB5cxx11Ev
FNDA:1,_ZNK5MyArr12getData_testB5cxx11Ev
FNF:1
FNH:1
DA:49,1
DA:50,1
LF:2
LH:2
end_of_record
TN:
SF:/home/alex/labs3/build/_deps/googlebenchmark-src/include/benchmark/benchmark.h
FN:1117,1122,_ZN9benchmark8internal9Benchmark7ArgPairEll
FN:1144,1149,_ZN9benchmark8internal9Benchmark9RangePairEllll
FN:1355,1356,_ZN9benchmark8internal17FunctionBenchmarkC2ERKNSt7__cxx1112basic_stringIcSt11char_traitsIcESaIcEEEPFvRNS_5StateEE
FN:1368,1368,_ZN9benchmark8internal15LambdaBenchmarkI13CustomFixtureE3RunERNS_5StateE
FN:1368,1368,_ZN9benchmark8internal15LambdaBenchmarkIZ25TestRegistrationAtRuntimevEUlRNS_5StateEE_E3RunES3_
FN:1368,1368,_ZN9benchmark8internal15LambdaBenchmarkIZNS_17RegisterBenchmarkIPFvRNS_5StateEPKcEJRKS6_EEEPNS0_9BenchmarkERKNSt7__cxx1112basic_stringIcSt11char_traitsIcESaIcEEEOT_DpOT0_EUlS4_E_E3RunES4_
FN:1372,1373,_ZN9benchmark8internal15LambdaBenchmarkI13CustomFixtureEC2IRS2_EERKNSt7__cxx1112basic_stringIcSt11char_traitsIcESaIcEEEOT_
FN:1372,1373,_ZN9benchmark8internal15LambdaBenchmarkIZ25TestRegistrationAtRuntimevEUlRNS_5StateEE_EC2IRS4_EERKNSt7__cxx1112basic_stringIcSt11char_traitsIcESaIcEEEOT_
FN:1372,1373,_ZN9benchmark8internal15LambdaBenchmarkIZNS_17RegisterBenchmarkIPFvRNS_5StateEPKcEJRKS6_EEEPNS0_9BenchmarkERKNSt7__cxx1112basic_stringIcSt11char_traitsIcESaIcEEEOT_DpOT0_EUlS4_E_EC2ISQ_EESK_SM_
FN:1385,1391,_ZN9benchmark17RegisterBenchmarkERKNSt7__cxx1112basic_stringIcSt11char_traitsIcESaIcEEEPFvRNS_5StateEE
FN:1395,1402,_ZN9benchmark17RegisterBenchmarkIR13CustomFixtureEEPNS_8internal9BenchmarkERKNSt7__cxx1112basic_stringIcSt11char_traitsIcESaIcEEEOT_
FN:1395,1402,_ZN9benchmark17RegisterBenchmarkIRZ25TestRegistrationAtRuntimevEUlRNS_5StateEE_EEPNS_8internal9BenchmarkERKNSt7__cxx1112basic_stringIcSt11char_traitsIcESaIcEEEOT_
FN:1395,1402,_ZN9benchmark17RegisterBenchmarkIZNS_17RegisterBenchmarkIPFvRNS_5StateEPKcEJRKS5_EEEPNS_8internal9BenchmarkERKNSt7__cxx1112basic_stringIcSt11char_traitsIcESaIcEEEOT_DpOT0_EUlS3_E_EESC_SK_SM_
FN:1408,1412,_ZN9benchmark17RegisterBenchmarkIPFvRNS_5StateEPKcEJRKS4_EEEPNS_8internal9BenchmarkERKNSt7__cxx1112basic_stringIcSt11char_traitsIcESaIcEEEOT_DpOT0_
FN:1411,1411,_ZZN9benchmark17RegisterBenchmarkIPFvRNS_5StateEPKcEJRKS4_EEEPNS_8internal9BenchmarkERKNSt7__cxx1112basic_stringIcSt11char_traitsIcESaIcEEEOT_DpOT0_ENKUlS2_E_clES2_
FN:1420,1420,_ZN9benchmark7FixtureC2Ev
FN:1422,1426,_ZN9benchmark7Fixture3RunERNS_5StateE
FN:1429,1429,_ZN9benchmark7Fixture5SetUpERKNS_5StateE
FN:1430,1430,_ZN9benchmark7Fixture8TearDownERKNS_5StateE
FN:1432,1432,_ZN9benchmark7Fixture5SetUpERNS_5StateE
FN:1433,1433,_ZN9benchmark7Fixture8TearDownERNS_5StateE
FN:1741,1757,_ZN9benchmark17BenchmarkReporter3RunC2Ev
FN:1813,1813,_ZN9benchmark17BenchmarkReporter19PerFamilyRunReportsC2Ev
FN:1839,1841,_ZN9benchmark17BenchmarkReporter16ReportRunsConfigEdbl
FN:1854,1854,_ZN9benchmark17BenchmarkReporter8FinalizeEv
FN:1858,1861,_ZN9benchmark17BenchmarkReporter15SetOutputStreamEPSo
FN:1865,1868,_ZN9benchmark17BenchmarkReporter14SetErrorStreamEPSo
FN:1870,1870,_ZNK9benchmark17BenchmarkReporter15GetOutputStreamEv
FN:1872,1872,_ZNK9benchmark17BenchmarkReporter14GetErrorStreamEv
FN:1897,1898,_ZN9benchmark15ConsoleReporterC2ENS0_13OutputOptionsE
FN:1915,1915,_ZN9benchmark12JSONReporterC2Ev
FN:1930,1930,_ZN9benchmark11CSVReporterC2Ev
FN:1941,1953,_ZN9benchmark17GetTimeUnitStringENS_8TimeUnitE
FN:1955,1967,_ZN9benchmark21GetTimeUnitMultiplierENS_8TimeUnitE
FN:380,384,_ZN9benchmark13MemoryManager6ResultC2Ev
FN:402,402,_ZN9benchmark13MemoryManagerD0Ev
FN:402,402,_ZN9benchmark13MemoryManagerD2Ev
FN:648,652,_ZN9benchmarkorERKNS_7Counter5FlagsES3_
FN:681,683,_ZN9benchmark8internal10StatisticsC2ERKNSt7__cxx1112basic_stringIcSt11char_traitsIcESaIcEEEPFdRKSt6vectorIdSaIdEEENS_13StatisticUnitE
FN:828,828,_ZNK9benchmark5State7skippedEv
FNDA:1,_ZN9benchmark8internal9Benchmark7ArgPairEll
FNDA:1,_ZN9benchmark8internal9Benchmark9RangePairEllll
FNDA:384,_ZN9benchmark8internal17FunctionBenchmarkC2ERKNSt7__cxx1112basic_stringIcSt11char_traitsIcESaIcEEEPFvRNS_5StateEE
FNDA:16,_ZN9benchmark8internal15LambdaBenchmarkI13CustomFixtureE3RunERNS_5StateE
FNDA:16,_ZN9benchmark8internal15LambdaBenchmarkIZ25TestRegistrationAtRuntimevEUlRNS_5StateEE_E3RunES3_
FNDA:24,_ZN9benchmark8internal15LambdaBenchmarkIZNS_17RegisterBenchmarkIPFvRNS_5StateEPKcEJRKS6_EEEPNS0_9BenchmarkERKNSt7__cxx1112basic_stringIcSt11char_traitsIcESaIcEEEOT_DpOT0_EUlS4_E_E3RunES4_
FNDA:2,_ZN9benchmark8internal15LambdaBenchmarkI13CustomFixtureEC2IRS2_EERKNSt7__cxx1112basic_stringIcSt11char_traitsIcESaIcEEEOT_
FNDA:2,_ZN9benchmark8internal15LambdaBenchmarkIZ25TestRegistrationAtRuntimevEUlRNS_5StateEE_EC2IRS4_EERKNSt7__cxx1112basic_stringIcSt11char_traitsIcESaIcEEEOT_
FNDA:3,_ZN9benchmark8internal15LambdaBenchmarkIZNS_17RegisterBenchmarkIPFvRNS_5StateEPKcEJRKS6_EEEPNS0_9BenchmarkERKNSt7__cxx1112basic_stringIcSt11char_traitsIcESaIcEEEOT_DpOT0_EUlS4_E_EC2ISQ_EESK_SM_
FNDA:2,_ZN9benchmark17RegisterBenchmarkERKNSt7__cxx1112basic_stringIcSt11char_traitsIcESaIcEEEPFvRNS_5StateEE
FNDA:2,_ZN9benchmark17RegisterBenchmarkIR13CustomFixtureEEPNS_8internal9BenchmarkERKNSt7__cxx1112basic_stringIcSt11char_traitsIcESaIcEEEOT_
FNDA:2,_ZN9benchmark17RegisterBenchmarkIRZ25TestRegistrationAtRuntimevEUlRNS_5StateEE_EEPNS_8internal9BenchmarkERKNSt7__cxx1112basic_stringIcSt11char_traitsIcESaIcEEEOT_
FNDA:3,_ZN9benchmark17RegisterBenchmarkIZNS_17RegisterBenchmarkIPFvRNS_5StateEPKcEJRKS5_EEEPNS_8internal9BenchmarkERKNSt7__cxx1112basic_stringIcSt11char_traitsIcESaIcEEEOT_DpOT0_EUlS3_E_EESC_SK_SM_
FNDA:3,_ZN9benchmark17RegisterBenchmarkIPFvRNS_5StateEPKcEJRKS4_EEEPNS_8internal9BenchmarkERKNSt7__cxx1112basic_stringIcSt11char_traitsIcESaIcEEEOT_DpOT0_
FNDA:24,_ZZN9benchmark17RegisterBenchmarkIPFvRNS_5StateEPKcEJRKS4_EEEPNS_8internal9BenchmarkERKNSt7__cxx1112basic_stringIcSt11char_traitsIcESaIcEEEOT_DpOT0_ENKUlS2_E_clES2_
FNDA:12,_ZN9benchmark7FixtureC2Ev
FNDA:338,_ZN9benchmark7Fixture3RunERNS_5StateE
FNDA:32,_ZN9benchmark7Fixture5SetUpERKNS_5StateE
FNDA:237,_ZN9benchmark7Fixture8TearDownERKNS_5StateE
FNDA:338,_ZN9benchmark7Fixture5SetUpERNS_5StateE
FNDA:318,_ZN9benchmark7Fixture8TearDownERNS_5StateE
FNDA:921,_ZN9benchmark17BenchmarkReporter3RunC2Ev
FNDA:11,_ZN9benchmark17BenchmarkReporter19PerFamilyRunReportsC2Ev
FNDA:562,_ZN9benchmark17BenchmarkReporter16ReportRunsConfigEdbl
FNDA:55,_ZN9benchmark17BenchmarkReporter8FinalizeEv
FNDA:26,_ZN9benchmark17BenchmarkReporter15SetOutputStreamEPSo
FNDA:26,_ZN9benchmark17BenchmarkReporter14SetErrorStreamEPSo
FNDA:2438,_ZNK9benchmark17BenchmarkReporter15GetOutputStreamEv
FNDA:783,_ZNK9benchmark17BenchmarkReporter14GetErrorStreamEv
FNDA:65,_ZN9benchmark15ConsoleReporterC2ENS0_13OutputOptionsE
FNDA:10,_ZN9benchmark12JSONReporterC2Ev
FNDA:8,_ZN9benchmark11CSVReporterC2Ev
FNDA:1135,_ZN9benchmark17GetTimeUnitStringENS_8TimeUnitE
FNDA:2390,_ZN9benchmark21GetTimeUnitMultiplierENS_8TimeUnitE
FNDA:1,_ZN9benchmark13MemoryManager6ResultC2Ev
FNDA:0,_ZN9benchmark13MemoryManagerD0Ev
FNDA:1,_ZN9benchmark13MemoryManagerD2Ev
FNDA:33,_ZN9benchmarkorERKNS_7Counter5FlagsES3_
FNDA:1626,_ZN9benchmark8internal10StatisticsC2ERKNSt7__cxx1112basic_stringIcSt11char_traitsIcESaIcEEEPFdRKSt6vectorIdSaIdEEENS_13StatisticUnitE
FNDA:638604,_ZNK9benchmark5State7skippedEv
FNF:40
FNH:39
DA:380,1
DA:381,1
DA:382,1
DA:383,1
DA:384,1
DA:402,1
DA:450,0
DA:515,2
DA:516,934401812
DA:517,941733709
DA:523,3
DA:524,5080382
DA:525,5080380
DA:539,1
DA:540,1
DA:640,58906
DA:642,3391
DA:643,2839
DA:648,33
DA:650,33
DA:651,33
DA:681,1626
DA:683,1626
DA:828,638604
DA:849,95
DA:850,95
DA:851,95
DA:866,326
DA:869,5640
DA:879,234
DA:880,234
DA:881,215
DA:907,487453487
DA:908,487449285
DA:919,824
DA:923,503
DA:927,159458690
DA:928,9
DA:930,159458681
DA:934,8
DA:988,58507250
DA:992,1102200
DA:999,59612762
DA:1001,59612762
DA:1002,59612762
DA:1003,59608346
DA:1004,59608346
DA:1006,4416
DA:1007,559
DA:1008,556
DA:1009,550
DA:1010,550
DA:1014,3861
DA:1015,2
DA:1016,2
DA:1017,2
DA:1019,3859
DA:1020,552
DA:1034,5045
DA:1038,4135
DA:1042,4947425362
DA:1046,4947440792
DA:1047,4947440786
DA:1048,4947440786
DA:1053,4947445831
DA:1054,4545
DA:1055,5052
DA:1064,5068
DA:1067,5068
DA:1068,5045
DA:1117,1
DA:1118,1
DA:1119,1
DA:1120,1
DA:1121,2
DA:1122,1
DA:1144,1
DA:1145,1
DA:1146,1
DA:1147,1
DA:1148,2
DA:1149,1
DA:1355,384
DA:1356,384
DA:1368,56
DA:1372,7
DA:1373,7
DA:1385,2
DA:1389,2
DA:1390,4
DA:1395,7
DA:1400,7
DA:1401,14
DA:1408,3
DA:1410,6
DA:1411,27
DA:1420,36
DA:1422,338
DA:1423,338
DA:1424,338
DA:1425,318
DA:1426,318
DA:1429,32
DA:1430,237
DA:1432,338
DA:1433,318
DA:1741,921
DA:1742,1842
DA:1743,921
DA:1744,921
DA:1745,921
DA:1746,921
DA:1747,921
DA:1748,921
DA:1749,921
DA:1750,921
DA:1751,921
DA:1752,921
DA:1753,921
DA:1754,921
DA:1755,921
DA:1756,921
DA:1757,1842
DA:1813,11
DA:1839,562
DA:1841,562
DA:1854,55
DA:1858,26
DA:1859,26
DA:1860,26
DA:1861,26
DA:1865,26
DA:1866,26
DA:1867,26
DA:1868,26
DA:1870,2438
DA:1872,783
DA:1897,65
DA:1898,65
DA:1915,10
DA:1930,8
DA:1941,1135
DA:1942,1135
DA:1943,4
DA:1944,4
DA:1945,4
DA:1946,4
DA:1947,15
DA:1948,15
DA:1949,1112
DA:1950,1112
DA:1952,0
DA:1955,2390
DA:1956,2390
DA:1957,8
DA:1958,8
DA:1959,8
DA:1960,8
DA:1961,30
DA:1962,30
DA:1963,2344
DA:1964,2344
DA:1966,0
LF:163
LH:160
end_of_record
TN:
SF:/home/alex/labs3/build/_deps/googlebenchmark-src/src/benchmark.cc
FN:151,153,_ZN9benchmark8internal16GetGlobalContextB5cxx11Ev
FN:156,156,_ZN9benchmark8internal14UseCharPointerEPVKc
FN:160,229,_ZN9benchmark5StateC2ENSt7__cxx1112basic_stringIcSt11char_traitsIcESaIcEEElRKSt6vectorIlSaIlEEiiPNS_8internal11ThreadTimerEPNSC_13ThreadManagerEPNSC_23PerfCountersMeasurementE
FN:231,248,_ZN9benchmark5State11PauseTimingEv
FN:250,256,_ZN9benchmark5State12ResumeTimingEv
FN:258,269,_ZN9benchmark5State15SkipWithMessageERKNSt7__cxx1112basic_stringIcSt11char_traitsIcESaIcEEE
FN:271,282,_ZN9benchmark5State13SkipWithErrorERKNSt7__cxx1112basic_stringIcSt11char_traitsIcESaIcEEE
FN:284,286,_ZN9benchmark5State16SetIterationTimeEd
FN:288,291,_ZN9benchmark5State8SetLabelERKNSt7__cxx1112basic_stringIcSt11char_traitsIcESaIcEEE
FN:293,299,_ZN9benchmark5State16StartKeepRunningEv
FN:301,310,_ZN9benchmark5State17FinishKeepRunningEv
FN:317,321,_ZN9benchmark8internal12_GLOBAL__N_112FlushStreamsEPNS_17BenchmarkReporterE
FN:324,344,_ZN9benchmark8internal12_GLOBAL__N_16ReportEPNS_17BenchmarkReporterES3_RKNS0_10RunResultsE
FN:326,334,_ZZN9benchmark8internal12_GLOBAL__N_16ReportEPNS_17BenchmarkReporterES3_RKNS0_10RunResultsEENKUlS3_bS6_E_clES3_bS6_
FN:346,470,_ZN9benchmark8internal12_GLOBAL__N_113RunBenchmarksERKSt6vectorINS0_17BenchmarkInstanceESaIS3_EEPNS_17BenchmarkReporterES9_
FN:476,490,_ZN9benchmark8internal12_GLOBAL__N_114CreateReporterERKNSt7__cxx1112basic_stringIcSt11char_traitsIcESaIcEEENS_15ConsoleReporter13OutputOptionsE
FN:496,498,_ZN9benchmark8internal6IsZeroEd
FN:500,522,_ZN9benchmark8internal16GetOutputOptionsEb
FN:502,510,_ZZN9benchmark8internal16GetOutputOptionsEbENKUlvE_clEv
FN:526,532,_ZN9benchmark28CreateDefaultDisplayReporterEv
FN:534,536,_ZN9benchmark22RunSpecifiedBenchmarksEv
FN:538,540,_ZN9benchmark22RunSpecifiedBenchmarksENSt7__cxx1112basic_stringIcSt11char_traitsIcESaIcEEE
FN:542,545,_ZN9benchmark22RunSpecifiedBenchmarksEPNS_17BenchmarkReporterE
FN:547,550,_ZN9benchmark22RunSpecifiedBenchmarksEPNS_17BenchmarkReporterENSt7__cxx1112basic_stringIcSt11char_traitsIcESaIcEEE
FN:552,556,_ZN9benchmark22RunSpecifiedBenchmarksEPNS_17BenchmarkReporterES1_
FN:558,615,_ZN9benchmark22RunSpecifiedBenchmarksEPNS_17BenchmarkReporterES1_NSt7__cxx1112basic_stringIcSt11char_traitsIcESaIcEEE
FN:622,622,_ZN9benchmark18GetDefaultTimeUnitEv
FN:624,624,_ZN9benchmark18SetDefaultTimeUnitENS_8TimeUnitE
FN:626,626,_ZN9benchmark18GetBenchmarkFilterB5cxx11Ev
FN:628,630,_ZN9benchmark18SetBenchmarkFilterENSt7__cxx1112basic_stringIcSt11char_traitsIcESaIcEEE
FN:632,632,_ZN9benchmark21GetBenchmarkVerbosityEv
FN:634,636,_ZN9benchmark21RegisterMemoryManagerEPNS_13MemoryManagerE
FN:638,646,_ZN9benchmark16AddCustomContextERKNSt7__cxx1112basic_stringIcSt11char_traitsIcESaIcEEES7_
FN:652,655,_ZN9benchmark8internal17PrintUsageAndExitEv
FN:657,673,_ZN9benchmark8internal26SetDefaultTimeUnitFromFlagERKNSt7__cxx1112basic_stringIcSt11char_traitsIcESaIcEEE
FN:675,730,_ZN9benchmark8internal21ParseCommandLineFlagsEPiPPc
FN:732,735,_ZN9benchmark8internal17InitializeStreamsEv
FN:739,761,_ZN9benchmark16PrintDefaultHelpEv
FN:763,767,_ZN9benchmark10InitializeEPiPPcPFvvE
FN:769,769,_ZN9benchmark8ShutdownEv
FN:771,777,_ZN9benchmark27ReportUnrecognizedArgumentsEiPPc
FNDA:64,_ZN9benchmark8internal16GetGlobalContextB5cxx11Ev
FNDA:0,_ZN9benchmark8internal14UseCharPointerEPVKc
FNDA:5670,_ZN9benchmark5StateC2ENSt7__cxx1112basic_stringIcSt11char_traitsIcESaIcEEElRKSt6vectorIlSaIlEEiiPNS_8internal11ThreadTimerEPNSC_13ThreadManagerEPNSC_23PerfCountersMeasurementE
FNDA:317147,_ZN9benchmark5State11PauseTimingEv
FNDA:304186,_ZN9benchmark5State12ResumeTimingEv
FNDA:0,_ZN9benchmark5State15SkipWithMessageERKNSt7__cxx1112basic_stringIcSt11char_traitsIcESaIcEEE
FNDA:40,_ZN9benchmark5State13SkipWithErrorERKNSt7__cxx1112basic_stringIcSt11char_traitsIcESaIcEEE
FNDA:1822,_ZN9benchmark5State16SetIterationTimeEd
FNDA:99,_ZN9benchmark5State8SetLabelERKNSt7__cxx1112basic_stringIcSt11char_traitsIcESaIcEEE
FNDA:5625,_ZN9benchmark5State16StartKeepRunningEv
FNDA:5560,_ZN9benchmark5State17FinishKeepRunningEv
FNDA:1312,_ZN9benchmark8internal12_GLOBAL__N_112FlushStreamsEPNS_17BenchmarkReporterE
FNDA:562,_ZN9benchmark8internal12_GLOBAL__N_16ReportEPNS_17BenchmarkReporterES3_RKNS0_10RunResultsE
FNDA:564,_ZZN9benchmark8internal12_GLOBAL__N_16ReportEPNS_17BenchmarkReporterES3_RKNS0_10RunResultsEENKUlS3_bS6_E_clES3_bS6_
FNDA:47,_ZN9benchmark8internal12_GLOBAL__N_113RunBenchmarksERKSt6vectorINS0_17BenchmarkInstanceESaIS3_EEPNS_17BenchmarkReporterES9_
FNDA:16,_ZN9benchmark8internal12_GLOBAL__N_114CreateReporterERKNSt7__cxx1112basic_stringIcSt11char_traitsIcESaIcEEENS_15ConsoleReporter13OutputOptionsE
FNDA:2638,_ZN9benchmark8internal6IsZeroEd
FNDA:22,_ZN9benchmark8internal16GetOutputOptionsEb
FNDA:22,_ZZN9benchmark8internal16GetOutputOptionsEbENKUlvE_clEv
FNDA:14,_ZN9benchmark28CreateDefaultDisplayReporterEv
FNDA:13,_ZN9benchmark22RunSpecifiedBenchmarksEv
FNDA:1,_ZN9benchmark22RunSpecifiedBenchmarksENSt7__cxx1112basic_stringIcSt11char_traitsIcESaIcEEE
FNDA:51,_ZN9benchmark22RunSpecifiedBenchmarksEPNS_17BenchmarkReporterE
FNDA:4,_ZN9benchmark22RunSpecifiedBenchmarksEPNS_17BenchmarkReporterENSt7__cxx1112basic_stringIcSt11char_traitsIcESaIcEEE
FNDA:0,_ZN9benchmark22RunSpecifiedBenchmarksEPNS_17BenchmarkReporterES1_
FNDA:69,_ZN9benchmark22RunSpecifiedBenchmarksEPNS_17BenchmarkReporterES1_NSt7__cxx1112basic_stringIcSt11char_traitsIcESaIcEEE
FNDA:2032,_ZN9benchmark18GetDefaultTimeUnitEv
FNDA:2,_ZN9benchmark18SetDefaultTimeUnitENS_8TimeUnitE
FNDA:2,_ZN9benchmark18GetBenchmarkFilterB5cxx11Ev
FNDA:1,_ZN9benchmark18SetBenchmarkFilterENSt7__cxx1112basic_stringIcSt11char_traitsIcESaIcEEE
FNDA:1,_ZN9benchmark21GetBenchmarkVerbosityEv
FNDA:2,_ZN9benchmark21RegisterMemoryManagerEPNS_13MemoryManagerE
FNDA:4,_ZN9benchmark16AddCustomContextERKNSt7__cxx1112basic_stringIcSt11char_traitsIcESaIcEEES7_
FNDA:0,_ZN9benchmark8internal17PrintUsageAndExitEv
FNDA:65,_ZN9benchmark8internal26SetDefaultTimeUnitFromFlagERKNSt7__cxx1112basic_stringIcSt11char_traitsIcESaIcEEE
FNDA:65,_ZN9benchmark8internal21ParseCommandLineFlagsEPiPPc
FNDA:1361,_ZN9benchmark8internal17InitializeStreamsEv
FNDA:0,_ZN9benchmark16PrintDefaultHelpEv
FNDA:65,_ZN9benchmark10InitializeEPiPPcPFvvE
FNDA:10,_ZN9benchmark8ShutdownEv
FNDA:10,_ZN9benchmark27ReportUnrecognizedArgumentsEiPPc
FNF:41
FNH:36
DA:151,64
DA:152,64
DA:156,0
DA:160,5670
DA:163,5670
DA:164,5670
DA:165,5670
DA:166,5670
DA:167,5670
DA:168,5670
DA:169,5670
DA:170,5670
DA:171,5671
DA:172,5671
DA:173,5671
DA:174,5671
DA:175,5671
DA:176,5671
DA:177,5671
DA:178,5671
DA:179,11341
DA:180,11342
DA:186,5670
DA:187,5632
DA:188,11268
DA:189,0
DA:190,5632
DA:215,5665
DA:229,5665
DA:231,317147
DA:233,317147
DA:234,315229
DA:235,319004
DA:236,319766
DA:237,630949
DA:238,0
DA:240,314745
DA:241,0
DA:242,0
DA:244,0
DA:245,0
DA:247,307206
DA:248,303829
DA:250,304186
DA:251,304186
DA:252,303947
DA:253,321262
DA:254,321022
DA:256,319806
DA:258,0
DA:259,0
DA:261,0
DA:262,0
DA:263,0
DA:264,0
DA:266,0
DA:267,0
DA:268,0
DA:269,0
DA:271,40
DA:272,40
DA:274,40
DA:275,40
DA:276,19
DA:277,19
DA:279,40
DA:280,40
DA:281,40
DA:282,40
DA:284,1822
DA:285,1822
DA:286,1823
DA:288,99
DA:289,99
DA:290,99
DA:291,99
DA:293,5625
DA:294,5625
DA:295,5626
DA:296,5626
DA:297,5626
DA:298,5633
DA:299,5602
DA:301,5560
DA:302,5560
DA:303,5562
DA:304,5538
DA:307,5560
DA:308,5560
DA:309,5560
DA:310,5610
DA:317,1312
DA:318,1312
DA:319,662
DA:320,662
DA:324,562
DA:326,564
DA:328,564
DA:330,564
DA:331,564
DA:332,564
DA:333,37
DA:334,564
DA:336,562
DA:338,562
DA:339,2
DA:342,562
DA:343,562
DA:344,562
DA:346,47
DA:350,47
DA:353,47
DA:354,47
DA:355,47
DA:356,609
DA:357,562
DA:358,562
DA:359,562
DA:361,2812
DA:362,2250
DA:364,47
DA:367,47
DA:368,47
DA:372,47
DA:374,49
DA:375,2
DA:376,47
DA:377,47
DA:379,47
DA:384,47
DA:387,47
DA:388,47
DA:392,47
DA:395,609
DA:396,562
DA:397,562
DA:398,74
DA:399,562
DA:400,562
DA:401,562
DA:402,562
DA:403,562
DA:404,74
DA:406,47
DA:410,47
DA:413,0
DA:416,0
DA:419,47
DA:420,47
DA:421,609
DA:422,609
DA:423,562
DA:424,562
DA:427,47
DA:430,47
DA:431,1
DA:432,1
DA:433,1
DA:434,1
DA:436,848
DA:437,801
DA:438,801
DA:439,801
DA:442,1124
DA:443,562
DA:444,562
DA:445,4
DA:446,2
DA:448,562
DA:451,562
DA:452,74
DA:453,74
DA:454,11
DA:455,11
DA:458,11
DA:459,11
DA:460,11
DA:463,562
DA:464,562
DA:465,47
DA:466,47
DA:467,47
DA:468,47
DA:469,47
DA:470,47
DA:476,16
DA:479,16
DA:480,14
DA:482,2
DA:483,2
DA:485,0
DA:486,0
DA:488,0
DA:489,0
DA:496,2638
DA:497,2638
DA:500,22
DA:501,22
DA:502,22
DA:503,22
DA:504,8
DA:506,14
DA:507,14
DA:509,0
DA:510,22
DA:511,22
DA:512,0
DA:514,22
DA:516,22
DA:517,1
DA:519,21
DA:521,22
DA:526,14
DA:528,28
DA:530,28
DA:531,14
DA:534,13
DA:535,13
DA:538,1
DA:539,1
DA:542,51
DA:543,102
DA:544,102
DA:547,4
DA:549,4
DA:552,0
DA:554,0
DA:555,0
DA:558,69
DA:561,69
DA:562,27
DA:565,69
DA:566,69
DA:567,69
DA:568,69
DA:569,14
DA:570,14
DA:572,69
DA:573,69
DA:575,69
DA:576,69
DA:578,0
DA:579,0
DA:580,0
DA:582,69
DA:583,2
DA:584,2
DA:585,0
DA:586,0
DA:588,2
DA:589,4
DA:592,2
DA:593,2
DA:595,2
DA:596,2
DA:599,69
DA:600,69
DA:602,69
DA:603,7
DA:604,7
DA:607,62
DA:608,60
DA:609,45
DA:611,47
DA:614,62
DA:615,69
DA:622,2032
DA:624,2
DA:626,2
DA:628,1
DA:629,1
DA:630,1
DA:632,1
DA:634,2
DA:635,2
DA:636,2
DA:638,4
DA:639,4
DA:640,2
DA:642,4
DA:644,1
DA:646,4
DA:652,0
DA:653,0
DA:654,0
DA:657,65
DA:658,65
DA:659,0
DA:661,65
DA:662,0
DA:664,65
DA:665,0
DA:667,65
DA:668,0
DA:670,65
DA:671,0
DA:675,65
DA:677,65
DA:678,65
DA:679,204
DA:680,139
DA:681,121
DA:682,121
DA:683,84
DA:684,41
DA:685,41
DA:686,41
DA:687,41
DA:688,40
DA:689,40
DA:690,40
DA:691,40
DA:692,40
DA:693,40
DA:694,40
DA:695,40
DA:696,40
DA:697,38
DA:698,38
DA:699,38
DA:700,38
DA:701,37
DA:702,37
DA:703,37
DA:704,37
DA:705,37
DA:706,37
DA:707,260
DA:708,37
DA:709,215
DA:711,103
DA:712,103
DA:713,36
DA:714,0
DA:717,195
DA:718,260
DA:719,130
DA:720,0
DA:723,65
DA:724,65
DA:725,0
DA:727,65
DA:728,0
DA:730,65
DA:732,1361
DA:733,1361
DA:734,1361
DA:739,0
DA:740,0
DA:761,0
DA:763,65
DA:764,65
DA:765,65
DA:766,65
DA:767,65
DA:769,10
DA:771,10
DA:772,10
DA:773,0
DA:774,0
DA:776,10
LF:361
LH:311
end_of_record
TN:
SF:/home/alex/labs3/build/_deps/googlebenchmark-src/src/benchmark_api_internal.cc
FN:10,90,_ZN9benchmark8internal17BenchmarkInstanceC2EPNS0_9BenchmarkEiiRKSt6vectorIlSaIlEEi
FN:102,108,_ZNK9benchmark8internal17BenchmarkInstance5SetupEv
FN:110,116,_ZNK9benchmark8internal17BenchmarkInstance8TeardownEv
FN:92,100,_ZNK9benchmark8internal17BenchmarkInstance3RunEliPNS0_11ThreadTimerEPNS0_13ThreadManagerEPNS0_23PerfCountersMeasurementE
FNDA:712,_ZN9benchmark8internal17BenchmarkInstanceC2EPNS0_9BenchmarkEiiRKSt6vectorIlSaIlEEi
FNDA:3238,_ZNK9benchmark8internal17BenchmarkInstance5SetupEv
FNDA:3238,_ZNK9benchmark8internal17BenchmarkInstance8TeardownEv
FNDA:5635,_ZNK9benchmark8internal17BenchmarkInstance3RunEliPNS0_11ThreadTimerEPNS0_13ThreadManagerEPNS0_23PerfCountersMeasurementE
FNF:4
FNH:4
DA:10,712
DA:13,712
DA:14,712
DA:15,712
DA:16,712
DA:17,712
DA:18,712
DA:19,712
DA:20,712
DA:21,712
DA:22,712
DA:23,712
DA:24,712
DA:25,712
DA:26,712
DA:27,712
DA:28,712
DA:29,712
DA:30,1424
DA:31,712
DA:33,712
DA:34,1177
DA:35,465
DA:36,116
DA:39,465
DA:40,4
DA:41,4
DA:42,3
DA:46,465
DA:47,465
DA:50,712
DA:51,2
DA:54,712
DA:56,2
DA:59,712
DA:60,80
DA:61,80
DA:64,712
DA:65,25
DA:68,712
DA:69,18
DA:72,712
DA:73,20
DA:74,6
DA:76,20
DA:77,692
DA:78,22
DA:79,6
DA:81,22
DA:84,712
DA:85,138
DA:88,712
DA:89,712
DA:90,712
DA:92,5635
DA:96,5635
DA:97,5635
DA:98,5631
DA:99,5488
DA:100,0
DA:102,3238
DA:103,3238
DA:104,27
DA:105,27
DA:106,27
DA:107,27
DA:108,3238
DA:110,3238
DA:111,3238
DA:112,7
DA:113,7
DA:114,7
DA:115,7
DA:116,3238
LF:74
LH:73
end_of_record
TN:
SF:/home/alex/labs3/build/_deps/googlebenchmark-src/src/benchmark_api_internal.h
FN:24,24,_ZNK9benchmark8internal17BenchmarkInstance4nameEv
FN:25,25,_ZNK9benchmark8internal17BenchmarkInstance12family_indexEv
FN:26,26,_ZNK9benchmark8internal17BenchmarkInstance25per_family_instance_indexEv
FN:27,29,_ZNK9benchmark8internal17BenchmarkInstance23aggregation_report_modeEv
FN:30,30,_ZNK9benchmark8internal17BenchmarkInstance9time_unitEv
FN:31,31,_ZNK9benchmark8internal17BenchmarkInstance24measure_process_cpu_timeEv
FN:32,32,_ZNK9benchmark8internal17BenchmarkInstance13use_real_timeEv
FN:33,33,_ZNK9benchmark8internal17BenchmarkInstance15use_manual_timeEv
FN:34,34,_ZNK9benchmark8internal17BenchmarkInstance10complexityEv
FN:35,35,_ZNK9benchmark8internal17BenchmarkInstance17complexity_lambdaEv
FN:36,36,_ZNK9benchmark8internal17BenchmarkInstance10statisticsEv
FN:37,37,_ZNK9benchmark8internal17BenchmarkInstance11repetitionsEv
FN:38,38,_ZNK9benchmark8internal17BenchmarkInstance8min_timeEv
FN:39,39,_ZNK9benchmark8internal17BenchmarkInstance15min_warmup_timeEv
FN:40,40,_ZNK9benchmark8internal17BenchmarkInstance10iterationsEv
FN:41,41,_ZNK9benchmark8internal17BenchmarkInstance7threadsEv
FNDA:5357,_ZNK9benchmark8internal17BenchmarkInstance4nameEv
FNDA:875,_ZNK9benchmark8internal17BenchmarkInstance12family_indexEv
FNDA:801,_ZNK9benchmark8internal17BenchmarkInstance25per_family_instance_indexEv
FNDA:574,_ZNK9benchmark8internal17BenchmarkInstance23aggregation_report_modeEv
FNDA:801,_ZNK9benchmark8internal17BenchmarkInstance9time_unitEv
FNDA:8871,_ZNK9benchmark8internal17BenchmarkInstance24measure_process_cpu_timeEv
FNDA:3202,_ZNK9benchmark8internal17BenchmarkInstance13use_real_timeEv
FNDA:4023,_ZNK9benchmark8internal17BenchmarkInstance15use_manual_timeEv
FNDA:1344,_ZNK9benchmark8internal17BenchmarkInstance10complexityEv
FNDA:782,_ZNK9benchmark8internal17BenchmarkInstance17complexity_lambdaEv
FNDA:1344,_ZNK9benchmark8internal17BenchmarkInstance10statisticsEv
FNDA:1149,_ZNK9benchmark8internal17BenchmarkInstance11repetitionsEv
FNDA:1126,_ZNK9benchmark8internal17BenchmarkInstance8min_timeEv
FNDA:3,_ZNK9benchmark8internal17BenchmarkInstance15min_warmup_timeEv
FNDA:699,_ZNK9benchmark8internal17BenchmarkInstance10iterationsEv
FNDA:15673,_ZNK9benchmark8internal17BenchmarkInstance7threadsEv
FNF:16
FNH:16
DA:24,5357
DA:25,875
DA:26,801
DA:27,574
DA:28,574
DA:30,801
DA:31,8871
DA:32,3202
DA:33,4023
DA:34,1344
DA:35,782
DA:36,1344
DA:37,1149
DA:38,1126
DA:39,3
DA:40,699
DA:41,15673
LF:17
LH:17
end_of_record
TN:
SF:/home/alex/labs3/build/_deps/googlebenchmark-src/src/benchmark_main.cc
FN:18,18,main
FNDA:1,main
FNF:1
FNH:1
DA:18,1
LF:1
LH:1
end_of_record
TN:
SF:/home/alex/labs3/build/_deps/googlebenchmark-src/src/benchmark_name.cc
FN:22,22,_ZN9benchmark12_GLOBAL__N_19size_implEv
FN:25,27,_ZN9benchmark12_GLOBAL__N_19size_implINSt7__cxx1112basic_stringIcSt11char_traitsIcESaIcEEEJEEEmRKT_DpRKT0_
FN:25,27,_ZN9benchmark12_GLOBAL__N_19size_implINSt7__cxx1112basic_stringIcSt11char_traitsIcESaIcEEEJS7_EEEmRKT_DpRKT0_
FN:25,27,_ZN9benchmark12_GLOBAL__N_19size_implINSt7__cxx1112basic_stringIcSt11char_traitsIcESaIcEEEJS7_S7_EEEmRKT_DpRKT0_
FN:25,27,_ZN9benchmark12_GLOBAL__N_19size_implINSt7__cxx1112basic_stringIcSt11char_traitsIcESaIcEEEJS7_S7_S7_EEEmRKT_DpRKT0_
FN:25,27,_ZN9benchmark12_GLOBAL__N_19size_implINSt7__cxx1112basic_stringIcSt11char_traitsIcESaIcEEEJS7_S7_S7_S7_EEEmRKT_DpRKT0_
FN:25,27,_ZN9benchmark12_GLOBAL__N_19size_implINSt7__cxx1112basic_stringIcSt11char_traitsIcESaIcEEEJS7_S7_S7_S7_S7_EEEmRKT_DpRKT0_
FN:25,27,_ZN9benchmark12_GLOBAL__N_19size_implINSt7__cxx1112basic_stringIcSt11char_traitsIcESaIcEEEJS7_S7_S7_S7_S7_S7_EEEmRKT_DpRKT0_
FN:25,27,_ZN9benchmark12_GLOBAL__N_19size_implINSt7__cxx1112basic_stringIcSt11char_traitsIcESaIcEEEJS7_S7_S7_S7_S7_S7_S7_EEEmRKT_DpRKT0_
FN:31,31,_ZN9benchmark12_GLOBAL__N_19join_implERNSt7__cxx1112basic_stringIcSt11char_traitsIcESaIcEEEc
FN:34,43,_ZN9benchmark12_GLOBAL__N_19join_implINSt7__cxx1112basic_stringIcSt11char_traitsIcESaIcEEEJEEEvRS7_cRKT_DpRKT0_
FN:34,43,_ZN9benchmark12_GLOBAL__N_19join_implINSt7__cxx1112basic_stringIcSt11char_traitsIcESaIcEEEJS7_EEEvRS7_cRKT_DpRKT0_
FN:34,43,_ZN9benchmark12_GLOBAL__N_19join_implINSt7__cxx1112basic_stringIcSt11char_traitsIcESaIcEEEJS7_S7_EEEvRS7_cRKT_DpRKT0_
FN:34,43,_ZN9benchmark12_GLOBAL__N_19join_implINSt7__cxx1112basic_stringIcSt11char_traitsIcESaIcEEEJS7_S7_S7_EEEvRS7_cRKT_DpRKT0_
FN:34,43,_ZN9benchmark12_GLOBAL__N_19join_implINSt7__cxx1112basic_stringIcSt11char_traitsIcESaIcEEEJS7_S7_S7_S7_EEEvRS7_cRKT_DpRKT0_
FN:34,43,_ZN9benchmark12_GLOBAL__N_19join_implINSt7__cxx1112basic_stringIcSt11char_traitsIcESaIcEEEJS7_S7_S7_S7_S7_EEEvRS7_cRKT_DpRKT0_
FN:34,43,_ZN9benchmark12_GLOBAL__N_19join_implINSt7__cxx1112basic_stringIcSt11char_traitsIcESaIcEEEJS7_S7_S7_S7_S7_S7_EEEvRS7_cRKT_DpRKT0_
FN:34,43,_ZN9benchmark12_GLOBAL__N_19join_implINSt7__cxx1112basic_stringIcSt11char_traitsIcESaIcEEEJS7_S7_S7_S7_S7_S7_S7_EEEvRS7_cRKT_DpRKT0_
FN:46,51,_ZN9benchmark12_GLOBAL__N_14joinIJNSt7__cxx1112basic_stringIcSt11char_traitsIcESaIcEEES7_S7_S7_S7_S7_S7_S7_EEES7_cDpRKT_
FN:55,58,_ZNK9benchmark13BenchmarkName3strB5cxx11Ev
FNDA:6676,_ZN9benchmark12_GLOBAL__N_19size_implEv
FNDA:6676,_ZN9benchmark12_GLOBAL__N_19size_implINSt7__cxx1112basic_stringIcSt11char_traitsIcESaIcEEEJEEEmRKT_DpRKT0_
FNDA:6676,_ZN9benchmark12_GLOBAL__N_19size_implINSt7__cxx1112basic_stringIcSt11char_traitsIcESaIcEEEJS7_EEEmRKT_DpRKT0_
FNDA:6676,_ZN9benchmark12_GLOBAL__N_19size_implINSt7__cxx1112basic_stringIcSt11char_traitsIcESaIcEEEJS7_S7_EEEmRKT_DpRKT0_
FNDA:6676,_ZN9benchmark12_GLOBAL__N_19size_implINSt7__cxx1112basic_stringIcSt11char_traitsIcESaIcEEEJS7_S7_S7_EEEmRKT_DpRKT0_
FNDA:6676,_ZN9benchmark12_GLOBAL__N_19size_implINSt7__cxx1112basic_stringIcSt11char_traitsIcESaIcEEEJS7_S7_S7_S7_EEEmRKT_DpRKT0_
FNDA:6676,_ZN9benchmark12_GLOBAL__N_19size_implINSt7__cxx1112basic_stringIcSt11char_traitsIcESaIcEEEJS7_S7_S7_S7_S7_EEEmRKT_DpRKT0_
FNDA:6676,_ZN9benchmark12_GLOBAL__N_19size_implINSt7__cxx1112basic_stringIcSt11char_traitsIcESaIcEEEJS7_S7_S7_S7_S7_S7_EEEmRKT_DpRKT0_
FNDA:6676,_ZN9benchmark12_GLOBAL__N_19size_implINSt7__cxx1112basic_stringIcSt11char_traitsIcESaIcEEEJS7_S7_S7_S7_S7_S7_S7_EEEmRKT_DpRKT0_
FNDA:6676,_ZN9benchmark12_GLOBAL__N_19join_implERNSt7__cxx1112basic_stringIcSt11char_traitsIcESaIcEEEc
FNDA:6676,_ZN9benchmark12_GLOBAL__N_19join_implINSt7__cxx1112basic_stringIcSt11char_traitsIcESaIcEEEJEEEvRS7_cRKT_DpRKT0_
FNDA:6676,_ZN9benchmark12_GLOBAL__N_19join_implINSt7__cxx1112basic_stringIcSt11char_traitsIcESaIcEEEJS7_EEEvRS7_cRKT_DpRKT0_
FNDA:6676,_ZN9benchmark12_GLOBAL__N_19join_implINSt7__cxx1112basic_stringIcSt11char_traitsIcESaIcEEEJS7_S7_EEEvRS7_cRKT_DpRKT0_
FNDA:6676,_ZN9benchmark12_GLOBAL__N_19join_implINSt7__cxx1112basic_stringIcSt11char_traitsIcESaIcEEEJS7_S7_S7_EEEvRS7_cRKT_DpRKT0_
FNDA:6676,_ZN9benchmark12_GLOBAL__N_19join_implINSt7__cxx1112basic_stringIcSt11char_traitsIcESaIcEEEJS7_S7_S7_S7_EEEvRS7_cRKT_DpRKT0_
FNDA:6676,_ZN9benchmark12_GLOBAL__N_19join_implINSt7__cxx1112basic_stringIcSt11char_traitsIcESaIcEEEJS7_S7_S7_S7_S7_EEEvRS7_cRKT_DpRKT0_
FNDA:6676,_ZN9benchmark12_GLOBAL__N_19join_implINSt7__cxx1112basic_stringIcSt11char_traitsIcESaIcEEEJS7_S7_S7_S7_S7_S7_EEEvRS7_cRKT_DpRKT0_
FNDA:6676,_ZN9benchmark12_GLOBAL__N_19join_implINSt7__cxx1112basic_stringIcSt11char_traitsIcESaIcEEEJS7_S7_S7_S7_S7_S7_S7_EEEvRS7_cRKT_DpRKT0_
FNDA:6676,_ZN9benchmark12_GLOBAL__N_14joinIJNSt7__cxx1112basic_stringIcSt11char_traitsIcESaIcEEES7_S7_S7_S7_S7_S7_S7_EEES7_cDpRKT_
FNDA:6676,_ZNK9benchmark13BenchmarkName3strB5cxx11Ev
FNF:20
FNH:20
DA:22,6676
DA:25,53408
DA:26,53408
DA:31,6676
DA:34,53408
DA:36,53408
DA:37,7141
DA:40,53408
DA:42,53408
DA:43,53408
DA:46,6676
DA:47,6676
DA:48,6676
DA:49,6676
DA:50,6676
DA:51,0
DA:55,6676
DA:56,6676
DA:57,6676
LF:19
LH:18
end_of_record
TN:
SF:/home/alex/labs3/build/_deps/googlebenchmark-src/src/benchmark_register.cc
FN:101,106,_ZN9benchmark8internal17BenchmarkFamilies12AddBenchmarkESt10unique_ptrINS0_9BenchmarkESt14default_deleteIS3_EE
FN:108,112,_ZN9benchmark8internal17BenchmarkFamilies15ClearBenchmarksEv
FN:114,186,_ZN9benchmark8internal17BenchmarkFamilies14FindBenchmarksENSt7__cxx1112basic_stringIcSt11char_traitsIcESaIcEEEPSt6vectorINS0_17BenchmarkInstanceESaIS9_EEPSo
FN:188,193,_ZN9benchmark8internal25RegisterBenchmarkInternalEPNS0_9BenchmarkE
FN:197,201,_ZN9benchmark8internal22FindBenchmarksInternalERKNSt7__cxx1112basic_stringIcSt11char_traitsIcESaIcEEEPSt6vectorINS0_17BenchmarkInstanceESaISA_EEPSo
FN:207,228,_ZN9benchmark8internal9BenchmarkC2ERKNSt7__cxx1112basic_stringIcSt11char_traitsIcESaIcEEE
FN:230,230,_ZN9benchmark8internal9BenchmarkD0Ev
FN:230,230,_ZN9benchmark8internal9BenchmarkD2Ev
FN:232,235,_ZN9benchmark8internal9Benchmark4NameERKNSt7__cxx1112basic_stringIcSt11char_traitsIcESaIcEEE
FN:237,241,_ZN9benchmark8internal9Benchmark3ArgEl
FN:243,247,_ZN9benchmark8internal9Benchmark4UnitENS_8TimeUnitE
FN:249,258,_ZN9benchmark8internal9Benchmark5RangeEll
FN:260,272,_ZN9benchmark8internal9Benchmark6RangesERKSt6vectorISt4pairIllESaIS4_EE
FN:274,300,_ZN9benchmark8internal9Benchmark11ArgsProductERKSt6vectorIS2_IlSaIlEESaIS4_EE
FN:281,283,_ZZN9benchmark8internal9Benchmark11ArgsProductERKSt6vectorIS2_IlSaIlEESaIS4_EEENKUlmRKS4_E_clEmSA_
FN:302,306,_ZN9benchmark8internal9Benchmark7ArgNameERKNSt7__cxx1112basic_stringIcSt11char_traitsIcESaIcEEE
FN:308,312,_ZN9benchmark8internal9Benchmark8ArgNamesERKSt6vectorINSt7__cxx1112basic_stringIcSt11char_traitsIcESaIcEEESaIS8_EE
FN:314,321,_ZN9benchmark8internal9Benchmark10DenseRangeElli
FN:323,327,_ZN9benchmark8internal9Benchmark4ArgsERKSt6vectorIlSaIlEE
FN:329,332,_ZN9benchmark8internal9Benchmark5ApplyEPFvPS1_E
FN:334,338,_ZN9benchmark8internal9Benchmark5SetupEPFvRKNS_5StateEE
FN:340,344,_ZN9benchmark8internal9Benchmark8TeardownEPFvRKNS_5StateEE
FN:346,350,_ZN9benchmark8internal9Benchmark15RangeMultiplierEi
FN:352,357,_ZN9benchmark8internal9Benchmark7MinTimeEd
FN:359,364,_ZN9benchmark8internal9Benchmark13MinWarmUpTimeEd
FN:366,372,_ZN9benchmark8internal9Benchmark10IterationsEl
FN:374,378,_ZN9benchmark8internal9Benchmark11RepetitionsEi
FN:380,383,_ZN9benchmark8internal9Benchmark20ReportAggregatesOnlyEb
FN:385,399,_ZN9benchmark8internal9Benchmark21DisplayAggregatesOnlyEb
FN:401,405,_ZN9benchmark8internal9Benchmark21MeasureProcessCPUTimeEv
FN:407,412,_ZN9benchmark8internal9Benchmark11UseRealTimeEv
FN:414,419,_ZN9benchmark8internal9Benchmark13UseManualTimeEv
FN:421,424,_ZN9benchmark8internal9Benchmark10ComplexityENS_4BigOE
FN:426,430,_ZN9benchmark8internal9Benchmark10ComplexityEPFdlE
FN:432,437,_ZN9benchmark8internal9Benchmark17ComputeStatisticsERKNSt7__cxx1112basic_stringIcSt11char_traitsIcESaIcEEEPFdRKSt6vectorIdSaIdEEENS_13StatisticUnitE
FN:439,443,_ZN9benchmark8internal9Benchmark7ThreadsEi
FN:445,451,_ZN9benchmark8internal9Benchmark11ThreadRangeEii
FN:453,464,_ZN9benchmark8internal9Benchmark16DenseThreadRangeEiii
FN:466,469,_ZN9benchmark8internal9Benchmark12ThreadPerCpuEv
FN:471,471,_ZN9benchmark8internal9Benchmark7SetNameERKNSt7__cxx1112basic_stringIcSt11char_traitsIcESaIcEEE
FN:473,473,_ZNK9benchmark8internal9Benchmark7GetNameEv
FN:475,481,_ZNK9benchmark8internal9Benchmark7ArgsCntEv
FN:483,487,_ZNK9benchmark8internal9Benchmark10GetArgNameEi
FN:489,491,_ZNK9benchmark8internal9Benchmark11GetTimeUnitEv
FN:497,497,_ZN9benchmark8internal17FunctionBenchmark3RunERNS_5StateE
FN:501,503,_ZN9benchmark25ClearRegisteredBenchmarksEv
FN:505,509,_ZN9benchmark11CreateRangeElli
FN:511,518,_ZN9benchmark16CreateDenseRangeElli
FN:90,90,_ZN9benchmark8internal17BenchmarkFamiliesC2Ev
FN:96,99,_ZN9benchmark8internal17BenchmarkFamilies11GetInstanceEv
FNDA:403,_ZN9benchmark8internal17BenchmarkFamilies12AddBenchmarkESt10unique_ptrINS0_9BenchmarkESt14default_deleteIS3_EE
FNDA:1,_ZN9benchmark8internal17BenchmarkFamilies15ClearBenchmarksEv
FNDA:69,_ZN9benchmark8internal17BenchmarkFamilies14FindBenchmarksENSt7__cxx1112basic_stringIcSt11char_traitsIcESaIcEEEPSt6vectorINS0_17BenchmarkInstanceESaIS9_EEPSo
FNDA:403,_ZN9benchmark8internal25RegisterBenchmarkInternalEPNS0_9BenchmarkE
FNDA:69,_ZN9benchmark8internal22FindBenchmarksInternalERKNSt7__cxx1112basic_stringIcSt11char_traitsIcESaIcEEEPSt6vectorINS0_17BenchmarkInstanceESaISA_EEPSo
FNDA:406,_ZN9benchmark8internal9BenchmarkC2ERKNSt7__cxx1112basic_stringIcSt11char_traitsIcESaIcEEE
FNDA:0,_ZN9benchmark8internal9BenchmarkD0Ev
FNDA:406,_ZN9benchmark8internal9BenchmarkD2Ev
FNDA:1,_ZN9benchmark8internal9Benchmark4NameERKNSt7__cxx1112basic_stringIcSt11char_traitsIcESaIcEEE
FNDA:79,_ZN9benchmark8internal9Benchmark3ArgEl
FNDA:11,_ZN9benchmark8internal9Benchmark4UnitENS_8TimeUnitE
FNDA:26,_ZN9benchmark8internal9Benchmark5RangeEll
FNDA:8,_ZN9benchmark8internal9Benchmark6RangesERKSt6vectorISt4pairIllESaIS4_EE
FNDA:9,_ZN9benchmark8internal9Benchmark11ArgsProductERKSt6vectorIS2_IlSaIlEESaIS4_EE
FNDA:21,_ZZN9benchmark8internal9Benchmark11ArgsProductERKSt6vectorIS2_IlSaIlEESaIS4_EEENKUlmRKS4_E_clEmSA_
FNDA:1,_ZN9benchmark8internal9Benchmark7ArgNameERKNSt7__cxx1112basic_stringIcSt11char_traitsIcESaIcEEE
FNDA:1,_ZN9benchmark8internal9Benchmark8ArgNamesERKSt6vectorINSt7__cxx1112basic_stringIcSt11char_traitsIcESaIcEEESaIS8_EE
FNDA:2,_ZN9benchmark8internal9Benchmark10DenseRangeElli
FNDA:333,_ZN9benchmark8internal9Benchmark4ArgsERKSt6vectorIlSaIlEE
FNDA:1,_ZN9benchmark8internal9Benchmark5ApplyEPFvPS1_E
FNDA:4,_ZN9benchmark8internal9Benchmark5SetupEPFvRKNS_5StateEE
FNDA:2,_ZN9benchmark8internal9Benchmark8TeardownEPFvRKNS_5StateEE
FNDA:11,_ZN9benchmark8internal9Benchmark15RangeMultiplierEi
FNDA:2,_ZN9benchmark8internal9Benchmark7MinTimeEd
FNDA:2,_ZN9benchmark8internal9Benchmark13MinWarmUpTimeEd
FNDA:45,_ZN9benchmark8internal9Benchmark10IterationsEl
FNDA:18,_ZN9benchmark8internal9Benchmark11RepetitionsEi
FNDA:4,_ZN9benchmark8internal9Benchmark20ReportAggregatesOnlyEb
FNDA:2,_ZN9benchmark8internal9Benchmark21DisplayAggregatesOnlyEb
FNDA:18,_ZN9benchmark8internal9Benchmark21MeasureProcessCPUTimeEv
FNDA:17,_ZN9benchmark8internal9Benchmark11UseRealTimeEv
FNDA:15,_ZN9benchmark8internal9Benchmark13UseManualTimeEv
FNDA:8,_ZN9benchmark8internal9Benchmark10ComplexityENS_4BigOE
FNDA:3,_ZN9benchmark8internal9Benchmark10ComplexityEPFdlE
FNDA:1626,_ZN9benchmark8internal9Benchmark17ComputeStatisticsERKNSt7__cxx1112basic_stringIcSt11char_traitsIcESaIcEEEPFdRKSt6vectorIdSaIdEEENS_13StatisticUnitE
FNDA:40,_ZN9benchmark8internal9Benchmark7ThreadsEi
FNDA:14,_ZN9benchmark8internal9Benchmark11ThreadRangeEii
FNDA:3,_ZN9benchmark8internal9Benchmark16DenseThreadRangeEiii
FNDA:13,_ZN9benchmark8internal9Benchmark12ThreadPerCpuEv
FNDA:13,_ZN9benchmark8internal9Benchmark7SetNameERKNSt7__cxx1112basic_stringIcSt11char_traitsIcESaIcEEE
FNDA:0,_ZNK9benchmark8internal9Benchmark7GetNameEv
FNDA:914,_ZNK9benchmark8internal9Benchmark7ArgsCntEv
FNDA:0,_ZNK9benchmark8internal9Benchmark10GetArgNameEi
FNDA:716,_ZNK9benchmark8internal9Benchmark11GetTimeUnitEv
FNDA:5236,_ZN9benchmark8internal17FunctionBenchmark3RunERNS_5StateE
FNDA:1,_ZN9benchmark25ClearRegisteredBenchmarksEv
FNDA:0,_ZN9benchmark11CreateRangeElli
FNDA:0,_ZN9benchmark16CreateDenseRangeElli
FNDA:66,_ZN9benchmark8internal17BenchmarkFamiliesC2Ev
FNDA:473,_ZN9benchmark8internal17BenchmarkFamilies11GetInstanceEv
FNF:50
FNH:45
DA:90,66
DA:96,473
DA:97,473
DA:98,473
DA:101,403
DA:102,403
DA:103,403
DA:104,403
DA:105,403
DA:106,403
DA:108,1
DA:109,1
DA:110,1
DA:111,1
DA:112,1
DA:114,69
DA:117,69
DA:118,69
DA:120,69
DA:121,69
DA:122,69
DA:123,69
DA:124,18
DA:125,18
DA:127,69
DA:128,0
DA:129,0
DA:133,138
DA:135,69
DA:137,69
DA:138,471
DA:139,402
DA:140,402
DA:143,402
DA:145,402
DA:146,325
DA:149,402
DA:150,470
DA:151,68
DA:152,402
DA:155,402
DA:156,0
DA:157,0
DA:162,402
DA:164,1056
DA:165,1366
DA:168,712
DA:170,712
DA:171,1422
DA:172,710
DA:173,141
DA:174,607
DA:176,607
DA:180,607
DA:182,712
DA:185,69
DA:186,69
DA:188,403
DA:189,403
DA:190,403
DA:191,403
DA:192,403
DA:193,403
DA:197,69
DA:200,69
DA:207,406
DA:208,406
DA:209,406
DA:210,406
DA:211,406
DA:212,406
DA:213,406
DA:214,406
DA:215,406
DA:216,406
DA:217,406
DA:218,406
DA:219,406
DA:220,406
DA:221,406
DA:222,406
DA:223,812
DA:224,812
DA:225,812
DA:226,812
DA:227,406
DA:228,406
DA:230,406
DA:232,1
DA:233,1
DA:234,1
DA:237,79
DA:238,79
DA:239,158
DA:240,79
DA:243,11
DA:244,11
DA:245,11
DA:246,11
DA:249,26
DA:250,26
DA:251,26
DA:252,26
DA:254,178
DA:255,456
DA:257,26
DA:258,26
DA:260,8
DA:262,8
DA:263,8
DA:264,25
DA:265,17
DA:269,8
DA:271,8
DA:272,8
DA:274,9
DA:276,9
DA:278,18
DA:279,9
DA:281,21
DA:282,21
DA:284,9
DA:285,9
DA:286,71
DA:287,228
DA:288,166
DA:290,62
DA:291,62
DA:293,62
DA:295,101
DA:296,101
DA:299,9
DA:300,9
DA:302,1
DA:303,1
DA:304,2
DA:305,1
DA:306,1
DA:308,1
DA:309,1
DA:310,1
DA:311,1
DA:314,2
DA:315,2
DA:316,2
DA:317,13
DA:318,33
DA:320,2
DA:323,333
DA:324,333
DA:325,333
DA:326,333
DA:329,1
DA:330,1
DA:331,1
DA:334,4
DA:335,4
DA:336,4
DA:337,4
DA:340,2
DA:341,2
DA:342,2
DA:343,2
DA:346,11
DA:347,11
DA:348,11
DA:349,11
DA:352,2
DA:353,2
DA:354,2
DA:355,2
DA:356,2
DA:359,2
DA:360,2
DA:361,2
DA:362,2
DA:363,2
DA:366,45
DA:367,45
DA:368,45
DA:369,45
DA:370,45
DA:371,45
DA:374,18
DA:375,18
DA:376,18
DA:377,18
DA:380,4
DA:381,4
DA:382,4
DA:385,2
DA:387,2
DA:388,2
DA:390,2
DA:391,2
DA:392,2
DA:394,0
DA:395,0
DA:398,2
DA:401,18
DA:403,18
DA:404,18
DA:407,17
DA:408,34
DA:409,34
DA:410,17
DA:411,17
DA:414,15
DA:415,30
DA:416,30
DA:417,15
DA:418,15
DA:421,8
DA:422,8
DA:423,8
DA:426,3
DA:427,3
DA:428,3
DA:429,3
DA:432,1626
DA:435,1626
DA:436,1626
DA:439,40
DA:440,40
DA:441,40
DA:442,40
DA:445,14
DA:446,14
DA:447,14
DA:449,14
DA:450,14
DA:453,3
DA:455,3
DA:456,3
DA:457,3
DA:459,10
DA:460,7
DA:462,3
DA:463,3
DA:466,13
DA:467,13
DA:468,13
DA:471,13
DA:473,0
DA:475,914
DA:476,914
DA:477,733
DA:478,2
DA:480,181
DA:483,0
DA:484,0
DA:485,0
DA:486,0
DA:489,716
DA:490,716
DA:497,5236
DA:501,1
DA:502,1
DA:503,1
DA:505,0
DA:506,0
DA:507,0
DA:508,0
DA:509,0
DA:511,0
DA:512,0
DA:513,0
DA:514,0
DA:515,0
DA:517,0
DA:518,0
LF:271
LH:248
end_of_record
TN:
SF:/home/alex/labs3/build/_deps/googlebenchmark-src/src/benchmark_register.h
FN:16,37,_ZN9benchmark8internal9AddPowersIaEENSt6vectorIT_SaIS3_EE8iteratorEPS5_S3_S3_i
FN:16,37,_ZN9benchmark8internal9AddPowersIiEENSt6vectorIT_SaIS3_EE8iteratorEPS5_S3_S3_i
FN:16,37,_ZN9benchmark8internal9AddPowersIlEENSt6vectorIT_SaIS3_EE8iteratorEPS5_S3_S3_i
FN:40,57,_ZN9benchmark8internal16AddNegatedPowersIaEEvPSt6vectorIT_SaIS3_EES3_S3_i
FN:40,57,_ZN9benchmark8internal16AddNegatedPowersIiEEvPSt6vectorIT_SaIS3_EES3_S3_i
FN:40,57,_ZN9benchmark8internal16AddNegatedPowersIlEEvPSt6vectorIT_SaIS3_EES3_S3_i
FN:55,55,_ZZN9benchmark8internal16AddNegatedPowersIaEEvPSt6vectorIT_SaIS3_EES3_S3_iENKUlRaE_clES7_
FN:55,55,_ZZN9benchmark8internal16AddNegatedPowersIiEEvPSt6vectorIT_SaIS3_EES3_S3_iENKUlRiE_clES7_
FN:55,55,_ZZN9benchmark8internal16AddNegatedPowersIlEEvPSt6vectorIT_SaIS3_EES3_S3_iENKUlRlE_clES7_
FN:60,104,_ZN9benchmark8internal8AddRangeIaEEvPSt6vectorIT_SaIS3_EES3_S3_i
FN:60,104,_ZN9benchmark8internal8AddRangeIiEEvPSt6vectorIT_SaIS3_EES3_S3_i
FN:60,104,_ZN9benchmark8internal8AddRangeIlEEvPSt6vectorIT_SaIS3_EES3_S3_i
FNDA:2,_ZN9benchmark8internal9AddPowersIaEENSt6vectorIT_SaIS3_EE8iteratorEPS5_S3_S3_i
FNDA:25,_ZN9benchmark8internal9AddPowersIiEENSt6vectorIT_SaIS3_EE8iteratorEPS5_S3_S3_i
FNDA:46,_ZN9benchmark8internal9AddPowersIlEENSt6vectorIT_SaIS3_EE8iteratorEPS5_S3_S3_i
FNDA:0,_ZN9benchmark8internal16AddNegatedPowersIaEEvPSt6vectorIT_SaIS3_EES3_S3_i
FNDA:6,_ZN9benchmark8internal16AddNegatedPowersIiEEvPSt6vectorIT_SaIS3_EES3_S3_i
FNDA:8,_ZN9benchmark8internal16AddNegatedPowersIlEEvPSt6vectorIT_SaIS3_EES3_S3_i
FNDA:0,_ZZN9benchmark8internal16AddNegatedPowersIaEEvPSt6vectorIT_SaIS3_EES3_S3_iENKUlRaE_clES7_
FNDA:14,_ZZN9benchmark8internal16AddNegatedPowersIiEEvPSt6vectorIT_SaIS3_EES3_S3_iENKUlRiE_clES7_
FNDA:18,_ZZN9benchmark8internal16AddNegatedPowersIlEEvPSt6vectorIT_SaIS3_EES3_S3_iENKUlRlE_clES7_
FNDA:2,_ZN9benchmark8internal8AddRangeIaEEvPSt6vectorIT_SaIS3_EES3_S3_i
FNDA:24,_ZN9benchmark8internal8AddRangeIiEEvPSt6vectorIT_SaIS3_EES3_S3_i
FNDA:49,_ZN9benchmark8internal8AddRangeIlEEvPSt6vectorIT_SaIS3_EES3_S3_i
FNF:12
FNH:10
DA:16,73
DA:18,73
DA:19,73
DA:20,73
DA:22,73
DA:27,424
DA:28,357
DA:29,190
DA:33,357
DA:36,73
DA:40,14
DA:42,14
DA:43,14
DA:44,14
DA:45,14
DA:50,14
DA:51,14
DA:53,14
DA:55,46
DA:56,14
DA:57,14
DA:60,75
DA:64,75
DA:65,75
DA:68,75
DA:73,81
DA:76,70
DA:77,6
DA:78,6
DA:82,64
DA:83,64
DA:86,64
DA:87,14
DA:91,64
DA:92,11
DA:96,64
DA:97,59
DA:101,64
DA:102,63
LF:39
LH:39
end_of_record
TN:
SF:/home/alex/labs3/build/_deps/googlebenchmark-src/src/benchmark_runner.cc
FN:123,146,_ZN9benchmark8internal12_GLOBAL__N_111RunInThreadEPKNS0_17BenchmarkInstanceEliPNS0_13ThreadManagerEPNS0_23PerfCountersMeasurementE
FN:148,156,_ZN9benchmark8internal12_GLOBAL__N_114ComputeMinTimeERKNS0_17BenchmarkInstanceERKNS0_13BenchTimeTypeE
FN:158,166,_ZN9benchmark8internal12_GLOBAL__N_112ComputeItersERKNS0_17BenchmarkInstanceERKNS0_13BenchTimeTypeE
FN:170,218,_ZN9benchmark8internal17ParseBenchMinTimeERKNSt7__cxx1112basic_stringIcSt11char_traitsIcESaIcEEE
FN:220,257,_ZN9benchmark8internal15BenchmarkRunnerC2ERKNS0_17BenchmarkInstanceEPNS0_23PerfCountersMeasurementEPNS_17BenchmarkReporter19PerFamilyRunReportsE
FN:259,311,_ZN9benchmark8internal15BenchmarkRunner13DoNIterationsEv
FN:313,335,_ZNK9benchmark8internal15BenchmarkRunner21PredictNumItersNeededERKNS1_16IterationResultsE
FN:337,351,_ZNK9benchmark8internal15BenchmarkRunner28ShouldReportIterationResultsERKNS1_16IterationResultsE
FN:353,360,_ZNK9benchmark8internal15BenchmarkRunner17GetMinTimeToApplyEv
FN:362,365,_ZN9benchmark8internal15BenchmarkRunner12FinishWarmUpERKl
FN:367,401,_ZN9benchmark8internal15BenchmarkRunner9RunWarmUpEv
FN:403,484,_ZN9benchmark8internal15BenchmarkRunner15DoOneRepetitionEv
FN:486,493,_ZN9benchmark8internal15BenchmarkRunner10GetResultsEv
FN:71,119,_ZN9benchmark8internal12_GLOBAL__N_115CreateRunReportERKNS0_17BenchmarkInstanceERKNS0_13ThreadManager6ResultElPKNS_13MemoryManager6ResultEdll
FNDA:5634,_ZN9benchmark8internal12_GLOBAL__N_111RunInThreadEPKNS0_17BenchmarkInstanceEliPNS0_13ThreadManagerEPNS0_23PerfCountersMeasurementE
FNDA:562,_ZN9benchmark8internal12_GLOBAL__N_114ComputeMinTimeERKNS0_17BenchmarkInstanceERKNS0_13BenchTimeTypeE
FNDA:69,_ZN9benchmark8internal12_GLOBAL__N_112ComputeItersERKNS0_17BenchmarkInstanceERKNS0_13BenchTimeTypeE
FNDA:562,_ZN9benchmark8internal17ParseBenchMinTimeERKNSt7__cxx1112basic_stringIcSt11char_traitsIcESaIcEEE
FNDA:562,_ZN9benchmark8internal15BenchmarkRunnerC2ERKNS0_17BenchmarkInstanceEPNS0_23PerfCountersMeasurementEPNS_17BenchmarkReporter19PerFamilyRunReportsE
FNDA:3237,_ZN9benchmark8internal15BenchmarkRunner13DoNIterationsEv
FNDA:2435,_ZNK9benchmark8internal15BenchmarkRunner21PredictNumItersNeededERKNS1_16IterationResultsE
FNDA:2929,_ZNK9benchmark8internal15BenchmarkRunner28ShouldReportIterationResultsERKNS1_16IterationResultsE
FNDA:10217,_ZNK9benchmark8internal15BenchmarkRunner17GetMinTimeToApplyEv
FNDA:1,_ZN9benchmark8internal15BenchmarkRunner12FinishWarmUpERKl
FNDA:1,_ZN9benchmark8internal15BenchmarkRunner9RunWarmUpEv
FNDA:801,_ZN9benchmark8internal15BenchmarkRunner15DoOneRepetitionEv
FNDA:562,_ZN9benchmark8internal15BenchmarkRunner10GetResultsEv
FNDA:801,_ZN9benchmark8internal12_GLOBAL__N_115CreateRunReportERKNS0_17BenchmarkInstanceERKNS0_13ThreadManager6ResultElPKNS_13MemoryManager6ResultEdll
FNF:14
FNH:14
DA:71,801
DA:78,801
DA:80,801
DA:81,801
DA:82,801
DA:83,801
DA:84,801
DA:85,801
DA:87,801
DA:88,801
DA:89,801
DA:90,801
DA:91,801
DA:93,801
DA:94,782
DA:95,24
DA:97,758
DA:99,782
DA:100,782
DA:101,782
DA:102,782
DA:103,782
DA:104,782
DA:106,782
DA:107,1
DA:108,1
DA:109,1
DA:110,1
DA:115,782
DA:116,782
DA:118,801
DA:119,0
DA:123,5634
DA:127,5634
DA:128,5635
DA:129,5608
DA:132,5635
DA:133,11014
DA:134,11011
DA:136,5506
DA:137,5640
DA:138,5640
DA:139,5640
DA:140,5640
DA:141,5640
DA:142,5640
DA:143,5640
DA:144,5640
DA:145,5635
DA:146,5637
DA:148,562
DA:150,562
DA:153,560
DA:155,559
DA:158,69
DA:160,69
DA:164,1
DA:165,1
DA:170,562
DA:173,562
DA:174,0
DA:175,0
DA:176,0
DA:179,562
DA:182,1
DA:183,1
DA:187,2
DA:189,2
DA:191,1
DA:192,1
DA:193,1
DA:196,561
DA:197,561
DA:198,2
DA:199,2
DA:204,561
DA:205,561
DA:209,1122
DA:212,1122
DA:214,561
DA:215,561
DA:217,561
DA:220,562
DA:223,562
DA:224,562
DA:225,562
DA:226,562
DA:227,562
DA:228,564
DA:229,564
DA:231,562
DA:232,562
DA:234,1056
DA:235,494
DA:237,562
DA:238,1124
DA:239,562
DA:241,1686
DA:242,562
DA:243,562
DA:245,562
DA:247,562
DA:248,6
DA:249,6
DA:251,6
DA:252,6
DA:253,12
DA:255,12
DA:257,562
DA:259,3237
DA:260,3237
DA:262,3237
DA:263,3237
DA:266,5639
DA:267,4804
DA:268,7206
DA:273,3237
DA:276,3237
DA:277,5639
DA:279,3237
DA:282,3237
DA:283,3237
DA:284,3237
DA:287,3237
DA:290,3237
DA:291,3237
DA:293,3237
DA:295,0
DA:296,3237
DA:300,3237
DA:303,3237
DA:304,3237
DA:305,35
DA:306,3202
DA:307,54
DA:310,6474
DA:311,3237
DA:313,2435
DA:317,2435
DA:323,2435
DA:324,2435
DA:328,4870
DA:329,2435
DA:331,2435
DA:333,2435
DA:334,2435
DA:337,2929
DA:342,5840
DA:343,5819
DA:344,2908
DA:345,8748
DA:349,2439
DA:350,2933
DA:353,10217
DA:359,10217
DA:362,1
DA:363,1
DA:364,1
DA:365,1
DA:367,1
DA:370,1
DA:377,1
DA:380,9
DA:381,9
DA:382,9
DA:384,9
DA:386,9
DA:387,1
DA:388,1
DA:396,8
DA:397,8
DA:400,8
DA:401,1
DA:403,801
DA:404,801
DA:406,801
DA:413,801
DA:415,801
DA:423,3228
DA:424,3228
DA:425,3228
DA:432,6217
DA:433,6148
DA:434,2920
DA:436,3228
DA:441,2427
DA:442,2427
DA:445,2427
DA:448,801
DA:449,801
DA:450,801
DA:454,1
DA:455,1
DA:458,1
DA:459,1
DA:460,1
DA:461,1
DA:462,1
DA:463,1
DA:464,1
DA:465,1
DA:466,1
DA:467,1
DA:468,1
DA:469,1
DA:474,801
DA:476,801
DA:477,74
DA:478,74
DA:481,801
DA:483,801
DA:484,801
DA:486,562
DA:487,562
DA:490,562
DA:492,562
LF:216
LH:211
end_of_record
TN:
SF:/home/alex/labs3/build/_deps/googlebenchmark-src/src/benchmark_runner.h
FN:64,64,_ZNK9benchmark8internal15BenchmarkRunner13GetNumRepeatsEv
FN:66,68,_ZNK9benchmark8internal15BenchmarkRunner19HasRepeatsRemainingEv
FN:74,76,_ZNK9benchmark8internal15BenchmarkRunner19GetReportsForFamilyEv
FN:78,78,_ZNK9benchmark8internal15BenchmarkRunner10GetMinTimeEv
FN:80,80,_ZNK9benchmark8internal15BenchmarkRunner16HasExplicitItersEv
FN:82,82,_ZNK9benchmark8internal15BenchmarkRunner8GetItersEv
FNDA:3288,_ZNK9benchmark8internal15BenchmarkRunner13GetNumRepeatsEv
FNDA:2164,_ZNK9benchmark8internal15BenchmarkRunner19HasRepeatsRemainingEv
FNDA:562,_ZNK9benchmark8internal15BenchmarkRunner19GetReportsForFamilyEv
FNDA:564,_ZNK9benchmark8internal15BenchmarkRunner10GetMinTimeEv
FNDA:564,_ZNK9benchmark8internal15BenchmarkRunner16HasExplicitItersEv
FNDA:564,_ZNK9benchmark8internal15BenchmarkRunner8GetItersEv
FNF:6
FNH:6
DA:64,3288
DA:66,2164
DA:67,2164
DA:74,562
DA:75,562
DA:78,564
DA:80,564
DA:82,564
LF:8
LH:8
end_of_record
TN:
SF:/home/alex/labs3/build/_deps/googlebenchmark-src/src/check.cc
FN:8,8,_ZN9benchmark8internal15GetAbortHandlerEv
FNDA:9,_ZN9benchmark8internal15GetAbortHandlerEv
FNF:1
FNH:1
DA:8,9
LF:1
LH:1
end_of_record
TN:
SF:/home/alex/labs3/build/_deps/googlebenchmark-src/src/check.h
FN:37,40,_ZN9benchmark8internal16CallAbortHandlerEv
FN:47,51,_ZN9benchmark8internal12CheckHandlerC2EPKcS3_S3_i
FN:53,53,_ZN9benchmark8internal12CheckHandler6GetLogEv
FN:59,62,_ZN9benchmark8internal12CheckHandlerD2Ev
FNDA:8,_ZN9benchmark8internal16CallAbortHandlerEv
FNDA:8,_ZN9benchmark8internal12CheckHandlerC2EPKcS3_S3_i
FNDA:8,_ZN9benchmark8internal12CheckHandler6GetLogEv
FNDA:8,_ZN9benchmark8internal12CheckHandlerD2Ev
FNF:4
FNH:4
DA:37,8
DA:38,8
DA:39,0
DA:47,8
DA:48,8
DA:50,8
DA:51,8
DA:53,8
DA:59,8
DA:60,8
DA:61,8
DA:62,8
LF:12
LH:11
end_of_record
TN:
SF:/home/alex/labs3/build/_deps/googlebenchmark-src/src/colorprint.cc
FN:113,119,_ZN9benchmark12FormatStringB5cxx11EPKcz
FN:121,126,_ZN9benchmark11ColorPrintfERSoNS_8LogColorEPKcz
FN:128,156,_ZN9benchmark11ColorPrintfERSoNS_8LogColorEPKcP13__va_list_tag
FN:158,198,_ZN9benchmark15IsColorTerminalEv
FN:42,81,_ZN9benchmark12_GLOBAL__N_120GetPlatformColorCodeENS_8LogColorE
FN:85,111,_ZN9benchmark12FormatStringB5cxx11EPKcP13__va_list_tag
FNDA:1613,_ZN9benchmark12FormatStringB5cxx11EPKcz
FNDA:324,_ZN9benchmark11ColorPrintfERSoNS_8LogColorEPKcz
FNDA:324,_ZN9benchmark11ColorPrintfERSoNS_8LogColorEPKcP13__va_list_tag
FNDA:14,_ZN9benchmark15IsColorTerminalEv
FNDA:324,_ZN9benchmark12_GLOBAL__N_120GetPlatformColorCodeENS_8LogColorE
FNDA:4620,_ZN9benchmark12FormatStringB5cxx11EPKcP13__va_list_tag
FNF:6
FNH:6
DA:42,324
DA:62,324
DA:63,17
DA:64,17
DA:65,84
DA:66,84
DA:67,67
DA:68,67
DA:69,0
DA:70,0
DA:71,0
DA:72,0
DA:73,67
DA:74,67
DA:75,0
DA:76,0
DA:77,89
DA:78,89
DA:85,4620
DA:88,4620
DA:90,4620
DA:92,4620
DA:94,4620
DA:97,4620
DA:99,4620
DA:100,0
DA:102,4620
DA:103,9240
DA:106,0
DA:107,0
DA:108,0
DA:109,0
DA:110,0
DA:111,0
DA:113,1613
DA:115,1613
DA:116,1613
DA:117,1613
DA:118,3226
DA:121,324
DA:123,324
DA:124,324
DA:125,324
DA:126,324
DA:128,324
DA:152,324
DA:153,324
DA:154,324
DA:156,324
DA:158,14
DA:167,14
DA:186,14
DA:188,14
DA:189,42
DA:190,42
DA:191,14
DA:192,14
DA:196,14
LF:58
LH:45
end_of_record
TN:
SF:/home/alex/labs3/build/_deps/googlebenchmark-src/src/commandlineflags.cc
FN:112,120,_ZN9benchmark12_GLOBAL__N_1L12FlagToEnvVarEPKc
FN:125,129,_ZN9benchmark11BoolFromEnvEPKcb
FN:132,142,_ZN9benchmark12Int32FromEnvEPKci
FN:145,155,_ZN9benchmark13DoubleFromEnvEPKcd
FN:158,162,_ZN9benchmark13StringFromEnvEPKcS1_
FN:165,177,_ZN9benchmark14KvPairsFromEnvEPKcSt3mapINSt7__cxx1112basic_stringIcSt11char_traitsIcESaIcEEES8_St4lessIS8_ESaISt4pairIKS8_S8_EEE
FN:184,207,_ZN9benchmark14ParseFlagValueEPKcS1_b
FN:210,220,_ZN9benchmark13ParseBoolFlagEPKcS1_Pb
FN:223,233,_ZN9benchmark14ParseInt32FlagEPKcS1_Pi
FN:236,246,_ZN9benchmark15ParseDoubleFlagEPKcS1_Pd
FN:249,258,_ZN9benchmark15ParseStringFlagEPKcS1_PNSt7__cxx1112basic_stringIcSt11char_traitsIcESaIcEEE
FN:261,274,_ZN9benchmark17ParseKeyValueFlagEPKcS1_PSt3mapINSt7__cxx1112basic_stringIcSt11char_traitsIcESaIcEEES8_St4lessIS8_ESaISt4pairIKS8_S8_EEE
FN:277,279,_ZN9benchmark6IsFlagEPKcS1_
FN:282,296,_ZN9benchmark17IsTruthyFlagValueERKNSt7__cxx1112basic_stringIcSt11char_traitsIcESaIcEEE
FN:291,291,_ZZN9benchmark17IsTruthyFlagValueERKNSt7__cxx1112basic_stringIcSt11char_traitsIcESaIcEEEENKUlcE_clEc
FN:34,64,_ZN9benchmark12_GLOBAL__N_110ParseInt32ERKNSt7__cxx1112basic_stringIcSt11char_traitsIcESaIcEEEPKcPi
FN:68,83,_ZN9benchmark12_GLOBAL__N_111ParseDoubleERKNSt7__cxx1112basic_stringIcSt11char_traitsIcESaIcEEEPKcPd
FN:87,107,_ZN9benchmark12_GLOBAL__N_112ParseKvPairsERKNSt7__cxx1112basic_stringIcSt11char_traitsIcESaIcEEEPKcPSt3mapIS6_S6_St4lessIS6_ESaISt4pairIS7_S6_EEE
FNDA:1317,_ZN9benchmark12_GLOBAL__N_1L12FlagToEnvVarEPKc
FNDA:405,_ZN9benchmark11BoolFromEnvEPKcb
FNDA:153,_ZN9benchmark12Int32FromEnvEPKci
FNDA:78,_ZN9benchmark13DoubleFromEnvEPKcd
FNDA:602,_ZN9benchmark13StringFromEnvEPKcS1_
FNDA:79,_ZN9benchmark14KvPairsFromEnvEPKcSt3mapINSt7__cxx1112basic_stringIcSt11char_traitsIcESaIcEEES8_St4lessIS8_ESaISt4pairIKS8_S8_EEE
FNDA:924,_ZN9benchmark14ParseFlagValueEPKcS1_b
FNDA:297,_ZN9benchmark13ParseBoolFlagEPKcS1_Pb
FNDA:78,_ZN9benchmark14ParseInt32FlagEPKcS1_Pi
FNDA:41,_ZN9benchmark15ParseDoubleFlagEPKcS1_Pd
FNDA:435,_ZN9benchmark15ParseStringFlagEPKcS1_PNSt7__cxx1112basic_stringIcSt11char_traitsIcESaIcEEE
FNDA:37,_ZN9benchmark17ParseKeyValueFlagEPKcS1_PSt3mapINSt7__cxx1112basic_stringIcSt11char_traitsIcESaIcEEES8_St4lessIS8_ESaISt4pairIKS8_S8_EEE
FNDA:36,_ZN9benchmark6IsFlagEPKcS1_
FNDA:48,_ZN9benchmark17IsTruthyFlagValueERKNSt7__cxx1112basic_stringIcSt11char_traitsIcESaIcEEE
FNDA:61,_ZZN9benchmark17IsTruthyFlagValueERKNSt7__cxx1112basic_stringIcSt11char_traitsIcESaIcEEEENKUlcE_clEc
FNDA:4,_ZN9benchmark12_GLOBAL__N_110ParseInt32ERKNSt7__cxx1112basic_stringIcSt11char_traitsIcESaIcEEEPKcPi
FNDA:2,_ZN9benchmark12_GLOBAL__N_111ParseDoubleERKNSt7__cxx1112basic_stringIcSt11char_traitsIcESaIcEEEPKcPd
FNDA:3,_ZN9benchmark12_GLOBAL__N_112ParseKvPairsERKNSt7__cxx1112basic_stringIcSt11char_traitsIcESaIcEEEPKcPSt3mapIS6_S6_St4lessIS6_ESaISt4pairIS7_S6_EEE
FNF:18
FNH:18
DA:34,4
DA:36,4
DA:37,4
DA:40,4
DA:43,1
DA:44,1
DA:48,3
DA:49,6
DA:50,6
DA:53,3
DA:58,0
DA:59,0
DA:62,3
DA:63,3
DA:68,2
DA:70,2
DA:71,2
DA:74,2
DA:77,1
DA:78,1
DA:81,1
DA:82,1
DA:87,3
DA:89,3
DA:90,9
DA:91,4
DA:92,4
DA:95,1
DA:96,1
DA:98,3
DA:100,0
DA:101,0
DA:103,7
DA:105,2
DA:106,2
DA:107,3
DA:112,1317
DA:113,1317
DA:115,1317
DA:116,27914
DA:117,26597
DA:119,2634
DA:120,1317
DA:125,405
DA:126,405
DA:127,405
DA:128,1215
DA:129,781
DA:132,153
DA:133,153
DA:134,153
DA:135,153
DA:136,155
DA:137,157
DA:139,152
DA:141,1
DA:142,153
DA:145,78
DA:146,78
DA:147,78
DA:148,78
DA:149,80
DA:150,82
DA:152,77
DA:154,1
DA:155,78
DA:158,602
DA:159,602
DA:160,602
DA:161,1204
DA:162,602
DA:165,79
DA:167,79
DA:168,79
DA:170,79
DA:172,3
DA:173,3
DA:174,1
DA:176,2
DA:177,79
DA:184,924
DA:187,924
DA:190,2772
DA:191,924
DA:192,924
DA:195,103
DA:198,103
DA:203,85
DA:206,85
DA:207,924
DA:210,297
DA:212,297
DA:215,297
DA:218,19
DA:219,19
DA:223,78
DA:225,78
DA:228,78
DA:231,6
DA:232,2
DA:236,41
DA:238,41
DA:241,41
DA:244,0
DA:245,0
DA:249,435
DA:251,435
DA:254,435
DA:256,82
DA:257,82
DA:261,37
DA:263,37
DA:265,37
DA:267,0
DA:268,0
DA:269,0
DA:270,0
DA:271,0
DA:273,0
DA:277,36
DA:278,36
DA:282,48
DA:283,48
DA:284,10
DA:285,19
DA:286,19
DA:288,38
DA:289,19
DA:290,19
DA:291,61
DA:292,32
DA:293,13
DA:294,19
DA:295,19
LF:134
LH:122
end_of_record
TN:
SF:/home/alex/labs3/build/_deps/googlebenchmark-src/src/complexity.cc
FN:125,155,_ZN9benchmark14MinimalLeastSqERKSt6vectorIlSaIlEERKS0_IdSaIdEENS_4BigOE
FN:157,242,_ZN9benchmark11ComputeBigOERKSt6vectorINS_17BenchmarkReporter3RunESaIS2_EE
FN:29,51,_ZN9benchmark12FittingCurveENS_4BigOE
FN:33,33,_ZZN9benchmark12FittingCurveENS_4BigOEENKUllE_clEl
FN:35,35,_ZZN9benchmark12FittingCurveENS_4BigOEENKUllE0_clEl
FN:37,37,_ZZN9benchmark12FittingCurveENS_4BigOEENKUllE1_clEl
FN:41,41,_ZZN9benchmark12FittingCurveENS_4BigOEENKUllE2_clEl
FN:44,46,_ZZN9benchmark12FittingCurveENS_4BigOEENKUllE3_clEl
FN:49,49,_ZZN9benchmark12FittingCurveENS_4BigOEENKUllE4_clEl
FN:54,71,_ZN9benchmark13GetBigOStringB5cxx11ENS_4BigOE
FN:83,116,_ZN9benchmark14MinimalLeastSqERKSt6vectorIlSaIlEERKS0_IdSaIdEEPFdlE
FNDA:16,_ZN9benchmark14MinimalLeastSqERKSt6vectorIlSaIlEERKS0_IdSaIdEENS_4BigOE
FNDA:11,_ZN9benchmark11ComputeBigOERKSt6vectorINS_17BenchmarkReporter3RunESaIS2_EE
FNDA:31,_ZN9benchmark12FittingCurveENS_4BigOE
FNDA:100,_ZZN9benchmark12FittingCurveENS_4BigOEENKUllE_clEl
FNDA:42,_ZZN9benchmark12FittingCurveENS_4BigOEENKUllE0_clEl
FNDA:42,_ZZN9benchmark12FittingCurveENS_4BigOEENKUllE1_clEl
FNDA:42,_ZZN9benchmark12FittingCurveENS_4BigOEENKUllE2_clEl
FNDA:84,_ZZN9benchmark12FittingCurveENS_4BigOEENKUllE3_clEl
FNDA:112,_ZZN9benchmark12FittingCurveENS_4BigOEENKUllE4_clEl
FNDA:33,_ZN9benchmark13GetBigOStringB5cxx11ENS_4BigOE
FNDA:37,_ZN9benchmark14MinimalLeastSqERKSt6vectorIlSaIlEERKS0_IdSaIdEEPFdlE
FNF:11
FNH:11
DA:29,31
DA:31,31
DA:32,8
DA:33,108
DA:34,3
DA:35,45
DA:36,3
DA:37,45
DA:38,3
DA:41,45
DA:42,6
DA:44,12
DA:45,84
DA:46,6
DA:47,8
DA:49,120
DA:54,33
DA:55,33
DA:56,9
DA:57,18
DA:58,0
DA:59,0
DA:60,0
DA:61,0
DA:62,0
DA:63,0
DA:64,6
DA:65,12
DA:66,9
DA:67,18
DA:68,9
DA:69,18
DA:83,37
DA:86,37
DA:87,37
DA:88,37
DA:91,290
DA:92,253
DA:93,253
DA:94,253
DA:95,253
DA:98,37
DA:99,37
DA:102,37
DA:105,37
DA:106,290
DA:107,253
DA:108,253
DA:112,37
DA:113,37
DA:115,37
DA:125,16
DA:127,16
DA:128,16
DA:130,16
DA:132,16
DA:134,16
DA:135,6
DA:138,3
DA:139,3
DA:142,18
DA:143,15
DA:144,15
DA:145,5
DA:146,5
DA:149,3
DA:150,13
DA:151,13
DA:154,16
DA:157,11
DA:160,11
DA:162,11
DA:165,11
DA:166,11
DA:167,11
DA:170,85
DA:171,148
DA:172,148
DA:173,74
DA:174,74
DA:175,74
DA:178,11
DA:179,11
DA:181,11
DA:182,3
DA:183,3
DA:185,8
DA:186,8
DA:190,11
DA:191,11
DA:194,11
DA:195,11
DA:196,11
DA:197,11
DA:198,11
DA:199,11
DA:200,11
DA:201,11
DA:202,11
DA:203,11
DA:204,11
DA:205,11
DA:206,11
DA:207,11
DA:208,11
DA:209,11
DA:216,11
DA:219,11
DA:220,11
DA:221,11
DA:222,11
DA:223,11
DA:224,11
DA:225,11
DA:226,11
DA:227,11
DA:228,11
DA:229,11
DA:230,11
DA:231,11
DA:232,11
DA:233,11
DA:234,11
DA:237,11
DA:239,11
DA:240,11
DA:241,11
DA:242,11
LF:128
LH:122
end_of_record
TN:
SF:/home/alex/labs3/build/_deps/googlebenchmark-src/src/complexity.h
FN:43,43,_ZN9benchmark7LeastSqC2Ev
FNDA:75,_ZN9benchmark7LeastSqC2Ev
FNF:1
FNH:1
DA:43,75
LF:1
LH:1
end_of_record
TN:
SF:/home/alex/labs3/build/_deps/googlebenchmark-src/src/console_reporter.cc
FN:104,124,_ZN9benchmarkL10FormatTimeEd
FN:127,204,_ZN9benchmark15ConsoleReporter12PrintRunDataERKNS_17BenchmarkReporter3RunE
FN:37,54,_ZN9benchmark15ConsoleReporter13ReportContextERKNS_17BenchmarkReporter7ContextE
FN:57,72,_ZN9benchmark15ConsoleReporter11PrintHeaderERKNS_17BenchmarkReporter3RunE
FN:75,94,_ZN9benchmark15ConsoleReporter10ReportRunsERKSt6vectorINS_17BenchmarkReporter3RunESaIS3_EE
FN:96,102,_ZN9benchmarkL16IgnoreColorPrintERSoNS_8LogColorEPKcz
FNDA:1320,_ZN9benchmarkL10FormatTimeEd
FNDA:679,_ZN9benchmark15ConsoleReporter12PrintRunDataERKNS_17BenchmarkReporter3RunE
FNDA:44,_ZN9benchmark15ConsoleReporter13ReportContextERKNS_17BenchmarkReporter7ContextE
FNDA:46,_ZN9benchmark15ConsoleReporter11PrintHeaderERKNS_17BenchmarkReporter3RunE
FNDA:576,_ZN9benchmark15ConsoleReporter10ReportRunsERKSt6vectorINS_17BenchmarkReporter3RunESaIS3_EE
FNDA:2683,_ZN9benchmarkL16IgnoreColorPrintERSoNS_8LogColorEPKcz
FNF:6
FNH:6
DA:37,44
DA:38,44
DA:39,44
DA:40,44
DA:42,44
DA:53,44
DA:57,46
DA:59,46
DA:60,46
DA:61,46
DA:62,7
DA:63,15
DA:64,12
DA:67,4
DA:70,46
DA:71,46
DA:72,46
DA:75,576
DA:76,1255
DA:79,679
DA:82,795
DA:83,116
DA:84,679
DA:85,46
DA:86,46
DA:87,46
DA:92,679
DA:94,576
DA:96,2683
DA:99,2683
DA:100,2683
DA:101,2683
DA:102,2683
DA:104,1320
DA:109,1320
DA:110,75
DA:112,1245
DA:113,610
DA:115,635
DA:116,88
DA:120,547
DA:121,0
DA:123,547
DA:127,679
DA:129,679
DA:130,1358
DA:131,679
DA:133,679
DA:134,679
DA:135,679
DA:136,1358
DA:138,679
DA:139,19
DA:141,19
DA:142,19
DA:143,660
DA:144,0
DA:145,0
DA:146,0
DA:149,660
DA:150,660
DA:151,660
DA:152,660
DA:154,660
DA:155,11
DA:156,11
DA:158,660
DA:159,11
DA:161,638
DA:162,82
DA:163,617
DA:164,617
DA:166,617
DA:167,21
DA:168,21
DA:169,21
DA:170,21
DA:173,660
DA:174,638
DA:177,976
DA:179,316
DA:180,316
DA:181,316
DA:182,316
DA:183,68
DA:184,17
DA:185,17
DA:187,299
DA:188,299
DA:189,142
DA:191,316
DA:192,147
DA:195,169
DA:197,316
DA:199,660
DA:200,16
DA:203,660
DA:204,660
LF:98
LH:94
end_of_record
TN:
SF:/home/alex/labs3/build/_deps/googlebenchmark-src/src/counter.cc
FN:20,40,_ZN9benchmark8internal6FinishERKNS_7CounterEldd
FN:42,47,_ZN9benchmark8internal6FinishEPSt3mapINSt7__cxx1112basic_stringIcSt11char_traitsIcESaIcEEENS_7CounterESt4lessIS7_ESaISt4pairIKS7_S8_EEEldd
FN:49,64,_ZN9benchmark8internal9IncrementEPSt3mapINSt7__cxx1112basic_stringIcSt11char_traitsIcESaIcEEENS_7CounterESt4lessIS7_ESaISt4pairIKS7_S8_EEERKSF_
FN:66,77,_ZN9benchmark8internal9SameNamesERKSt3mapINSt7__cxx1112basic_stringIcSt11char_traitsIcESaIcEEENS_7CounterESt4lessIS7_ESaISt4pairIKS7_S8_EEESH_
FNDA:248,_ZN9benchmark8internal6FinishERKNS_7CounterEldd
FNDA:782,_ZN9benchmark8internal6FinishEPSt3mapINSt7__cxx1112basic_stringIcSt11char_traitsIcESaIcEEENS_7CounterESt4lessIS7_ESaISt4pairIKS7_S8_EEEldd
FNDA:5640,_ZN9benchmark8internal9IncrementEPSt3mapINSt7__cxx1112basic_stringIcSt11char_traitsIcESaIcEEENS_7CounterESt4lessIS7_ESaISt4pairIKS7_S8_EEERKSF_
FNDA:116,_ZN9benchmark8internal9SameNamesERKSt3mapINSt7__cxx1112basic_stringIcSt11char_traitsIcESaIcEEENS_7CounterESt4lessIS7_ESaISt4pairIKS7_S8_EEESH_
FNF:4
FNH:4
DA:20,248
DA:22,248
DA:23,248
DA:24,142
DA:26,248
DA:27,115
DA:29,248
DA:30,4
DA:32,248
DA:33,4
DA:36,248
DA:37,4
DA:39,248
DA:42,782
DA:44,1030
DA:45,248
DA:47,782
DA:49,5640
DA:51,8479
DA:52,2839
DA:53,2839
DA:54,8517
DA:58,9748
DA:59,4108
DA:60,4108
DA:61,1269
DA:64,5640
DA:66,116
DA:67,116
DA:68,116
DA:69,2
DA:71,249
DA:72,136
DA:73,1
DA:76,113
LF:35
LH:35
end_of_record
TN:
SF:/home/alex/labs3/build/_deps/googlebenchmark-src/src/csv_reporter.cc
FN:109,159,_ZN9benchmark11CSVReporter12PrintRunDataERKNS_17BenchmarkReporter3RunE
FN:39,53,_ZN9benchmark9CsvEscapeERKNSt7__cxx1112basic_stringIcSt11char_traitsIcESaIcEEE
FN:56,59,_ZN9benchmark11CSVReporter13ReportContextERKNS_17BenchmarkReporter7ContextE
FN:62,106,_ZN9benchmark11CSVReporter10ReportRunsERKSt6vectorINS_17BenchmarkReporter3RunESaIS3_EE
FNDA:271,_ZN9benchmark11CSVReporter12PrintRunDataERKNS_17BenchmarkReporter3RunE
FNDA:274,_ZN9benchmark9CsvEscapeERKNSt7__cxx1112basic_stringIcSt11char_traitsIcESaIcEEE
FNDA:8,_ZN9benchmark11CSVReporter13ReportContextERKNS_17BenchmarkReporter7ContextE
FNDA:203,_ZN9benchmark11CSVReporter10ReportRunsERKSt6vectorINS_17BenchmarkReporter3RunESaIS3_EE
FNF:4
FNH:4
DA:39,274
DA:40,274
DA:41,274
DA:42,9030
DA:43,8756
DA:44,2
DA:45,2
DA:46,2
DA:47,8754
DA:48,8754
DA:49,8754
DA:52,548
DA:53,274
DA:56,8
DA:57,8
DA:58,8
DA:62,203
DA:63,203
DA:65,203
DA:67,19
DA:68,36
DA:69,25
DA:70,0
DA:71,25
DA:76,96
DA:77,80
DA:78,80
DA:80,8
DA:81,22
DA:82,14
DA:84,8
DA:86,8
DA:89,455
DA:90,494
DA:91,234
DA:92,4
DA:93,690
DA:96,230
DA:97,460
DA:103,474
DA:104,271
DA:106,203
DA:109,271
DA:110,271
DA:111,271
DA:112,271
DA:113,2
DA:114,2
DA:115,2
DA:116,2
DA:120,269
DA:121,247
DA:123,269
DA:125,269
DA:126,269
DA:129,269
DA:130,11
DA:131,258
DA:132,247
DA:134,269
DA:136,807
DA:137,8
DA:139,269
DA:140,807
DA:141,8
DA:143,269
DA:144,269
DA:145,1
DA:147,269
DA:150,569
DA:151,300
DA:152,300
DA:153,45
DA:155,510
DA:158,269
LF:75
LH:74
end_of_record
TN:
SF:/home/alex/labs3/build/_deps/googlebenchmark-src/src/cycleclock.h
FNF:0
FNH:0
DA:84,0
DA:85,0
LF:2
LH:0
end_of_record
TN:
SF:/home/alex/labs3/build/_deps/googlebenchmark-src/src/json_reporter.cc
FN:106,106,_ZN9benchmark12_GLOBAL__N_111RoundDoubleEd
FN:110,192,_ZN9benchmark12JSONReporter13ReportContextERKNS_17BenchmarkReporter7ContextE
FN:194,214,_ZN9benchmark12JSONReporter10ReportRunsERKSt6vectorINS_17BenchmarkReporter3RunESaIS3_EE
FN:216,219,_ZN9benchmark12JSONReporter8FinalizeEv
FN:221,315,_ZN9benchmark12JSONReporter12PrintRunDataERKNS_17BenchmarkReporter3RunE
FN:230,238,_ZZN9benchmark12JSONReporter12PrintRunDataERKNS_17BenchmarkReporter3RunEENKUlvE_clEv
FN:247,255,_ZZN9benchmark12JSONReporter12PrintRunDataERKNS_17BenchmarkReporter3RunEENKUlvE0_clEv
FN:300,304,_ZZN9benchmark12JSONReporter12PrintRunDataERKNS_17BenchmarkReporter3RunEENKUlRKNSt7__cxx1112basic_stringIcSt11char_traitsIcESaIcEEElE_clESC_l
FN:33,65,_ZN9benchmark12_GLOBAL__N_19StrEscapeERKNSt7__cxx1112basic_stringIcSt11char_traitsIcESaIcEEE
FN:67,70,_ZN9benchmark12_GLOBAL__N_18FormatKVERKNSt7__cxx1112basic_stringIcSt11char_traitsIcESaIcEEES8_
FN:72,75,_ZN9benchmark12_GLOBAL__N_18FormatKVERKNSt7__cxx1112basic_stringIcSt11char_traitsIcESaIcEEEPKc
FN:77,80,_ZN9benchmark12_GLOBAL__N_18FormatKVERKNSt7__cxx1112basic_stringIcSt11char_traitsIcESaIcEEEb
FN:82,86,_ZN9benchmark12_GLOBAL__N_18FormatKVERKNSt7__cxx1112basic_stringIcSt11char_traitsIcESaIcEEEl
FN:88,104,_ZN9benchmark12_GLOBAL__N_18FormatKVERKNSt7__cxx1112basic_stringIcSt11char_traitsIcESaIcEEEd
FNDA:10,_ZN9benchmark12_GLOBAL__N_111RoundDoubleEd
FNDA:10,_ZN9benchmark12JSONReporter13ReportContextERKNS_17BenchmarkReporter7ContextE
FNDA:206,_ZN9benchmark12JSONReporter10ReportRunsERKSt6vectorINS_17BenchmarkReporter3RunESaIS3_EE
FNDA:10,_ZN9benchmark12JSONReporter8FinalizeEv
FNDA:282,_ZN9benchmark12JSONReporter12PrintRunDataERKNS_17BenchmarkReporter3RunE
FNDA:282,_ZZN9benchmark12JSONReporter12PrintRunDataERKNS_17BenchmarkReporter3RunEENKUlvE_clEv
FNDA:84,_ZZN9benchmark12JSONReporter12PrintRunDataERKNS_17BenchmarkReporter3RunEENKUlvE0_clEv
FNDA:2,_ZZN9benchmark12JSONReporter12PrintRunDataERKNS_17BenchmarkReporter3RunEENKUlRKNSt7__cxx1112basic_stringIcSt11char_traitsIcESaIcEEElE_clESC_l
FNDA:5310,_ZN9benchmark12_GLOBAL__N_19StrEscapeERKNSt7__cxx1112basic_stringIcSt11char_traitsIcESaIcEEE
FNDA:722,_ZN9benchmark12_GLOBAL__N_18FormatKVERKNSt7__cxx1112basic_stringIcSt11char_traitsIcESaIcEEES8_
FNDA:657,_ZN9benchmark12_GLOBAL__N_18FormatKVERKNSt7__cxx1112basic_stringIcSt11char_traitsIcESaIcEEEPKc
FNDA:12,_ZN9benchmark12_GLOBAL__N_18FormatKVERKNSt7__cxx1112basic_stringIcSt11char_traitsIcESaIcEEEb
FNDA:1727,_ZN9benchmark12_GLOBAL__N_18FormatKVERKNSt7__cxx1112basic_stringIcSt11char_traitsIcESaIcEEEl
FNDA:813,_ZN9benchmark12_GLOBAL__N_18FormatKVERKNSt7__cxx1112basic_stringIcSt11char_traitsIcESaIcEEEd
FNF:14
FNH:14
DA:33,5310
DA:34,5310
DA:35,5310
DA:36,68245
DA:37,62935
DA:38,0
DA:39,0
DA:40,0
DA:41,0
DA:42,0
DA:43,0
DA:44,0
DA:45,0
DA:46,0
DA:47,0
DA:48,0
DA:49,0
DA:50,0
DA:51,0
DA:52,0
DA:53,0
DA:54,0
DA:55,0
DA:56,2
DA:57,2
DA:58,2
DA:59,62933
DA:60,62933
DA:61,62933
DA:64,5310
DA:65,0
DA:67,722
DA:68,1444
DA:69,2166
DA:72,657
DA:73,1314
DA:74,2628
DA:77,12
DA:78,24
DA:79,36
DA:82,1727
DA:83,1727
DA:84,1727
DA:85,3454
DA:86,1727
DA:88,813
DA:89,813
DA:90,813
DA:92,813
DA:93,0
DA:94,813
DA:95,0
DA:97,813
DA:99,813
DA:100,813
DA:101,813
DA:103,1626
DA:104,813
DA:106,10
DA:110,10
DA:111,10
DA:113,10
DA:114,10
DA:117,10
DA:118,10
DA:120,10
DA:121,20
DA:123,20
DA:125,10
DA:126,30
DA:129,10
DA:130,20
DA:131,20
DA:133,20
DA:134,10
DA:135,20
DA:136,10
DA:138,30
DA:139,10
DA:140,20
DA:143,10
DA:144,20
DA:145,10
DA:146,50
DA:147,40
DA:148,40
DA:149,80
DA:150,80
DA:151,80
DA:152,80
DA:153,80
DA:155,80
DA:156,80
DA:157,40
DA:158,40
DA:159,40
DA:161,10
DA:162,10
DA:163,10
DA:164,50
DA:165,30
DA:166,30
DA:168,10
DA:173,10
DA:175,20
DA:178,10
DA:180,10
DA:181,0
DA:182,0
DA:183,0
DA:186,10
DA:189,10
DA:190,10
DA:191,10
DA:192,10
DA:194,206
DA:195,206
DA:196,0
DA:198,206
DA:199,206
DA:200,206
DA:201,196
DA:203,206
DA:205,488
DA:206,282
DA:207,282
DA:208,282
DA:209,282
DA:210,282
DA:211,76
DA:214,206
DA:216,10
DA:218,10
DA:219,10
DA:221,282
DA:222,282
DA:223,282
DA:224,846
DA:225,564
DA:227,564
DA:228,564
DA:229,846
DA:230,564
DA:231,282
DA:232,198
DA:233,198
DA:234,84
DA:235,84
DA:237,0
DA:238,564
DA:239,564
DA:240,282
DA:241,594
DA:242,396
DA:244,564
DA:245,282
DA:246,168
DA:247,252
DA:248,84
DA:249,57
DA:250,57
DA:251,27
DA:252,27
DA:254,0
DA:255,168
DA:257,282
DA:258,4
DA:259,6
DA:260,280
DA:261,0
DA:262,0
DA:264,282
DA:265,520
DA:266,260
DA:267,62
DA:268,732
DA:269,488
DA:270,732
DA:272,16
DA:273,32
DA:274,32
DA:275,48
DA:278,780
DA:279,22
DA:280,33
DA:281,22
DA:282,33
DA:283,22
DA:284,33
DA:285,33
DA:286,11
DA:287,33
DA:290,541
DA:291,518
DA:294,282
DA:295,1
DA:296,2
DA:298,2
DA:300,2
DA:302,2
DA:303,0
DA:304,2
DA:306,1
DA:307,1
DA:308,3
DA:311,282
DA:312,3
DA:314,282
DA:315,282
LF:209
LH:179
end_of_record
TN:
SF:/home/alex/labs3/build/_deps/googlebenchmark-src/src/log.h
FN:29,29,_ZN9benchmark8internal7LogTypeC2EPSo
FN:44,49,_ZN9benchmark8internallsIA107_cEERNS0_7LogTypeES4_RKT_
FN:44,49,_ZN9benchmark8internallsIA10_cEERNS0_7LogTypeES4_RKT_
FN:44,49,_ZN9benchmark8internallsIA11_cEERNS0_7LogTypeES4_RKT_
FN:44,49,_ZN9benchmark8internallsIA12_cEERNS0_7LogTypeES4_RKT_
FN:44,49,_ZN9benchmark8internallsIA13_cEERNS0_7LogTypeES4_RKT_
FN:44,49,_ZN9benchmark8internallsIA14_cEERNS0_7LogTypeES4_RKT_
FN:44,49,_ZN9benchmark8internallsIA15_cEERNS0_7LogTypeES4_RKT_
FN:44,49,_ZN9benchmark8internallsIA16_cEERNS0_7LogTypeES4_RKT_
FN:44,49,_ZN9benchmark8internallsIA17_cEERNS0_7LogTypeES4_RKT_
FN:44,49,_ZN9benchmark8internallsIA18_cEERNS0_7LogTypeES4_RKT_
FN:44,49,_ZN9benchmark8internallsIA19_cEERNS0_7LogTypeES4_RKT_
FN:44,49,_ZN9benchmark8internallsIA20_cEERNS0_7LogTypeES4_RKT_
FN:44,49,_ZN9benchmark8internallsIA21_cEERNS0_7LogTypeES4_RKT_
FN:44,49,_ZN9benchmark8internallsIA22_cEERNS0_7LogTypeES4_RKT_
FN:44,49,_ZN9benchmark8internallsIA25_cEERNS0_7LogTypeES4_RKT_
FN:44,49,_ZN9benchmark8internallsIA27_cEERNS0_7LogTypeES4_RKT_
FN:44,49,_ZN9benchmark8internallsIA28_cEERNS0_7LogTypeES4_RKT_
FN:44,49,_ZN9benchmark8internallsIA29_cEERNS0_7LogTypeES4_RKT_
FN:44,49,_ZN9benchmark8internallsIA2_cEERNS0_7LogTypeES4_RKT_
FN:44,49,_ZN9benchmark8internallsIA30_cEERNS0_7LogTypeES4_RKT_
FN:44,49,_ZN9benchmark8internallsIA34_cEERNS0_7LogTypeES4_RKT_
FN:44,49,_ZN9benchmark8internallsIA35_cEERNS0_7LogTypeES4_RKT_
FN:44,49,_ZN9benchmark8internallsIA36_cEERNS0_7LogTypeES4_RKT_
FN:44,49,_ZN9benchmark8internallsIA37_cEERNS0_7LogTypeES4_RKT_
FN:44,49,_ZN9benchmark8internallsIA39_cEERNS0_7LogTypeES4_RKT_
FN:44,49,_ZN9benchmark8internallsIA3_cEERNS0_7LogTypeES4_RKT_
FN:44,49,_ZN9benchmark8internallsIA43_cEERNS0_7LogTypeES4_RKT_
FN:44,49,_ZN9benchmark8internallsIA45_cEERNS0_7LogTypeES4_RKT_
FN:44,49,_ZN9benchmark8internallsIA47_cEERNS0_7LogTypeES4_RKT_
FN:44,49,_ZN9benchmark8internallsIA4_cEERNS0_7LogTypeES4_RKT_
FN:44,49,_ZN9benchmark8internallsIA50_cEERNS0_7LogTypeES4_RKT_
FN:44,49,_ZN9benchmark8internallsIA51_cEERNS0_7LogTypeES4_RKT_
FN:44,49,_ZN9benchmark8internallsIA54_cEERNS0_7LogTypeES4_RKT_
FN:44,49,_ZN9benchmark8internallsIA56_cEERNS0_7LogTypeES4_RKT_
FN:44,49,_ZN9benchmark8internallsIA57_cEERNS0_7LogTypeES4_RKT_
FN:44,49,_ZN9benchmark8internallsIA58_cEERNS0_7LogTypeES4_RKT_
FN:44,49,_ZN9benchmark8internallsIA5_cEERNS0_7LogTypeES4_RKT_
FN:44,49,_ZN9benchmark8internallsIA63_cEERNS0_7LogTypeES4_RKT_
FN:44,49,_ZN9benchmark8internallsIA6_cEERNS0_7LogTypeES4_RKT_
FN:44,49,_ZN9benchmark8internallsIA76_cEERNS0_7LogTypeES4_RKT_
FN:44,49,_ZN9benchmark8internallsIA7_cEERNS0_7LogTypeES4_RKT_
FN:44,49,_ZN9benchmark8internallsIA84_cEERNS0_7LogTypeES4_RKT_
FN:44,49,_ZN9benchmark8internallsIA86_cEERNS0_7LogTypeES4_RKT_
FN:44,49,_ZN9benchmark8internallsIA8_cEERNS0_7LogTypeES4_RKT_
FN:44,49,_ZN9benchmark8internallsIA9_cEERNS0_7LogTypeES4_RKT_
FN:44,49,_ZN9benchmark8internallsINSt7__cxx1112basic_stringIcSt11char_traitsIcESaIcEEEEERNS0_7LogTypeES9_RKT_
FN:44,49,_ZN9benchmark8internallsIPKcEERNS0_7LogTypeES5_RKT_
FN:44,49,_ZN9benchmark8internallsIdEERNS0_7LogTypeES3_RKT_
FN:44,49,_ZN9benchmark8internallsIiEERNS0_7LogTypeES3_RKT_
FN:44,49,_ZN9benchmark8internallsIlEERNS0_7LogTypeES3_RKT_
FN:44,49,_ZN9benchmark8internallsImEERNS0_7LogTypeES3_RKT_
FN:51,56,_ZN9benchmark8internallsERNS0_7LogTypeEPFRSoS3_E
FN:58,61,_ZN9benchmark8internal8LogLevelEv
FN:63,66,_ZN9benchmark8internal18GetNullLogInstanceEv
FN:68,71,_ZN9benchmark8internal19GetErrorLogInstanceEv
FN:73,78,_ZN9benchmark8internal22GetLogInstanceForLevelEi
FNDA:68,_ZN9benchmark8internal7LogTypeC2EPSo
FNDA:0,_ZN9benchmark8internallsIA107_cEERNS0_7LogTypeES4_RKT_
FNDA:48,_ZN9benchmark8internallsIA10_cEERNS0_7LogTypeES4_RKT_
FNDA:161,_ZN9benchmark8internallsIA11_cEERNS0_7LogTypeES4_RKT_
FNDA:0,_ZN9benchmark8internallsIA12_cEERNS0_7LogTypeES4_RKT_
FNDA:2435,_ZN9benchmark8internallsIA13_cEERNS0_7LogTypeES4_RKT_
FNDA:153,_ZN9benchmark8internallsIA14_cEERNS0_7LogTypeES4_RKT_
FNDA:117,_ZN9benchmark8internallsIA15_cEERNS0_7LogTypeES4_RKT_
FNDA:2692,_ZN9benchmark8internallsIA16_cEERNS0_7LogTypeES4_RKT_
FNDA:1852,_ZN9benchmark8internallsIA17_cEERNS0_7LogTypeES4_RKT_
FNDA:1850,_ZN9benchmark8internallsIA18_cEERNS0_7LogTypeES4_RKT_
FNDA:2484,_ZN9benchmark8internallsIA19_cEERNS0_7LogTypeES4_RKT_
FNDA:399,_ZN9benchmark8internallsIA20_cEERNS0_7LogTypeES4_RKT_
FNDA:177,_ZN9benchmark8internallsIA21_cEERNS0_7LogTypeES4_RKT_
FNDA:2,_ZN9benchmark8internallsIA22_cEERNS0_7LogTypeES4_RKT_
FNDA:0,_ZN9benchmark8internallsIA25_cEERNS0_7LogTypeES4_RKT_
FNDA:2486,_ZN9benchmark8internallsIA27_cEERNS0_7LogTypeES4_RKT_
FNDA:1925,_ZN9benchmark8internallsIA28_cEERNS0_7LogTypeES4_RKT_
FNDA:2486,_ZN9benchmark8internallsIA29_cEERNS0_7LogTypeES4_RKT_
FNDA:22259,_ZN9benchmark8internallsIA2_cEERNS0_7LogTypeES4_RKT_
FNDA:0,_ZN9benchmark8internallsIA30_cEERNS0_7LogTypeES4_RKT_
FNDA:38,_ZN9benchmark8internallsIA34_cEERNS0_7LogTypeES4_RKT_
FNDA:5671,_ZN9benchmark8internallsIA35_cEERNS0_7LogTypeES4_RKT_
FNDA:0,_ZN9benchmark8internallsIA36_cEERNS0_7LogTypeES4_RKT_
FNDA:0,_ZN9benchmark8internallsIA37_cEERNS0_7LogTypeES4_RKT_
FNDA:5743,_ZN9benchmark8internallsIA39_cEERNS0_7LogTypeES4_RKT_
FNDA:3162,_ZN9benchmark8internallsIA3_cEERNS0_7LogTypeES4_RKT_
FNDA:791,_ZN9benchmark8internallsIA43_cEERNS0_7LogTypeES4_RKT_
FNDA:1,_ZN9benchmark8internallsIA45_cEERNS0_7LogTypeES4_RKT_
FNDA:0,_ZN9benchmark8internallsIA47_cEERNS0_7LogTypeES4_RKT_
FNDA:9721,_ZN9benchmark8internallsIA4_cEERNS0_7LogTypeES4_RKT_
FNDA:24,_ZN9benchmark8internallsIA50_cEERNS0_7LogTypeES4_RKT_
FNDA:230,_ZN9benchmark8internallsIA51_cEERNS0_7LogTypeES4_RKT_
FNDA:6,_ZN9benchmark8internallsIA54_cEERNS0_7LogTypeES4_RKT_
FNDA:1,_ZN9benchmark8internallsIA56_cEERNS0_7LogTypeES4_RKT_
FNDA:32,_ZN9benchmark8internallsIA57_cEERNS0_7LogTypeES4_RKT_
FNDA:561,_ZN9benchmark8internallsIA58_cEERNS0_7LogTypeES4_RKT_
FNDA:93,_ZN9benchmark8internallsIA5_cEERNS0_7LogTypeES4_RKT_
FNDA:5496,_ZN9benchmark8internallsIA63_cEERNS0_7LogTypeES4_RKT_
FNDA:3277,_ZN9benchmark8internallsIA6_cEERNS0_7LogTypeES4_RKT_
FNDA:113,_ZN9benchmark8internallsIA76_cEERNS0_7LogTypeES4_RKT_
FNDA:116,_ZN9benchmark8internallsIA7_cEERNS0_7LogTypeES4_RKT_
FNDA:228,_ZN9benchmark8internallsIA84_cEERNS0_7LogTypeES4_RKT_
FNDA:32,_ZN9benchmark8internallsIA86_cEERNS0_7LogTypeES4_RKT_
FNDA:12789,_ZN9benchmark8internallsIA8_cEERNS0_7LogTypeES4_RKT_
FNDA:3237,_ZN9benchmark8internallsIA9_cEERNS0_7LogTypeES4_RKT_
FNDA:20777,_ZN9benchmark8internallsINSt7__cxx1112basic_stringIcSt11char_traitsIcESaIcEEEEERNS0_7LogTypeES9_RKT_
FNDA:24,_ZN9benchmark8internallsIPKcEERNS0_7LogTypeES5_RKT_
FNDA:9288,_ZN9benchmark8internallsIdEERNS0_7LogTypeES3_RKT_
FNDA:10067,_ZN9benchmark8internallsIiEERNS0_7LogTypeES3_RKT_
FNDA:5672,_ZN9benchmark8internallsIlEERNS0_7LogTypeES3_RKT_
FNDA:0,_ZN9benchmark8internallsImEERNS0_7LogTypeES3_RKT_
FNDA:8,_ZN9benchmark8internallsERNS0_7LogTypeEPFRSoS3_E
FNDA:9566,_ZN9benchmark8internal8LogLevelEv
FNDA:993392,_ZN9benchmark8internal18GetNullLogInstanceEv
FNDA:10,_ZN9benchmark8internal19GetErrorLogInstanceEv
FNDA:9501,_ZN9benchmark8internal22GetLogInstanceForLevelEi
FNF:57
FNH:49
DA:29,68
DA:44,138716
DA:45,138716
DA:46,72
DA:48,138723
DA:51,8
DA:52,8
DA:53,8
DA:55,8
DA:58,9566
DA:60,9566
DA:63,993392
DA:64,993392
DA:65,993827
DA:68,10
DA:69,10
DA:70,10
DA:73,9501
DA:74,9501
DA:75,2
DA:77,9499
LF:21
LH:21
end_of_record
TN:
SF:/home/alex/labs3/build/_deps/googlebenchmark-src/src/mutex.h
FN:101,101,_ZN9benchmark7BarrierC2Ei
FN:104,112,_ZN9benchmark7Barrier4waitEv
FN:114,118,_ZN9benchmark7Barrier12removeThreadEv
FN:132,150,_ZN9benchmark7Barrier13createBarrierERNS_9MutexLockE
FN:138,141,_ZZN9benchmark7Barrier13createBarrierERNS_9MutexLockEENKUlvE_clEv
FN:77,77,_ZN9benchmark5MutexC2Ev
FN:81,81,_ZN9benchmark5Mutex13native_handleEv
FN:91,91,_ZN9benchmark9MutexLockC2ERNS_5MutexE
FN:92,92,_ZN9benchmark9MutexLockD2Ev
FN:93,93,_ZN9benchmark9MutexLock13native_handleEv
FNDA:3238,_ZN9benchmark7BarrierC2Ei
FNDA:11180,_ZN9benchmark7Barrier4waitEv
FNDA:5635,_ZN9benchmark7Barrier12removeThreadEv
FNDA:11277,_ZN9benchmark7Barrier13createBarrierERNS_9MutexLockE
FNDA:9608,_ZZN9benchmark7Barrier13createBarrierERNS_9MutexLockEENKUlvE_clEv
FNDA:9780,_ZN9benchmark5MutexC2Ev
FNDA:32560,_ZN9benchmark5Mutex13native_handleEv
FNDA:32543,_ZN9benchmark9MutexLockC2ERNS_5MutexE
FNDA:32816,_ZN9benchmark9MutexLockD2Ev
FNDA:8042,_ZN9benchmark9MutexLock13native_handleEv
FNF:10
FNH:10
DA:77,9780
DA:81,32560
DA:91,32543
DA:92,32816
DA:93,8042
DA:101,3238
DA:104,11180
DA:105,11180
DA:107,11180
DA:108,11277
DA:109,11277
DA:110,11250
DA:111,11241
DA:114,5635
DA:115,5635
DA:116,5640
DA:117,5640
DA:118,5640
DA:132,11277
DA:133,11277
DA:134,11277
DA:135,11277
DA:137,4804
DA:138,9608
DA:139,14412
DA:140,14412
DA:141,4804
DA:142,4804
DA:143,4804
DA:147,6473
DA:148,6473
DA:149,6473
LF:32
LH:32
end_of_record
TN:
SF:/home/alex/labs3/build/_deps/googlebenchmark-src/src/perf_counters.cc
FN:246,246,_ZN9benchmark8internal17PerfCounterValues4ReadERKSt6vectorIiSaIiEE
FN:250,250,_ZN9benchmark8internal12PerfCounters10InitializeEv
FN:252,252,_ZN9benchmark8internal12PerfCounters18IsCounterSupportedERKNSt7__cxx1112basic_stringIcSt11char_traitsIcESaIcEEE
FN:254,260,_ZN9benchmark8internal12PerfCounters6CreateERKSt6vectorINSt7__cxx1112basic_stringIcSt11char_traitsIcESaIcEEESaIS8_EE
FN:262,262,_ZNK9benchmark8internal12PerfCounters13CloseCountersEv
FN:265,269,_ZN9benchmark8internal23PerfCountersMeasurementC2ERKSt6vectorINSt7__cxx1112basic_stringIcSt11char_traitsIcESaIcEEESaIS8_EE
FN:271,280,_ZN9benchmark8internal12PerfCountersaSEOS1_
FNDA:0,_ZN9benchmark8internal17PerfCounterValues4ReadERKSt6vectorIiSaIiEE
FNDA:2,_ZN9benchmark8internal12PerfCounters10InitializeEv
FNDA:0,_ZN9benchmark8internal12PerfCounters18IsCounterSupportedERKNSt7__cxx1112basic_stringIcSt11char_traitsIcESaIcEEE
FNDA:47,_ZN9benchmark8internal12PerfCounters6CreateERKSt6vectorINSt7__cxx1112basic_stringIcSt11char_traitsIcESaIcEEESaIS8_EE
FNDA:141,_ZNK9benchmark8internal12PerfCounters13CloseCountersEv
FNDA:47,_ZN9benchmark8internal23PerfCountersMeasurementC2ERKSt6vectorINSt7__cxx1112basic_stringIcSt11char_traitsIcESaIcEEESaIS8_EE
FNDA:47,_ZN9benchmark8internal12PerfCountersaSEOS1_
FNF:7
FNH:5
DA:246,0
DA:250,2
DA:252,0
DA:254,47
DA:256,47
DA:257,0
DA:259,47
DA:262,141
DA:265,47
DA:266,47
DA:267,47
DA:268,47
DA:269,47
DA:271,47
DA:272,47
DA:273,47
DA:275,47
DA:276,47
DA:277,47
DA:279,47
LF:20
LH:17
end_of_record
TN:
SF:/home/alex/labs3/build/_deps/googlebenchmark-src/src/perf_counters.h
FN:131,131,_ZNK9benchmark8internal12PerfCounters5namesB5cxx11Ev
FN:132,132,_ZNK9benchmark8internal12PerfCounters12num_countersEv
FN:153,153,_ZNK9benchmark8internal23PerfCountersMeasurement12num_countersEv
FN:155,155,_ZNK9benchmark8internal23PerfCountersMeasurement5namesB5cxx11Ev
FN:53,55,_ZN9benchmark8internal17PerfCounterValuesC2Em
FN:58,58,_ZNK9benchmark8internal17PerfCounterValuesixEm
FN:94,94,_ZN9benchmark8internal12PerfCounters10NoCountersEv
FN:96,96,_ZN9benchmark8internal12PerfCountersD2Ev
FN:97,97,_ZN9benchmark8internal12PerfCountersC2Ev
FNDA:5635,_ZNK9benchmark8internal12PerfCounters5namesB5cxx11Ev
FNDA:626214,_ZNK9benchmark8internal12PerfCounters12num_countersEv
FNDA:625325,_ZNK9benchmark8internal23PerfCountersMeasurement12num_countersEv
FNDA:5636,_ZNK9benchmark8internal23PerfCountersMeasurement5namesB5cxx11Ev
FNDA:94,_ZN9benchmark8internal17PerfCounterValuesC2Em
FNDA:0,_ZNK9benchmark8internal17PerfCounterValuesixEm
FNDA:47,_ZN9benchmark8internal12PerfCounters10NoCountersEv
FNDA:94,_ZN9benchmark8internal12PerfCountersD2Ev
FNDA:94,_ZN9benchmark8internal12PerfCountersC2Ev
FNF:9
FNH:8
DA:53,94
DA:54,94
DA:55,94
DA:58,0
DA:94,47
DA:96,94
DA:97,94
DA:123,0
DA:124,0
DA:131,5635
DA:132,626214
DA:153,625325
DA:155,5636
DA:158,321022
DA:162,0
DA:165,0
DA:170,316204
DA:174,0
DA:177,0
DA:178,0
DA:179,0
DA:180,0
DA:183,0
LF:23
LH:12
end_of_record
TN:
SF:/home/alex/labs3/build/_deps/googlebenchmark-src/src/re.h
FN:109,109,_ZN9benchmark5RegexD2Ev
FN:111,116,_ZN9benchmark5Regex5MatchERKNSt7__cxx1112basic_stringIcSt11char_traitsIcESaIcEEE
FN:63,63,_ZN9benchmark5RegexC2Ev
FN:90,107,_ZN9benchmark5Regex4InitERKNSt7__cxx1112basic_stringIcSt11char_traitsIcESaIcEEEPS6_
FNDA:1919,_ZN9benchmark5RegexD2Ev
FNDA:5587,_ZN9benchmark5Regex5MatchERKNSt7__cxx1112basic_stringIcSt11char_traitsIcESaIcEEE
FNDA:1919,_ZN9benchmark5RegexC2Ev
FNDA:1919,_ZN9benchmark5Regex4InitERKNSt7__cxx1112basic_stringIcSt11char_traitsIcESaIcEEEPS6_
FNF:4
FNH:4
DA:63,1919
DA:90,1919
DA:96,1919
DA:97,1919
DA:100,0
DA:101,0
DA:102,0
DA:104,0
DA:106,1919
DA:109,1919
DA:111,5587
DA:112,5587
DA:113,0
DA:115,5587
LF:14
LH:9
end_of_record
TN:
SF:/home/alex/labs3/build/_deps/googlebenchmark-src/src/reporter.cc
FN:106,110,_ZNK9benchmark17BenchmarkReporter3Run19GetAdjustedRealTimeEv
FN:112,116,_ZNK9benchmark17BenchmarkReporter3Run18GetAdjustedCPUTimeEv
FN:29,30,_ZN9benchmark17BenchmarkReporterC2Ev
FN:32,32,_ZN9benchmark17BenchmarkReporterD0Ev
FN:32,32,_ZN9benchmark17BenchmarkReporterD2Ev
FN:34,90,_ZN9benchmark17BenchmarkReporter17PrintBasicContextEPSoRKNS0_7ContextE
FN:95,96,_ZN9benchmark17BenchmarkReporter7ContextC2Ev
FN:98,104,_ZNK9benchmark17BenchmarkReporter3Run14benchmark_nameB5cxx11Ev
FNDA:1184,_ZNK9benchmark17BenchmarkReporter3Run19GetAdjustedRealTimeEv
FNDA:1195,_ZNK9benchmark17BenchmarkReporter3Run18GetAdjustedCPUTimeEv
FNDA:94,_ZN9benchmark17BenchmarkReporterC2Ev
FNDA:0,_ZN9benchmark17BenchmarkReporterD0Ev
FNDA:94,_ZN9benchmark17BenchmarkReporterD2Ev
FNDA:52,_ZN9benchmark17BenchmarkReporter17PrintBasicContextEPSoRKNS0_7ContextE
FNDA:47,_ZN9benchmark17BenchmarkReporter7ContextC2Ev
FNDA:1828,_ZNK9benchmark17BenchmarkReporter3Run14benchmark_nameB5cxx11Ev
FNF:8
FNH:7
DA:29,94
DA:30,94
DA:32,94
DA:34,52
DA:36,52
DA:37,52
DA:42,52
DA:45,52
DA:46,52
DA:48,52
DA:49,52
DA:50,52
DA:51,52
DA:52,52
DA:53,52
DA:54,260
DA:55,208
DA:56,208
DA:57,208
DA:58,208
DA:59,208
DA:62,52
DA:63,52
DA:64,260
DA:65,156
DA:66,156
DA:68,52
DA:72,52
DA:74,52
DA:75,0
DA:76,0
DA:80,52
DA:83,52
DA:88,52
DA:90,52
DA:95,47
DA:96,47
DA:98,1828
DA:99,1828
DA:100,1828
DA:101,264
DA:103,1828
DA:104,0
DA:106,1184
DA:107,1184
DA:108,1184
DA:109,1184
DA:112,1195
DA:113,1195
DA:114,1195
DA:115,1195
LF:51
LH:48
end_of_record
TN:
SF:/home/alex/labs3/build/_deps/googlebenchmark-src/src/statistics.cc
FN:29,31,_ZNK9benchmark13StatisticsSumMUlRKSt6vectorIdSaIdEEE_clES5_
FN:33,36,_ZN9benchmark14StatisticsMeanERKSt6vectorIdSaIdEE
FN:38,53,_ZN9benchmark16StatisticsMedianERKSt6vectorIdSaIdEE
FN:56,58,_ZNK9benchmark10SumSquaresMUlRKSt6vectorIdSaIdEEE_clES5_
FN:60,60,_ZNK9benchmark3SqrMUldE_clEd
FN:61,65,_ZNK9benchmark4SqrtMUldE_clEd
FN:67,76,_ZN9benchmark16StatisticsStdDevERKSt6vectorIdSaIdEE
FN:78,85,_ZN9benchmark12StatisticsCVERKSt6vectorIdSaIdEE
FN:87,207,_ZN9benchmark12ComputeStatsERKSt6vectorINS_17BenchmarkReporter3RunESaIS2_EE
FN:93,93,_ZZN9benchmark12ComputeStatsERKSt6vectorINS_17BenchmarkReporter3RunESaIS2_EEENKUlRKS2_E_clES8_
FNDA:305,_ZNK9benchmark13StatisticsSumMUlRKSt6vectorIdSaIdEEE_clES5_
FNDA:305,_ZN9benchmark14StatisticsMeanERKSt6vectorIdSaIdEE
FNDA:68,_ZN9benchmark16StatisticsMedianERKSt6vectorIdSaIdEE
FNDA:136,_ZNK9benchmark10SumSquaresMUlRKSt6vectorIdSaIdEEE_clES5_
FNDA:136,_ZNK9benchmark3SqrMUldE_clEd
FNDA:136,_ZNK9benchmark4SqrtMUldE_clEd
FNDA:136,_ZN9benchmark16StatisticsStdDevERKSt6vectorIdSaIdEE
FNDA:68,_ZN9benchmark12StatisticsCVERKSt6vectorIdSaIdEE
FNDA:562,_ZN9benchmark12ComputeStatsERKSt6vectorINS_17BenchmarkReporter3RunESaIS2_EE
FNDA:801,_ZZN9benchmark12ComputeStatsERKSt6vectorINS_17BenchmarkReporter3RunESaIS2_EEENKUlRKS2_E_clES8_
FNF:10
FNH:10
DA:29,305
DA:30,305
DA:33,305
DA:34,305
DA:35,305
DA:38,68
DA:39,68
DA:40,35
DA:42,35
DA:43,35
DA:50,35
DA:51,16
DA:52,16
DA:53,35
DA:56,136
DA:57,136
DA:60,136
DA:61,136
DA:63,136
DA:64,136
DA:67,136
DA:68,136
DA:69,136
DA:72,136
DA:74,136
DA:75,136
DA:78,68
DA:79,68
DA:81,68
DA:82,68
DA:84,68
DA:87,562
DA:90,562
DA:92,562
DA:93,801
DA:95,562
DA:97,538
DA:101,24
DA:102,24
DA:104,24
DA:105,24
DA:109,24
DA:115,24
DA:116,287
DA:117,297
DA:118,34
DA:119,34
DA:120,17
DA:121,17
DA:122,34
DA:124,17
DA:126,17
DA:132,287
DA:133,263
DA:134,263
DA:135,263
DA:136,263
DA:137,263
DA:139,297
DA:140,34
DA:141,34
DA:142,34
DA:147,24
DA:148,263
DA:149,239
DA:150,0
DA:151,0
DA:156,24
DA:158,122
DA:160,98
DA:161,98
DA:162,98
DA:163,98
DA:164,98
DA:165,98
DA:166,98
DA:167,98
DA:168,98
DA:169,98
DA:170,98
DA:177,98
DA:179,98
DA:180,98
DA:182,98
DA:188,73
DA:189,73
DA:192,98
DA:195,166
DA:197,68
DA:198,136
DA:199,68
DA:200,68
DA:203,98
DA:204,98
DA:206,24
DA:207,24
LF:96
LH:94
end_of_record
TN:
SF:/home/alex/labs3/build/_deps/googlebenchmark-src/src/string_util.cc
FN:101,109,_ZN9benchmark12_GLOBAL__N_128ToBinaryStringFullySpecifiedEdiNS_7Counter4OneKE
FN:111,139,_ZN9benchmark12_GLOBAL__N_112StrFormatImpEPKcP13__va_list_tag
FN:143,145,_ZN9benchmark19HumanReadableNumberB5cxx11EdNS_7Counter4OneKE
FN:147,153,_ZN9benchmark9StrFormatB5cxx11EPKcz
FN:155,166,_ZN9benchmark8StrSplitERKNSt7__cxx1112basic_stringIcSt11char_traitsIcESaIcEEEc
FN:34,87,_ZN9benchmark12_GLOBAL__N_121ToExponentAndMantissaEdidPNSt7__cxx1112basic_stringIcSt11char_traitsIcESaIcEEEPl
FN:89,99,_ZN9benchmark12_GLOBAL__N_116ExponentToPrefixElb
FNDA:315,_ZN9benchmark12_GLOBAL__N_128ToBinaryStringFullySpecifiedEdiNS_7Counter4OneKE
FNDA:2591,_ZN9benchmark12_GLOBAL__N_112StrFormatImpEPKcP13__va_list_tag
FNDA:315,_ZN9benchmark19HumanReadableNumberB5cxx11EdNS_7Counter4OneKE
FNDA:2591,_ZN9benchmark9StrFormatB5cxx11EPKcz
FNDA:57,_ZN9benchmark8StrSplitERKNSt7__cxx1112basic_stringIcSt11char_traitsIcESaIcEEEc
FNDA:315,_ZN9benchmark12_GLOBAL__N_121ToExponentAndMantissaEdidPNSt7__cxx1112basic_stringIcSt11char_traitsIcESaIcEEEPl
FNDA:315,_ZN9benchmark12_GLOBAL__N_116ExponentToPrefixElb
FNF:7
FNH:7
DA:34,315
DA:36,315
DA:38,315
DA:39,0
DA:40,0
DA:46,315
DA:47,315
DA:48,315
DA:50,315
DA:52,315
DA:54,105
DA:55,178
DA:56,178
DA:57,178
DA:58,105
DA:59,105
DA:60,105
DA:61,105
DA:64,0
DA:65,0
DA:66,210
DA:68,26
DA:69,25
DA:70,185
DA:71,166
DA:72,166
DA:73,6
DA:74,6
DA:75,6
DA:76,6
DA:80,20
DA:81,20
DA:83,184
DA:84,184
DA:86,204
DA:87,315
DA:89,315
DA:90,723
DA:92,111
DA:93,111
DA:95,111
DA:98,222
DA:101,315
DA:103,315
DA:105,315
DA:108,630
DA:109,315
DA:111,2591
DA:114,2591
DA:122,2591
DA:124,2591
DA:127,2591
DA:128,5182
DA:129,5182
DA:133,0
DA:134,0
DA:137,0
DA:138,0
DA:139,0
DA:143,315
DA:144,315
DA:147,2591
DA:149,2591
DA:150,2591
DA:151,2591
DA:152,5182
DA:155,57
DA:156,57
DA:157,9
DA:158,9
DA:159,9
DA:160,16
DA:161,7
DA:162,7
DA:164,9
DA:165,9
DA:166,9
LF:77
LH:68
end_of_record
TN:
SF:/home/alex/labs3/build/_deps/googlebenchmark-src/src/string_util.h
FN:28,30,_ZN9benchmark9StrCatImpERSo
FN:33,36,_ZN9benchmark9StrCatImpIRA15_KcJEEERSoS4_OT_DpOT0_
FN:33,36,_ZN9benchmark9StrCatImpIRA26_KcJEEERSoS4_OT_DpOT0_
FN:33,36,_ZN9benchmark9StrCatImpIRA28_KcJRiRA26_S1_EEERSoS7_OT_DpOT0_
FN:33,36,_ZN9benchmark9StrCatImpIRA2_KcJEEERSoS4_OT_DpOT0_
FN:33,36,_ZN9benchmark9StrCatImpIRA5_KcJEEERSoS4_OT_DpOT0_
FN:33,36,_ZN9benchmark9StrCatImpIRA6_KcJEEERSoS4_OT_DpOT0_
FN:33,36,_ZN9benchmark9StrCatImpIRA6_KcJiRA2_S1_EEERSoS6_OT_DpOT0_
FN:33,36,_ZN9benchmark9StrCatImpIRNSt7__cxx1112basic_stringIcSt11char_traitsIcESaIcEEEJRA15_KcEEERSoSB_OT_DpOT0_
FN:33,36,_ZN9benchmark9StrCatImpIRNSt7__cxx1112basic_stringIcSt11char_traitsIcESaIcEEEJRA5_KcEEERSoSB_OT_DpOT0_
FN:33,36,_ZN9benchmark9StrCatImpIRNSt7__cxx1112basic_stringIcSt11char_traitsIcESaIcEEEJRA6_KcEEERSoSB_OT_DpOT0_
FN:33,36,_ZN9benchmark9StrCatImpIRNSt7__cxx1112basic_stringIcSt11char_traitsIcESaIcEEEJRA6_KciRA2_S8_EEERSoSD_OT_DpOT0_
FN:33,36,_ZN9benchmark9StrCatImpIRiJRA26_KcEEERSoS5_OT_DpOT0_
FN:33,36,_ZN9benchmark9StrCatImpIiJRA2_KcEEERSoS4_OT_DpOT0_
FN:39,43,_ZN9benchmark6StrCatIJRA28_KcRiRA26_S1_EEENSt7__cxx1112basic_stringIcSt11char_traitsIcESaIcEEEDpOT_
FN:39,43,_ZN9benchmark6StrCatIJRNSt7__cxx1112basic_stringIcSt11char_traitsIcESaIcEEERA15_KcEEES6_DpOT_
FN:39,43,_ZN9benchmark6StrCatIJRNSt7__cxx1112basic_stringIcSt11char_traitsIcESaIcEEERA5_KcEEES6_DpOT_
FN:39,43,_ZN9benchmark6StrCatIJRNSt7__cxx1112basic_stringIcSt11char_traitsIcESaIcEEERA6_KcEEES6_DpOT_
FN:39,43,_ZN9benchmark6StrCatIJRNSt7__cxx1112basic_stringIcSt11char_traitsIcESaIcEEERA6_KciRA2_S8_EEES6_DpOT_
FNDA:989,_ZN9benchmark9StrCatImpERSo
FNDA:172,_ZN9benchmark9StrCatImpIRA15_KcJEEERSoS4_OT_DpOT0_
FNDA:43,_ZN9benchmark9StrCatImpIRA26_KcJEEERSoS4_OT_DpOT0_
FNDA:43,_ZN9benchmark9StrCatImpIRA28_KcJRiRA26_S1_EEERSoS7_OT_DpOT0_
FNDA:215,_ZN9benchmark9StrCatImpIRA2_KcJEEERSoS4_OT_DpOT0_
FNDA:387,_ZN9benchmark9StrCatImpIRA5_KcJEEERSoS4_OT_DpOT0_
FNDA:172,_ZN9benchmark9StrCatImpIRA6_KcJEEERSoS4_OT_DpOT0_
FNDA:215,_ZN9benchmark9StrCatImpIRA6_KcJiRA2_S1_EEERSoS6_OT_DpOT0_
FNDA:172,_ZN9benchmark9StrCatImpIRNSt7__cxx1112basic_stringIcSt11char_traitsIcESaIcEEEJRA15_KcEEERSoSB_OT_DpOT0_
FNDA:387,_ZN9benchmark9StrCatImpIRNSt7__cxx1112basic_stringIcSt11char_traitsIcESaIcEEEJRA5_KcEEERSoSB_OT_DpOT0_
FNDA:172,_ZN9benchmark9StrCatImpIRNSt7__cxx1112basic_stringIcSt11char_traitsIcESaIcEEEJRA6_KcEEERSoSB_OT_DpOT0_
FNDA:215,_ZN9benchmark9StrCatImpIRNSt7__cxx1112basic_stringIcSt11char_traitsIcESaIcEEEJRA6_KciRA2_S8_EEERSoSD_OT_DpOT0_
FNDA:43,_ZN9benchmark9StrCatImpIRiJRA26_KcEEERSoS5_OT_DpOT0_
FNDA:215,_ZN9benchmark9StrCatImpIiJRA2_KcEEERSoS4_OT_DpOT0_
FNDA:43,_ZN9benchmark6StrCatIJRA28_KcRiRA26_S1_EEENSt7__cxx1112basic_stringIcSt11char_traitsIcESaIcEEEDpOT_
FNDA:172,_ZN9benchmark6StrCatIJRNSt7__cxx1112basic_stringIcSt11char_traitsIcESaIcEEERA15_KcEEES6_DpOT_
FNDA:387,_ZN9benchmark6StrCatIJRNSt7__cxx1112basic_stringIcSt11char_traitsIcESaIcEEERA5_KcEEES6_DpOT_
FNDA:172,_ZN9benchmark6StrCatIJRNSt7__cxx1112basic_stringIcSt11char_traitsIcESaIcEEERA6_KcEEES6_DpOT_
FNDA:215,_ZN9benchmark6StrCatIJRNSt7__cxx1112basic_stringIcSt11char_traitsIcESaIcEEERA6_KciRA2_S8_EEES6_DpOT_
FNF:19
FNH:19
DA:28,989
DA:29,989
DA:33,2451
DA:34,2451
DA:35,2451
DA:39,989
DA:40,989
DA:41,989
DA:42,1978
DA:43,989
LF:10
LH:10
end_of_record
TN:
SF:/home/alex/labs3/build/_deps/googlebenchmark-src/src/sysinfo.cc
FN:208,214,_ZN9benchmark12_GLOBAL__N_112ReadFromFileINSt7__cxx1112basic_stringIcSt11char_traitsIcESaIcEEEEEbRKS7_PT_
FN:208,214,_ZN9benchmark12_GLOBAL__N_112ReadFromFileIiEEbRKNSt7__cxx1112basic_stringIcSt11char_traitsIcESaIcEEEPT_
FN:208,214,_ZN9benchmark12_GLOBAL__N_112ReadFromFileIlEEbRKNSt7__cxx1112basic_stringIcSt11char_traitsIcESaIcEEEPT_
FN:216,236,_ZN9benchmark12_GLOBAL__N_110CpuScalingEi
FN:238,255,_ZN9benchmark12_GLOBAL__N_120CountSetBitsInCPUMapENSt7__cxx1112basic_stringIcSt11char_traitsIcESaIcEEE
FN:239,244,_ZZN9benchmark12_GLOBAL__N_120CountSetBitsInCPUMapENSt7__cxx1112basic_stringIcSt11char_traitsIcESaIcEEEENKUlS6_E_clES6_
FN:258,293,_ZN9benchmark12_GLOBAL__N_121GetCacheSizesFromKVFSEv
FN:407,419,_ZN9benchmark12_GLOBAL__N_113GetCacheSizesEv
FN:421,469,_ZN9benchmark12_GLOBAL__N_113GetSystemNameEv
FN:471,550,_ZN9benchmark12_GLOBAL__N_110GetNumCPUsEv
FN:554,559,_ZN9benchmark12_GLOBAL__N_119ThreadAffinityGuardC2Ev
FN:561,573,_ZN9benchmark12_GLOBAL__N_119ThreadAffinityGuardD2Ev
FN:581,614,_ZN9benchmark12_GLOBAL__N_119ThreadAffinityGuard11SetAffinityEv
FN:626,814,_ZN9benchmark12_GLOBAL__N_121GetCPUCyclesPerSecondENS_7CPUInfo7ScalingE
FN:666,672,_ZZN9benchmark12_GLOBAL__N_121GetCPUCyclesPerSecondENS_7CPUInfo7ScalingEENKUlRKNSt7__cxx1112basic_stringIcSt11char_traitsIcESaIcEEESA_E_clESA_SA_
FN:668,670,_ZZZN9benchmark12_GLOBAL__N_121GetCPUCyclesPerSecondENS_7CPUInfo7ScalingEENKUlRKNSt7__cxx1112basic_stringIcSt11char_traitsIcESaIcEEESA_E_clESA_SA_ENKUlccE_clEcc
FN:816,833,_ZN9benchmark12_GLOBAL__N_110GetLoadAvgEv
FN:83,83,_ZN9benchmark12_GLOBAL__N_18PrintImpERSo
FN:837,840,_ZN9benchmark7CPUInfo3GetEv
FN:842,847,_ZN9benchmark7CPUInfoC2Ev
FN:849,852,_ZN9benchmark10SystemInfo3GetEv
FN:854,854,_ZN9benchmark10SystemInfoC2Ev
FN:86,89,_ZN9benchmark12_GLOBAL__N_18PrintImpIRA15_KcJEEEvRSoOT_DpOT0_
FN:86,89,_ZN9benchmark12_GLOBAL__N_18PrintImpIRA26_KcJRNSt7__cxx1112basic_stringIcSt11char_traitsIcESaIcEEERA15_S2_EEEvRSoOT_DpOT0_
FN:86,89,_ZN9benchmark12_GLOBAL__N_18PrintImpIRA26_KcJRNSt7__cxx1112basic_stringIcSt11char_traitsIcESaIcEEERA5_S2_EEEvRSoOT_DpOT0_
FN:86,89,_ZN9benchmark12_GLOBAL__N_18PrintImpIRA26_KcJRNSt7__cxx1112basic_stringIcSt11char_traitsIcESaIcEEERA6_S2_EEEvRSoOT_DpOT0_
FN:86,89,_ZN9benchmark12_GLOBAL__N_18PrintImpIRA28_KcJRNSt7__cxx1112basic_stringIcSt11char_traitsIcESaIcEEERA6_S2_EEEvRSoOT_DpOT0_
FN:86,89,_ZN9benchmark12_GLOBAL__N_18PrintImpIRA32_KcJEEEvRSoOT_DpOT0_
FN:86,89,_ZN9benchmark12_GLOBAL__N_18PrintImpIRA43_KcJRNSt7__cxx1112basic_stringIcSt11char_traitsIcESaIcEEEEEEvRSoOT_DpOT0_
FN:86,89,_ZN9benchmark12_GLOBAL__N_18PrintImpIRA54_KcJEEEvRSoOT_DpOT0_
FN:86,89,_ZN9benchmark12_GLOBAL__N_18PrintImpIRA5_KcJEEEvRSoOT_DpOT0_
FN:86,89,_ZN9benchmark12_GLOBAL__N_18PrintImpIRA6_KcJEEEvRSoOT_DpOT0_
FN:86,89,_ZN9benchmark12_GLOBAL__N_18PrintImpIRNSt7__cxx1112basic_stringIcSt11char_traitsIcESaIcEEEJEEEvRSoOT_DpOT0_
FN:86,89,_ZN9benchmark12_GLOBAL__N_18PrintImpIRNSt7__cxx1112basic_stringIcSt11char_traitsIcESaIcEEEJRA15_KcEEEvRSoOT_DpOT0_
FN:86,89,_ZN9benchmark12_GLOBAL__N_18PrintImpIRNSt7__cxx1112basic_stringIcSt11char_traitsIcESaIcEEEJRA5_KcEEEvRSoOT_DpOT0_
FN:86,89,_ZN9benchmark12_GLOBAL__N_18PrintImpIRNSt7__cxx1112basic_stringIcSt11char_traitsIcESaIcEEEJRA6_KcEEEvRSoOT_DpOT0_
FN:92,95,_ZN9benchmark12_GLOBAL__N_116PrintErrorAndDieIJRA26_KcRNSt7__cxx1112basic_stringIcSt11char_traitsIcESaIcEEERA15_S2_EEEvDpOT_
FN:92,95,_ZN9benchmark12_GLOBAL__N_116PrintErrorAndDieIJRA26_KcRNSt7__cxx1112basic_stringIcSt11char_traitsIcESaIcEEERA5_S2_EEEvDpOT_
FN:92,95,_ZN9benchmark12_GLOBAL__N_116PrintErrorAndDieIJRA26_KcRNSt7__cxx1112basic_stringIcSt11char_traitsIcESaIcEEERA6_S2_EEEvDpOT_
FN:92,95,_ZN9benchmark12_GLOBAL__N_116PrintErrorAndDieIJRA28_KcRNSt7__cxx1112basic_stringIcSt11char_traitsIcESaIcEEERA6_S2_EEEvDpOT_
FN:92,95,_ZN9benchmark12_GLOBAL__N_116PrintErrorAndDieIJRA32_KcEEEvDpOT_
FN:92,95,_ZN9benchmark12_GLOBAL__N_116PrintErrorAndDieIJRA43_KcRNSt7__cxx1112basic_stringIcSt11char_traitsIcESaIcEEEEEEvDpOT_
FN:92,95,_ZN9benchmark12_GLOBAL__N_116PrintErrorAndDieIJRA54_KcEEEvDpOT_
FNDA:387,_ZN9benchmark12_GLOBAL__N_112ReadFromFileINSt7__cxx1112basic_stringIcSt11char_traitsIcESaIcEEEEEbRKS7_PT_
FNDA:172,_ZN9benchmark12_GLOBAL__N_112ReadFromFileIiEEbRKNSt7__cxx1112basic_stringIcSt11char_traitsIcESaIcEEEPT_
FNDA:86,_ZN9benchmark12_GLOBAL__N_112ReadFromFileIlEEbRKNSt7__cxx1112basic_stringIcSt11char_traitsIcESaIcEEEPT_
FNDA:43,_ZN9benchmark12_GLOBAL__N_110CpuScalingEi
FNDA:172,_ZN9benchmark12_GLOBAL__N_120CountSetBitsInCPUMapENSt7__cxx1112basic_stringIcSt11char_traitsIcESaIcEEE
FNDA:172,_ZZN9benchmark12_GLOBAL__N_120CountSetBitsInCPUMapENSt7__cxx1112basic_stringIcSt11char_traitsIcESaIcEEEENKUlS6_E_clES6_
FNDA:43,_ZN9benchmark12_GLOBAL__N_121GetCacheSizesFromKVFSEv
FNDA:43,_ZN9benchmark12_GLOBAL__N_113GetCacheSizesEv
FNDA:43,_ZN9benchmark12_GLOBAL__N_113GetSystemNameEv
FNDA:43,_ZN9benchmark12_GLOBAL__N_110GetNumCPUsEv
FNDA:0,_ZN9benchmark12_GLOBAL__N_119ThreadAffinityGuardC2Ev
FNDA:0,_ZN9benchmark12_GLOBAL__N_119ThreadAffinityGuardD2Ev
FNDA:0,_ZN9benchmark12_GLOBAL__N_119ThreadAffinityGuard11SetAffinityEv
FNDA:43,_ZN9benchmark12_GLOBAL__N_121GetCPUCyclesPerSecondENS_7CPUInfo7ScalingE
FNDA:0,_ZZN9benchmark12_GLOBAL__N_121GetCPUCyclesPerSecondENS_7CPUInfo7ScalingEENKUlRKNSt7__cxx1112basic_stringIcSt11char_traitsIcESaIcEEESA_E_clESA_SA_
FNDA:0,_ZZZN9benchmark12_GLOBAL__N_121GetCPUCyclesPerSecondENS_7CPUInfo7ScalingEENKUlRKNSt7__cxx1112basic_stringIcSt11char_traitsIcESaIcEEESA_E_clESA_SA_ENKUlccE_clEcc
FNDA:43,_ZN9benchmark12_GLOBAL__N_110GetLoadAvgEv
FNDA:0,_ZN9benchmark12_GLOBAL__N_18PrintImpERSo
FNDA:61,_ZN9benchmark7CPUInfo3GetEv
FNDA:43,_ZN9benchmark7CPUInfoC2Ev
FNDA:47,_ZN9benchmark10SystemInfo3GetEv
FNDA:43,_ZN9benchmark10SystemInfoC2Ev
FNDA:0,_ZN9benchmark12_GLOBAL__N_18PrintImpIRA15_KcJEEEvRSoOT_DpOT0_
FNDA:0,_ZN9benchmark12_GLOBAL__N_18PrintImpIRA26_KcJRNSt7__cxx1112basic_stringIcSt11char_traitsIcESaIcEEERA15_S2_EEEvRSoOT_DpOT0_
FNDA:0,_ZN9benchmark12_GLOBAL__N_18PrintImpIRA26_KcJRNSt7__cxx1112basic_stringIcSt11char_traitsIcESaIcEEERA5_S2_EEEvRSoOT_DpOT0_
FNDA:0,_ZN9benchmark12_GLOBAL__N_18PrintImpIRA26_KcJRNSt7__cxx1112basic_stringIcSt11char_traitsIcESaIcEEERA6_S2_EEEvRSoOT_DpOT0_
FNDA:0,_ZN9benchmark12_GLOBAL__N_18PrintImpIRA28_KcJRNSt7__cxx1112basic_stringIcSt11char_traitsIcESaIcEEERA6_S2_EEEvRSoOT_DpOT0_
FNDA:0,_ZN9benchmark12_GLOBAL__N_18PrintImpIRA32_KcJEEEvRSoOT_DpOT0_
FNDA:0,_ZN9benchmark12_GLOBAL__N_18PrintImpIRA43_KcJRNSt7__cxx1112basic_stringIcSt11char_traitsIcESaIcEEEEEEvRSoOT_DpOT0_
FNDA:0,_ZN9benchmark12_GLOBAL__N_18PrintImpIRA54_KcJEEEvRSoOT_DpOT0_
FNDA:0,_ZN9benchmark12_GLOBAL__N_18PrintImpIRA5_KcJEEEvRSoOT_DpOT0_
FNDA:0,_ZN9benchmark12_GLOBAL__N_18PrintImpIRA6_KcJEEEvRSoOT_DpOT0_
FNDA:0,_ZN9benchmark12_GLOBAL__N_18PrintImpIRNSt7__cxx1112basic_stringIcSt11char_traitsIcESaIcEEEJEEEvRSoOT_DpOT0_
FNDA:0,_ZN9benchmark12_GLOBAL__N_18PrintImpIRNSt7__cxx1112basic_stringIcSt11char_traitsIcESaIcEEEJRA15_KcEEEvRSoOT_DpOT0_
FNDA:0,_ZN9benchmark12_GLOBAL__N_18PrintImpIRNSt7__cxx1112basic_stringIcSt11char_traitsIcESaIcEEEJRA5_KcEEEvRSoOT_DpOT0_
FNDA:0,_ZN9benchmark12_GLOBAL__N_18PrintImpIRNSt7__cxx1112basic_stringIcSt11char_traitsIcESaIcEEEJRA6_KcEEEvRSoOT_DpOT0_
FNDA:0,_ZN9benchmark12_GLOBAL__N_116PrintErrorAndDieIJRA26_KcRNSt7__cxx1112basic_stringIcSt11char_traitsIcESaIcEEERA15_S2_EEEvDpOT_
FNDA:0,_ZN9benchmark12_GLOBAL__N_116PrintErrorAndDieIJRA26_KcRNSt7__cxx1112basic_stringIcSt11char_traitsIcESaIcEEERA5_S2_EEEvDpOT_
FNDA:0,_ZN9benchmark12_GLOBAL__N_116PrintErrorAndDieIJRA26_KcRNSt7__cxx1112basic_stringIcSt11char_traitsIcESaIcEEERA6_S2_EEEvDpOT_
FNDA:0,_ZN9benchmark12_GLOBAL__N_116PrintErrorAndDieIJRA28_KcRNSt7__cxx1112basic_stringIcSt11char_traitsIcESaIcEEERA6_S2_EEEvDpOT_
FNDA:0,_ZN9benchmark12_GLOBAL__N_116PrintErrorAndDieIJRA32_KcEEEvDpOT_
FNDA:0,_ZN9benchmark12_GLOBAL__N_116PrintErrorAndDieIJRA43_KcRNSt7__cxx1112basic_stringIcSt11char_traitsIcESaIcEEEEEEvDpOT_
FNDA:0,_ZN9benchmark12_GLOBAL__N_116PrintErrorAndDieIJRA54_KcEEEvDpOT_
FNF:43
FNH:16
DA:83,0
DA:86,0
DA:87,0
DA:88,0
DA:89,0
DA:92,0
DA:93,0
DA:94,0
DA:208,645
DA:209,645
DA:210,645
DA:211,645
DA:212,602
DA:213,602
DA:214,645
DA:216,43
DA:218,43
DA:225,43
DA:226,43
DA:228,43
DA:229,43
DA:230,43
DA:231,43
DA:232,0
DA:236,43
DA:238,172
DA:239,172
DA:241,172
DA:242,172
DA:243,344
DA:246,172
DA:247,172
DA:248,0
DA:249,0
DA:251,172
DA:252,172
DA:254,172
DA:258,43
DA:259,43
DA:260,43
DA:261,43
DA:263,215
DA:264,215
DA:265,215
DA:266,215
DA:267,172
DA:268,172
DA:269,172
DA:270,0
DA:271,172
DA:272,172
DA:273,172
DA:274,0
DA:276,172
DA:277,0
DA:278,172
DA:279,172
DA:281,172
DA:282,0
DA:283,172
DA:284,0
DA:285,172
DA:286,172
DA:287,0
DA:288,172
DA:289,172
DA:290,473
DA:292,86
DA:293,43
DA:407,43
DA:417,43
DA:421,43
DA:465,43
DA:466,43
DA:467,86
DA:471,43
DA:503,43
DA:504,43
DA:505,43
DA:506,43
DA:507,0
DA:508,0
DA:510,43
DA:511,43
DA:512,21715
DA:513,21672
DA:514,20898
DA:515,20898
DA:522,20898
DA:524,20898
DA:525,774
DA:526,774
DA:527,774
DA:528,774
DA:531,20898
DA:532,43
DA:533,0
DA:534,0
DA:536,43
DA:537,0
DA:538,0
DA:540,43
DA:542,43
DA:543,0
DA:547,43
DA:550,43
DA:554,0
DA:555,0
DA:557,0
DA:558,0
DA:559,0
DA:561,0
DA:562,0
DA:565,0
DA:566,0
DA:567,0
DA:572,0
DA:573,0
DA:581,0
DA:584,0
DA:585,0
DA:587,0
DA:590,0
DA:592,0
DA:594,0
DA:595,0
DA:596,0
DA:597,0
DA:599,0
DA:602,0
DA:604,0
DA:605,0
DA:626,43
DA:640,129
DA:644,43
DA:645,43
DA:650,172
DA:654,43
DA:657,0
DA:658,0
DA:660,0
DA:661,0
DA:662,0
DA:663,0
DA:666,0
DA:667,0
DA:668,0
DA:669,0
DA:671,0
DA:674,0
DA:675,0
DA:676,0
DA:677,0
DA:678,0
DA:679,0
DA:683,0
DA:684,0
DA:685,0
DA:686,0
DA:688,0
DA:689,0
DA:690,0
DA:691,0
DA:694,0
DA:695,0
DA:696,0
DA:697,0
DA:699,0
DA:700,0
DA:701,0
DA:703,0
DA:707,0
DA:785,0
DA:788,0
DA:789,0
DA:795,0
DA:797,0
DA:801,0
DA:802,0
DA:804,0
DA:808,0
DA:809,0
DA:811,0
DA:814,0
DA:816,43
DA:822,43
DA:823,43
DA:824,43
DA:825,0
DA:827,43
DA:829,43
DA:833,0
DA:837,61
DA:838,61
DA:839,61
DA:842,43
DA:843,43
DA:844,43
DA:845,43
DA:846,43
DA:847,43
DA:849,47
DA:850,47
DA:851,47
DA:854,43
LF:205
LH:107
end_of_record
TN:
SF:/home/alex/labs3/build/_deps/googlebenchmark-src/src/thread_manager.h
FN:14,15,_ZN9benchmark8internal13ThreadManagerC2Ei
FN:17,19,_ZNK9benchmark8internal13ThreadManager17GetBenchmarkMutexEv
FN:21,23,_ZN9benchmark8internal13ThreadManager16StartStopBarrierEv
FN:25,31,_ZN9benchmark8internal13ThreadManager20NotifyThreadCompleteEv
FN:33,37,_ZN9benchmark8internal13ThreadManager17WaitForAllThreadsEv
FN:36,36,_ZZN9benchmark8internal13ThreadManager17WaitForAllThreadsEvENKUlvE_clEv
FNDA:3238,_ZN9benchmark8internal13ThreadManagerC2Ei
FNDA:8878,_ZNK9benchmark8internal13ThreadManager17GetBenchmarkMutexEv
FNDA:11183,_ZN9benchmark8internal13ThreadManager16StartStopBarrierEv
FNDA:5635,_ZN9benchmark8internal13ThreadManager20NotifyThreadCompleteEv
FNDA:3238,_ZN9benchmark8internal13ThreadManager17WaitForAllThreadsEv
FNDA:3523,_ZZN9benchmark8internal13ThreadManager17WaitForAllThreadsEvENKUlvE_clEv
FNF:6
FNH:6
DA:14,3238
DA:15,3238
DA:17,8878
DA:18,8878
DA:21,11183
DA:22,11183
DA:25,5635
DA:26,5635
DA:27,5636
DA:28,3238
DA:29,3238
DA:30,3238
DA:31,5637
DA:33,3238
DA:34,3238
DA:35,3238
DA:36,3523
DA:37,3238
LF:18
LH:18
end_of_record
TN:
SF:/home/alex/labs3/build/_deps/googlebenchmark-src/src/thread_timer.h
FN:11,12,_ZN9benchmark8internal11ThreadTimerC2Eb
FN:15,17,_ZN9benchmark8internal11ThreadTimer6CreateEv
FN:18,20,_ZN9benchmark8internal11ThreadTimer20CreateProcessCpuTimeEv
FN:23,27,_ZN9benchmark8internal11ThreadTimer10StartTimerEv
FN:30,38,_ZN9benchmark8internal11ThreadTimer9StopTimerEv
FN:41,41,_ZN9benchmark8internal11ThreadTimer16SetIterationTimeEd
FN:43,43,_ZNK9benchmark8internal11ThreadTimer7runningEv
FN:46,49,_ZNK9benchmark8internal11ThreadTimer14real_time_usedEv
FN:52,55,_ZNK9benchmark8internal11ThreadTimer13cpu_time_usedEv
FN:58,61,_ZNK9benchmark8internal11ThreadTimer16manual_time_usedEv
FN:64,67,_ZNK9benchmark8internal11ThreadTimer20ReadCpuTimerOfChoiceEv
FNDA:5635,_ZN9benchmark8internal11ThreadTimerC2Eb
FNDA:5608,_ZN9benchmark8internal11ThreadTimer6CreateEv
FNDA:27,_ZN9benchmark8internal11ThreadTimer20CreateProcessCpuTimeEv
FNDA:303459,_ZN9benchmark8internal11ThreadTimer10StartTimerEv
FNDA:315096,_ZN9benchmark8internal11ThreadTimer9StopTimerEv
FNDA:1822,_ZN9benchmark8internal11ThreadTimer16SetIterationTimeEd
FNDA:40,_ZNK9benchmark8internal11ThreadTimer7runningEv
FNDA:5640,_ZNK9benchmark8internal11ThreadTimer14real_time_usedEv
FNDA:5640,_ZNK9benchmark8internal11ThreadTimer13cpu_time_usedEv
FNDA:5640,_ZNK9benchmark8internal11ThreadTimer16manual_time_usedEv
FNDA:592571,_ZNK9benchmark8internal11ThreadTimer20ReadCpuTimerOfChoiceEv
FNF:11
FNH:11
DA:11,5635
DA:12,5635
DA:15,5608
DA:16,5608
DA:18,27
DA:19,27
DA:23,303459
DA:24,303459
DA:25,303459
DA:26,301650
DA:27,321627
DA:30,315096
DA:31,315096
DA:32,313185
DA:33,313185
DA:36,319867
DA:37,307365
DA:38,319867
DA:41,1822
DA:43,40
DA:46,5640
DA:47,5640
DA:48,5640
DA:52,5640
DA:53,5640
DA:54,5640
DA:58,5640
DA:59,5640
DA:60,5640
DA:64,592571
DA:65,592571
DA:66,592517
LF:32
LH:32
end_of_record
TN:
SF:/home/alex/labs3/build/_deps/googlebenchmark-src/src/timers.cc
FN:104,106,_ZN9benchmark12_GLOBAL__N_18MakeTimeERK8timespec
FN:109,112,_ZN9benchmark12_GLOBAL__N_1L15DiagnoseAndExitEPKc
FN:116,149,_ZN9benchmark15ProcessCPUUsageEv
FN:151,195,_ZN9benchmark14ThreadCPUUsageEv
FN:197,270,_ZN9benchmark19LocalDateTimeStringB5cxx11Ev
FN:88,93,_ZN9benchmark12_GLOBAL__N_18MakeTimeERK6rusage
FNDA:645843,_ZN9benchmark12_GLOBAL__N_18MakeTimeERK8timespec
FNDA:0,_ZN9benchmark12_GLOBAL__N_1L15DiagnoseAndExitEPKc
FNDA:54,_ZN9benchmark15ProcessCPUUsageEv
FNDA:591770,_ZN9benchmark14ThreadCPUUsageEv
FNDA:62,_ZN9benchmark19LocalDateTimeStringB5cxx11Ev
FNDA:0,_ZN9benchmark12_GLOBAL__N_18MakeTimeERK6rusage
FNF:6
FNH:4
DA:88,0
DA:89,0
DA:90,0
DA:91,0
DA:92,0
DA:104,645843
DA:105,645843
DA:109,0
DA:110,0
DA:111,0
DA:116,54
DA:141,54
DA:142,108
DA:143,0
DA:151,591770
DA:190,1233445
DA:191,0
DA:197,62
DA:200,62
DA:201,62
DA:202,62
DA:207,62
DA:227,62
DA:228,62
DA:231,62
DA:233,62
DA:238,62
DA:239,62
DA:240,0
DA:241,0
DA:244,62
DA:245,62
DA:247,62
DA:248,62
DA:256,0
DA:259,0
DA:263,62
DA:264,62
DA:268,62
DA:269,124
DA:270,0
LF:41
LH:26
end_of_record
TN:
SF:/home/alex/labs3/build/_deps/googlebenchmark-src/src/timers.h
FN:38,42,_ZN9benchmark14ChronoClockNowEv
FNDA:9077373,_ZN9benchmark14ChronoClockNowEv
FNF:1
FNH:1
DA:38,9077373
DA:41,9077373
LF:2
LH:2
end_of_record
TN:
SF:/home/alex/labs3/build/_deps/googlebenchmark-src/test/args_product_test.cc
FN:10,24,_ZN18ArgsProductFixtureC2Ev
FN:26,33,_ZN18ArgsProductFixture5SetUpERKN9benchmark5StateE
FN:37,56,_ZN18ArgsProductFixtureD0Ev
FN:37,56,_ZN18ArgsProductFixtureD2Ev
FN:62,70,_ZN34ArgsProductFixture_Empty_Benchmark13BenchmarkCaseERN9benchmark5StateE
FN:62,70,_ZN34ArgsProductFixture_Empty_BenchmarkC2Ev
FN:77,77,main
FNDA:1,_ZN18ArgsProductFixtureC2Ev
FNDA:72,_ZN18ArgsProductFixture5SetUpERKN9benchmark5StateE
FNDA:0,_ZN18ArgsProductFixtureD0Ev
FNDA:1,_ZN18ArgsProductFixtureD2Ev
FNDA:72,_ZN34ArgsProductFixture_Empty_Benchmark13BenchmarkCaseERN9benchmark5StateE
FNDA:1,_ZN34ArgsProductFixture_Empty_BenchmarkC2Ev
FNDA:1,main
FNF:7
FNH:6
DA:10,1
DA:11,15
DA:24,4
DA:26,72
DA:27,144
DA:28,360
DA:30,72
DA:32,72
DA:33,72
DA:37,1
DA:38,1
DA:39,0
DA:40,0
DA:41,0
DA:42,0
DA:43,0
DA:45,0
DA:47,0
DA:48,0
DA:49,0
DA:50,0
DA:51,0
DA:53,0
DA:56,1
DA:62,75
DA:63,1441346
DA:65,2161587
DA:66,85862149
DA:70,72
DA:77,1
LF:30
LH:18
end_of_record
TN:
SF:/home/alex/labs3/build/_deps/googlebenchmark-src/test/basic_test.cc
FN:100,107,_Z14BM_KeepRunningRN9benchmark5StateE
FN:110,129,_Z19BM_KeepRunningBatchRN9benchmark5StateE
FN:136,142,_Z12BM_RangedForRN9benchmark5StateE
FN:147,153,_Z18BM_OneTemplateFuncIdEvRN9benchmark5StateE
FN:147,153,_Z18BM_OneTemplateFuncIiEvRN9benchmark5StateE
FN:15,21,_Z13BM_spin_emptyRN9benchmark5StateE
FN:158,166,_Z18BM_TwoTemplateFuncIdiEvRN9benchmark5StateE
FN:158,166,_Z18BM_TwoTemplateFuncIidEvRN9benchmark5StateE
FN:180,180,main
FN:25,34,_Z20BM_spin_pause_beforeRN9benchmark5StateE
FN:38,49,_Z20BM_spin_pause_duringRN9benchmark5StateE
FN:53,58,_Z15BM_pause_duringRN9benchmark5StateE
FN:6,11,_Z8BM_emptyRN9benchmark5StateE
FN:64,73,_Z19BM_spin_pause_afterRN9benchmark5StateE
FN:77,89,_Z30BM_spin_pause_before_and_afterRN9benchmark5StateE
FN:93,96,_Z19BM_empty_stop_startRN9benchmark5StateE
FNDA:8,_Z14BM_KeepRunningRN9benchmark5StateE
FNDA:7,_Z19BM_KeepRunningBatchRN9benchmark5StateE
FNDA:8,_Z12BM_RangedForRN9benchmark5StateE
FNDA:8,_Z18BM_OneTemplateFuncIdEvRN9benchmark5StateE
FNDA:8,_Z18BM_OneTemplateFuncIiEvRN9benchmark5StateE
FNDA:105,_Z13BM_spin_emptyRN9benchmark5StateE
FNDA:8,_Z18BM_TwoTemplateFuncIdiEvRN9benchmark5StateE
FNDA:8,_Z18BM_TwoTemplateFuncIidEvRN9benchmark5StateE
FNDA:1,main
FNDA:106,_Z20BM_spin_pause_beforeRN9benchmark5StateE
FNDA:122,_Z20BM_spin_pause_duringRN9benchmark5StateE
FNDA:156,_Z15BM_pause_duringRN9benchmark5StateE
FNDA:97,_Z8BM_emptyRN9benchmark5StateE
FNDA:106,_Z19BM_spin_pause_afterRN9benchmark5StateE
FNDA:105,_Z30BM_spin_pause_before_and_afterRN9benchmark5StateE
FNDA:96,_Z19BM_empty_stop_startRN9benchmark5StateE
FNF:16
FNH:16
DA:6,97
DA:7,9920057
DA:8,4959554
DA:11,660
DA:15,105
DA:16,280150
DA:17,16190129
DA:21,122
DA:25,106
DA:26,123839
DA:29,272703
DA:30,16169196
DA:34,110
DA:38,122
DA:39,48246
DA:40,47758
DA:41,12884047
DA:44,46870
DA:45,12908852
DA:49,122
DA:53,156
DA:54,113121
DA:55,112145
DA:56,105759
DA:58,511
DA:64,106
DA:65,295581
DA:66,18452976
DA:70,111827
DA:73,548
DA:77,105
DA:78,126912
DA:81,319950
DA:82,18613931
DA:86,103287
DA:89,0
DA:93,96
DA:94,12378404
DA:96,0
DA:100,8
DA:101,8
DA:102,8
DA:103,4665511
DA:104,4665495
DA:106,8
DA:107,8
DA:110,7
DA:115,7
DA:118,7
DA:119,1102206
DA:120,1102192
DA:122,7
DA:126,7
DA:128,7
DA:129,7
DA:136,8
DA:137,8
DA:138,5867670
DA:139,5867638
DA:141,8
DA:142,8
DA:147,16
DA:148,16
DA:149,16
DA:150,10876676
DA:151,10876612
DA:153,16
DA:158,16
DA:159,16
DA:160,16
DA:161,16
DA:162,10861207
DA:163,10861143
DA:164,10861143
DA:166,16
DA:180,1
LF:76
LH:74
end_of_record
TN:
SF:/home/alex/labs3/build/_deps/googlebenchmark-src/test/benchmark_gtest.cc
FN:104,104,_ZN9benchmark8internal12_GLOBAL__N_133AddRangeTest_NegativeRange64_Test8TestBodyEv
FN:104,104,_ZN9benchmark8internal12_GLOBAL__N_133AddRangeTest_NegativeRange64_TestC2Ev
FN:104,104,_ZN9benchmark8internal12_GLOBAL__N_133AddRangeTest_NegativeRange64_TestD0Ev
FN:104,104,_ZN9benchmark8internal12_GLOBAL__N_133AddRangeTest_NegativeRange64_TestD2Ev
FN:110,110,_ZN9benchmark8internal12_GLOBAL__N_153AddRangeTest_NegativeRangePreservesExistingOrder_Test8TestBodyEv
FN:110,110,_ZN9benchmark8internal12_GLOBAL__N_153AddRangeTest_NegativeRangePreservesExistingOrder_TestC2Ev
FN:110,110,_ZN9benchmark8internal12_GLOBAL__N_153AddRangeTest_NegativeRangePreservesExistingOrder_TestD0Ev
FN:110,110,_ZN9benchmark8internal12_GLOBAL__N_153AddRangeTest_NegativeRangePreservesExistingOrder_TestD2Ev
FN:118,118,_ZN9benchmark8internal12_GLOBAL__N_137AddRangeTest_FullNegativeRange64_Test8TestBodyEv
FN:118,118,_ZN9benchmark8internal12_GLOBAL__N_137AddRangeTest_FullNegativeRange64_TestC2Ev
FN:118,118,_ZN9benchmark8internal12_GLOBAL__N_137AddRangeTest_FullNegativeRange64_TestD0Ev
FN:118,118,_ZN9benchmark8internal12_GLOBAL__N_137AddRangeTest_FullNegativeRange64_TestD2Ev
FN:131,131,_ZN9benchmark8internal12_GLOBAL__N_125AddRangeTest_Simple8_Test8TestBodyEv
FN:131,131,_ZN9benchmark8internal12_GLOBAL__N_125AddRangeTest_Simple8_TestC2Ev
FN:131,131,_ZN9benchmark8internal12_GLOBAL__N_125AddRangeTest_Simple8_TestD0Ev
FN:131,131,_ZN9benchmark8internal12_GLOBAL__N_125AddRangeTest_Simple8_TestD2Ev
FN:138,138,_ZN9benchmark8internal12_GLOBAL__N_128AddCustomContext_Simple_Test8TestBodyEv
FN:138,138,_ZN9benchmark8internal12_GLOBAL__N_128AddCustomContext_Simple_TestC2Ev
FN:138,138,_ZN9benchmark8internal12_GLOBAL__N_128AddCustomContext_Simple_TestD0Ev
FN:138,138,_ZN9benchmark8internal12_GLOBAL__N_128AddCustomContext_Simple_TestD2Ev
FN:15,15,_ZN9benchmark8internal12_GLOBAL__N_124AddRangeTest_Simple_Test8TestBodyEv
FN:15,15,_ZN9benchmark8internal12_GLOBAL__N_124AddRangeTest_Simple_TestC2Ev
FN:15,15,_ZN9benchmark8internal12_GLOBAL__N_124AddRangeTest_Simple_TestD0Ev
FN:15,15,_ZN9benchmark8internal12_GLOBAL__N_124AddRangeTest_Simple_TestD2Ev
FN:153,153,_ZN9benchmark8internal12_GLOBAL__N_134AddCustomContext_DuplicateKey_Test8TestBodyEv
FN:153,153,_ZN9benchmark8internal12_GLOBAL__N_134AddCustomContext_DuplicateKey_TestC2Ev
FN:153,153,_ZN9benchmark8internal12_GLOBAL__N_134AddCustomContext_DuplicateKey_TestD0Ev
FN:153,153,_ZN9benchmark8internal12_GLOBAL__N_134AddCustomContext_DuplicateKey_TestD2Ev
FN:21,25,_ZN9benchmark8internal12_GLOBAL__N_126AddRangeTest_Simple64_Test8TestBodyEv
FN:21,25,_ZN9benchmark8internal12_GLOBAL__N_126AddRangeTest_Simple64_TestC2Ev
FN:21,25,_ZN9benchmark8internal12_GLOBAL__N_126AddRangeTest_Simple64_TestD0Ev
FN:21,25,_ZN9benchmark8internal12_GLOBAL__N_126AddRangeTest_Simple64_TestD2Ev
FN:27,27,_ZN9benchmark8internal12_GLOBAL__N_126AddRangeTest_Advanced_Test8TestBodyEv
FN:27,27,_ZN9benchmark8internal12_GLOBAL__N_126AddRangeTest_Advanced_TestC2Ev
FN:27,27,_ZN9benchmark8internal12_GLOBAL__N_126AddRangeTest_Advanced_TestD0Ev
FN:27,27,_ZN9benchmark8internal12_GLOBAL__N_126AddRangeTest_Advanced_TestD2Ev
FN:33,33,_ZN9benchmark8internal12_GLOBAL__N_128AddRangeTest_Advanced64_Test8TestBodyEv
FN:33,33,_ZN9benchmark8internal12_GLOBAL__N_128AddRangeTest_Advanced64_TestC2Ev
FN:33,33,_ZN9benchmark8internal12_GLOBAL__N_128AddRangeTest_Advanced64_TestD0Ev
FN:33,33,_ZN9benchmark8internal12_GLOBAL__N_128AddRangeTest_Advanced64_TestD2Ev
FN:39,39,_ZN9benchmark8internal12_GLOBAL__N_128AddRangeTest_FullRange8_Test8TestBodyEv
FN:39,39,_ZN9benchmark8internal12_GLOBAL__N_128AddRangeTest_FullRange8_TestC2Ev
FN:39,39,_ZN9benchmark8internal12_GLOBAL__N_128AddRangeTest_FullRange8_TestD0Ev
FN:39,39,_ZN9benchmark8internal12_GLOBAL__N_128AddRangeTest_FullRange8_TestD2Ev
FN:46,46,_ZN9benchmark8internal12_GLOBAL__N_129AddRangeTest_FullRange64_Test8TestBodyEv
FN:46,46,_ZN9benchmark8internal12_GLOBAL__N_129AddRangeTest_FullRange64_TestC2Ev
FN:46,46,_ZN9benchmark8internal12_GLOBAL__N_129AddRangeTest_FullRange64_TestD0Ev
FN:46,46,_ZN9benchmark8internal12_GLOBAL__N_129AddRangeTest_FullRange64_TestD2Ev
FN:55,55,_ZN9benchmark8internal12_GLOBAL__N_132AddRangeTest_NegativeRanges_Test8TestBodyEv
FN:55,55,_ZN9benchmark8internal12_GLOBAL__N_132AddRangeTest_NegativeRanges_TestC2Ev
FN:55,55,_ZN9benchmark8internal12_GLOBAL__N_132AddRangeTest_NegativeRanges_TestD0Ev
FN:55,55,_ZN9benchmark8internal12_GLOBAL__N_132AddRangeTest_NegativeRanges_TestD2Ev
FN:61,65,_ZN9benchmark8internal12_GLOBAL__N_134AddRangeTest_StrictlyNegative_Test8TestBodyEv
FN:61,65,_ZN9benchmark8internal12_GLOBAL__N_134AddRangeTest_StrictlyNegative_TestC2Ev
FN:61,65,_ZN9benchmark8internal12_GLOBAL__N_134AddRangeTest_StrictlyNegative_TestD0Ev
FN:61,65,_ZN9benchmark8internal12_GLOBAL__N_134AddRangeTest_StrictlyNegative_TestD2Ev
FN:67,67,_ZN9benchmark8internal12_GLOBAL__N_141AddRangeTest_SymmetricNegativeRanges_Test8TestBodyEv
FN:67,67,_ZN9benchmark8internal12_GLOBAL__N_141AddRangeTest_SymmetricNegativeRanges_TestC2Ev
FN:67,67,_ZN9benchmark8internal12_GLOBAL__N_141AddRangeTest_SymmetricNegativeRanges_TestD0Ev
FN:67,67,_ZN9benchmark8internal12_GLOBAL__N_141AddRangeTest_SymmetricNegativeRanges_TestD2Ev
FN:73,73,_ZN9benchmark8internal12_GLOBAL__N_148AddRangeTest_SymmetricNegativeRangesOddMult_Test8TestBodyEv
FN:73,73,_ZN9benchmark8internal12_GLOBAL__N_148AddRangeTest_SymmetricNegativeRangesOddMult_TestC2Ev
FN:73,73,_ZN9benchmark8internal12_GLOBAL__N_148AddRangeTest_SymmetricNegativeRangesOddMult_TestD0Ev
FN:73,73,_ZN9benchmark8internal12_GLOBAL__N_148AddRangeTest_SymmetricNegativeRangesOddMult_TestD2Ev
FN:79,79,_ZN9benchmark8internal12_GLOBAL__N_142AddRangeTest_NegativeRangesAsymmetric_Test8TestBodyEv
FN:79,79,_ZN9benchmark8internal12_GLOBAL__N_142AddRangeTest_NegativeRangesAsymmetric_TestC2Ev
FN:79,79,_ZN9benchmark8internal12_GLOBAL__N_142AddRangeTest_NegativeRangesAsymmetric_TestD0Ev
FN:79,79,_ZN9benchmark8internal12_GLOBAL__N_142AddRangeTest_NegativeRangesAsymmetric_TestD2Ev
FN:85,85,_ZN9benchmark8internal12_GLOBAL__N_141AddRangeTest_NegativeRangesLargeStep_Test8TestBodyEv
FN:85,85,_ZN9benchmark8internal12_GLOBAL__N_141AddRangeTest_NegativeRangesLargeStep_TestC2Ev
FN:85,85,_ZN9benchmark8internal12_GLOBAL__N_141AddRangeTest_NegativeRangesLargeStep_TestD0Ev
FN:85,85,_ZN9benchmark8internal12_GLOBAL__N_141AddRangeTest_NegativeRangesLargeStep_TestD2Ev
FN:92,92,_ZN9benchmark8internal12_GLOBAL__N_131AddRangeTest_ZeroOnlyRange_Test8TestBodyEv
FN:92,92,_ZN9benchmark8internal12_GLOBAL__N_131AddRangeTest_ZeroOnlyRange_TestC2Ev
FN:92,92,_ZN9benchmark8internal12_GLOBAL__N_131AddRangeTest_ZeroOnlyRange_TestD0Ev
FN:92,92,_ZN9benchmark8internal12_GLOBAL__N_131AddRangeTest_ZeroOnlyRange_TestD2Ev
FN:98,98,_ZN9benchmark8internal12_GLOBAL__N_135AddRangeTest_ZeroStartingRange_Test8TestBodyEv
FN:98,98,_ZN9benchmark8internal12_GLOBAL__N_135AddRangeTest_ZeroStartingRange_TestC2Ev
FN:98,98,_ZN9benchmark8internal12_GLOBAL__N_135AddRangeTest_ZeroStartingRange_TestD0Ev
FN:98,98,_ZN9benchmark8internal12_GLOBAL__N_135AddRangeTest_ZeroStartingRange_TestD2Ev
FNDA:1,_ZN9benchmark8internal12_GLOBAL__N_133AddRangeTest_NegativeRange64_Test8TestBodyEv
FNDA:1,_ZN9benchmark8internal12_GLOBAL__N_133AddRangeTest_NegativeRange64_TestC2Ev
FNDA:1,_ZN9benchmark8internal12_GLOBAL__N_133AddRangeTest_NegativeRange64_TestD0Ev
FNDA:1,_ZN9benchmark8internal12_GLOBAL__N_133AddRangeTest_NegativeRange64_TestD2Ev
FNDA:1,_ZN9benchmark8internal12_GLOBAL__N_153AddRangeTest_NegativeRangePreservesExistingOrder_Test8TestBodyEv
FNDA:1,_ZN9benchmark8internal12_GLOBAL__N_153AddRangeTest_NegativeRangePreservesExistingOrder_TestC2Ev
FNDA:1,_ZN9benchmark8internal12_GLOBAL__N_153AddRangeTest_NegativeRangePreservesExistingOrder_TestD0Ev
FNDA:1,_ZN9benchmark8internal12_GLOBAL__N_153AddRangeTest_NegativeRangePreservesExistingOrder_TestD2Ev
FNDA:1,_ZN9benchmark8internal12_GLOBAL__N_137AddRangeTest_FullNegativeRange64_Test8TestBodyEv
FNDA:1,_ZN9benchmark8internal12_GLOBAL__N_137AddRangeTest_FullNegativeRange64_TestC2Ev
FNDA:1,_ZN9benchmark8internal12_GLOBAL__N_137AddRangeTest_FullNegativeRange64_TestD0Ev
FNDA:1,_ZN9benchmark8internal12_GLOBAL__N_137AddRangeTest_FullNegativeRange64_TestD2Ev
FNDA:1,_ZN9benchmark8internal12_GLOBAL__N_125AddRangeTest_Simple8_Test8TestBodyEv
FNDA:1,_ZN9benchmark8internal12_GLOBAL__N_125AddRangeTest_Simple8_TestC2Ev
FNDA:1,_ZN9benchmark8internal12_GLOBAL__N_125AddRangeTest_Simple8_TestD0Ev
FNDA:1,_ZN9benchmark8internal12_GLOBAL__N_125AddRangeTest_Simple8_TestD2Ev
FNDA:1,_ZN9benchmark8internal12_GLOBAL__N_128AddCustomContext_Simple_Test8TestBodyEv
FNDA:1,_ZN9benchmark8internal12_GLOBAL__N_128AddCustomContext_Simple_TestC2Ev
FNDA:1,_ZN9benchmark8internal12_GLOBAL__N_128AddCustomContext_Simple_TestD0Ev
FNDA:1,_ZN9benchmark8internal12_GLOBAL__N_128AddCustomContext_Simple_TestD2Ev
FNDA:1,_ZN9benchmark8internal12_GLOBAL__N_124AddRangeTest_Simple_Test8TestBodyEv
FNDA:1,_ZN9benchmark8internal12_GLOBAL__N_124AddRangeTest_Simple_TestC2Ev
FNDA:1,_ZN9benchmark8internal12_GLOBAL__N_124AddRangeTest_Simple_TestD0Ev
FNDA:1,_ZN9benchmark8internal12_GLOBAL__N_124AddRangeTest_Simple_TestD2Ev
FNDA:1,_ZN9benchmark8internal12_GLOBAL__N_134AddCustomContext_DuplicateKey_Test8TestBodyEv
FNDA:1,_ZN9benchmark8internal12_GLOBAL__N_134AddCustomContext_DuplicateKey_TestC2Ev
FNDA:1,_ZN9benchmark8internal12_GLOBAL__N_134AddCustomContext_DuplicateKey_TestD0Ev
FNDA:1,_ZN9benchmark8internal12_GLOBAL__N_134AddCustomContext_DuplicateKey_TestD2Ev
FNDA:1,_ZN9benchmark8internal12_GLOBAL__N_126AddRangeTest_Simple64_Test8TestBodyEv
FNDA:1,_ZN9benchmark8internal12_GLOBAL__N_126AddRangeTest_Simple64_TestC2Ev
FNDA:1,_ZN9benchmark8internal12_GLOBAL__N_126AddRangeTest_Simple64_TestD0Ev
FNDA:1,_ZN9benchmark8internal12_GLOBAL__N_126AddRangeTest_Simple64_TestD2Ev
FNDA:1,_ZN9benchmark8internal12_GLOBAL__N_126AddRangeTest_Advanced_Test8TestBodyEv
FNDA:1,_ZN9benchmark8internal12_GLOBAL__N_126AddRangeTest_Advanced_TestC2Ev
FNDA:1,_ZN9benchmark8internal12_GLOBAL__N_126AddRangeTest_Advanced_TestD0Ev
FNDA:1,_ZN9benchmark8internal12_GLOBAL__N_126AddRangeTest_Advanced_TestD2Ev
FNDA:1,_ZN9benchmark8internal12_GLOBAL__N_128AddRangeTest_Advanced64_Test8TestBodyEv
FNDA:1,_ZN9benchmark8internal12_GLOBAL__N_128AddRangeTest_Advanced64_TestC2Ev
FNDA:1,_ZN9benchmark8internal12_GLOBAL__N_128AddRangeTest_Advanced64_TestD0Ev
FNDA:1,_ZN9benchmark8internal12_GLOBAL__N_128AddRangeTest_Advanced64_TestD2Ev
FNDA:1,_ZN9benchmark8internal12_GLOBAL__N_128AddRangeTest_FullRange8_Test8TestBodyEv
FNDA:1,_ZN9benchmark8internal12_GLOBAL__N_128AddRangeTest_FullRange8_TestC2Ev
FNDA:1,_ZN9benchmark8internal12_GLOBAL__N_128AddRangeTest_FullRange8_TestD0Ev
FNDA:1,_ZN9benchmark8internal12_GLOBAL__N_128AddRangeTest_FullRange8_TestD2Ev
FNDA:1,_ZN9benchmark8internal12_GLOBAL__N_129AddRangeTest_FullRange64_Test8TestBodyEv
FNDA:1,_ZN9benchmark8internal12_GLOBAL__N_129AddRangeTest_FullRange64_TestC2Ev
FNDA:1,_ZN9benchmark8internal12_GLOBAL__N_129AddRangeTest_FullRange64_TestD0Ev
FNDA:1,_ZN9benchmark8internal12_GLOBAL__N_129AddRangeTest_FullRange64_TestD2Ev
FNDA:1,_ZN9benchmark8internal12_GLOBAL__N_132AddRangeTest_NegativeRanges_Test8TestBodyEv
FNDA:1,_ZN9benchmark8internal12_GLOBAL__N_132AddRangeTest_NegativeRanges_TestC2Ev
FNDA:1,_ZN9benchmark8internal12_GLOBAL__N_132AddRangeTest_NegativeRanges_TestD0Ev
FNDA:1,_ZN9benchmark8internal12_GLOBAL__N_132AddRangeTest_NegativeRanges_TestD2Ev
FNDA:1,_ZN9benchmark8internal12_GLOBAL__N_134AddRangeTest_StrictlyNegative_Test8TestBodyEv
FNDA:1,_ZN9benchmark8internal12_GLOBAL__N_134AddRangeTest_StrictlyNegative_TestC2Ev
FNDA:1,_ZN9benchmark8internal12_GLOBAL__N_134AddRangeTest_StrictlyNegative_TestD0Ev
FNDA:1,_ZN9benchmark8internal12_GLOBAL__N_134AddRangeTest_StrictlyNegative_TestD2Ev
FNDA:1,_ZN9benchmark8internal12_GLOBAL__N_141AddRangeTest_SymmetricNegativeRanges_Test8TestBodyEv
FNDA:1,_ZN9benchmark8internal12_GLOBAL__N_141AddRangeTest_SymmetricNegativeRanges_TestC2Ev
FNDA:1,_ZN9benchmark8internal12_GLOBAL__N_141AddRangeTest_SymmetricNegativeRanges_TestD0Ev
FNDA:1,_ZN9benchmark8internal12_GLOBAL__N_141AddRangeTest_SymmetricNegativeRanges_TestD2Ev
FNDA:1,_ZN9benchmark8internal12_GLOBAL__N_148AddRangeTest_SymmetricNegativeRangesOddMult_Test8TestBodyEv
FNDA:1,_ZN9benchmark8internal12_GLOBAL__N_148AddRangeTest_SymmetricNegativeRangesOddMult_TestC2Ev
FNDA:1,_ZN9benchmark8internal12_GLOBAL__N_148AddRangeTest_SymmetricNegativeRangesOddMult_TestD0Ev
FNDA:1,_ZN9benchmark8internal12_GLOBAL__N_148AddRangeTest_SymmetricNegativeRangesOddMult_TestD2Ev
FNDA:1,_ZN9benchmark8internal12_GLOBAL__N_142AddRangeTest_NegativeRangesAsymmetric_Test8TestBodyEv
FNDA:1,_ZN9benchmark8internal12_GLOBAL__N_142AddRangeTest_NegativeRangesAsymmetric_TestC2Ev
FNDA:1,_ZN9benchmark8internal12_GLOBAL__N_142AddRangeTest_NegativeRangesAsymmetric_TestD0Ev
FNDA:1,_ZN9benchmark8internal12_GLOBAL__N_142AddRangeTest_NegativeRangesAsymmetric_TestD2Ev
FNDA:1,_ZN9benchmark8internal12_GLOBAL__N_141AddRangeTest_NegativeRangesLargeStep_Test8TestBodyEv
FNDA:1,_ZN9benchmark8internal12_GLOBAL__N_141AddRangeTest_NegativeRangesLargeStep_TestC2Ev
FNDA:1,_ZN9benchmark8internal12_GLOBAL__N_141AddRangeTest_NegativeRangesLargeStep_TestD0Ev
FNDA:1,_ZN9benchmark8internal12_GLOBAL__N_141AddRangeTest_NegativeRangesLargeStep_TestD2Ev
FNDA:1,_ZN9benchmark8internal12_GLOBAL__N_131AddRangeTest_ZeroOnlyRange_Test8TestBodyEv
FNDA:1,_ZN9benchmark8internal12_GLOBAL__N_131AddRangeTest_ZeroOnlyRange_TestC2Ev
FNDA:1,_ZN9benchmark8internal12_GLOBAL__N_131AddRangeTest_ZeroOnlyRange_TestD0Ev
FNDA:1,_ZN9benchmark8internal12_GLOBAL__N_131AddRangeTest_ZeroOnlyRange_TestD2Ev
FNDA:1,_ZN9benchmark8internal12_GLOBAL__N_135AddRangeTest_ZeroStartingRange_Test8TestBodyEv
FNDA:1,_ZN9benchmark8internal12_GLOBAL__N_135AddRangeTest_ZeroStartingRange_TestC2Ev
FNDA:1,_ZN9benchmark8internal12_GLOBAL__N_135AddRangeTest_ZeroStartingRange_TestD0Ev
FNDA:1,_ZN9benchmark8internal12_GLOBAL__N_135AddRangeTest_ZeroStartingRange_TestD2Ev
FNF:80
FNH:80
DA:15,4
DA:16,1
DA:17,1
DA:18,1
DA:19,1
DA:21,4
DA:22,1
DA:23,1
DA:24,1
DA:25,1
DA:27,4
DA:28,1
DA:29,1
DA:30,1
DA:31,1
DA:33,4
DA:34,1
DA:35,1
DA:36,1
DA:37,1
DA:39,4
DA:40,1
DA:41,1
DA:42,1
DA:43,1
DA:44,1
DA:46,4
DA:47,1
DA:48,1
DA:49,1
DA:52,1
DA:53,1
DA:55,4
DA:56,1
DA:57,1
DA:58,1
DA:59,1
DA:61,4
DA:62,1
DA:63,1
DA:64,1
DA:65,1
DA:67,4
DA:68,1
DA:69,1
DA:70,1
DA:71,1
DA:73,4
DA:74,1
DA:75,1
DA:76,1
DA:77,1
DA:79,4
DA:80,1
DA:81,1
DA:82,1
DA:83,1
DA:85,4
DA:87,1
DA:88,1
DA:89,1
DA:90,1
DA:92,4
DA:93,1
DA:94,1
DA:95,1
DA:96,1
DA:98,4
DA:99,1
DA:100,1
DA:101,1
DA:102,1
DA:104,4
DA:105,1
DA:106,1
DA:107,1
DA:108,1
DA:110,4
DA:113,2
DA:114,1
DA:115,1
DA:116,1
DA:118,4
DA:119,1
DA:120,1
DA:121,1
DA:122,1
DA:123,3
DA:128,1
DA:129,1
DA:131,4
DA:132,1
DA:133,1
DA:134,1
DA:135,1
DA:136,1
DA:138,4
DA:139,1
DA:140,1
DA:142,4
DA:143,3
DA:145,1
DA:147,1
DA:149,1
DA:150,1
DA:151,1
DA:153,4
DA:154,1
DA:155,1
DA:157,4
DA:158,3
DA:160,1
DA:161,1
DA:163,1
DA:164,1
DA:165,1
LF:116
LH:116
end_of_record
TN:
SF:/home/alex/labs3/build/_deps/googlebenchmark-src/test/benchmark_min_time_flag_iters_test.cc
FN:16,18,_ZN12_GLOBAL__N_112TestReporter13ReportContextERKN9benchmark17BenchmarkReporter7ContextE
FN:20,24,_ZN12_GLOBAL__N_112TestReporter10ReportRunsERKSt6vectorIN9benchmark17BenchmarkReporter3RunESaIS4_EE
FN:26,26,_ZN12_GLOBAL__N_112TestReporterC2Ev
FN:28,28,_ZN12_GLOBAL__N_112TestReporterD0Ev
FN:28,28,_ZN12_GLOBAL__N_112TestReporterD2Ev
FN:30,32,_ZNK12_GLOBAL__N_112TestReporter8GetItersEv
FN:40,43,_ZL10BM_MyBenchRN9benchmark5StateE
FN:46,66,main
FNDA:1,_ZN12_GLOBAL__N_112TestReporter13ReportContextERKN9benchmark17BenchmarkReporter7ContextE
FNDA:1,_ZN12_GLOBAL__N_112TestReporter10ReportRunsERKSt6vectorIN9benchmark17BenchmarkReporter3RunESaIS4_EE
FNDA:1,_ZN12_GLOBAL__N_112TestReporterC2Ev
FNDA:0,_ZN12_GLOBAL__N_112TestReporterD0Ev
FNDA:1,_ZN12_GLOBAL__N_112TestReporterD2Ev
FNDA:1,_ZNK12_GLOBAL__N_112TestReporter8GetItersEv
FNDA:1,_ZL10BM_MyBenchRN9benchmark5StateE
FNDA:1,main
FNF:8
FNH:7
DA:16,1
DA:17,1
DA:20,1
DA:21,1
DA:22,1
DA:23,1
DA:24,1
DA:26,1
DA:28,1
DA:30,1
DA:31,1
DA:40,1
DA:41,12
DA:43,1
DA:46,1
DA:48,1
DA:49,1
DA:50,2
DA:51,1
DA:53,1
DA:55,1
DA:57,1
DA:58,1
DA:61,1
DA:62,1
DA:64,1
DA:65,1
DA:66,1
LF:28
LH:28
end_of_record
TN:
SF:/home/alex/labs3/build/_deps/googlebenchmark-src/test/benchmark_min_time_flag_time_test.cc
FN:22,24,_ZN12_GLOBAL__N_112TestReporter13ReportContextERKN9benchmark17BenchmarkReporter7ContextE
FN:26,29,_ZN12_GLOBAL__N_112TestReporter10ReportRunsERKSt6vectorIN9benchmark17BenchmarkReporter3RunESaIS4_EE
FN:31,34,_ZN12_GLOBAL__N_112TestReporter16ReportRunsConfigEdbl
FN:36,36,_ZN12_GLOBAL__N_112TestReporterC2Ev
FN:38,38,_ZN12_GLOBAL__N_112TestReporterD0Ev
FN:38,38,_ZN12_GLOBAL__N_112TestReporterD2Ev
FN:40,40,_ZNK12_GLOBAL__N_112TestReporter11GetMinTimesEv
FN:46,48,_ZN12_GLOBAL__N_111AlmostEqualEdd
FN:50,61,_ZN12_GLOBAL__N_112DoTestHelperEPiPPKcd
FN:65,68,_ZL10BM_MyBenchRN9benchmark5StateE
FN:71,90,main
FNDA:2,_ZN12_GLOBAL__N_112TestReporter13ReportContextERKN9benchmark17BenchmarkReporter7ContextE
FNDA:2,_ZN12_GLOBAL__N_112TestReporter10ReportRunsERKSt6vectorIN9benchmark17BenchmarkReporter3RunESaIS4_EE
FNDA:2,_ZN12_GLOBAL__N_112TestReporter16ReportRunsConfigEdbl
FNDA:2,_ZN12_GLOBAL__N_112TestReporterC2Ev
FNDA:0,_ZN12_GLOBAL__N_112TestReporterD0Ev
FNDA:2,_ZN12_GLOBAL__N_112TestReporterD2Ev
FNDA:2,_ZNK12_GLOBAL__N_112TestReporter11GetMinTimesEv
FNDA:2,_ZN12_GLOBAL__N_111AlmostEqualEdd
FNDA:2,_ZN12_GLOBAL__N_112DoTestHelperEPiPPKcd
FNDA:20,_ZL10BM_MyBenchRN9benchmark5StateE
FNDA:1,main
FNF:11
FNH:10
DA:22,2
DA:23,2
DA:26,2
DA:27,2
DA:28,2
DA:29,2
DA:31,2
DA:33,2
DA:34,2
DA:36,2
DA:38,2
DA:40,2
DA:46,2
DA:47,2
DA:50,2
DA:51,2
DA:53,2
DA:55,2
DA:56,2
DA:59,2
DA:60,2
DA:61,2
DA:65,20
DA:66,4444444524
DA:68,20
DA:71,1
DA:73,1
DA:74,1
DA:76,2
DA:78,1
DA:79,1
DA:80,1
DA:82,1
DA:83,1
DA:85,1
DA:86,1
DA:88,1
DA:89,1
LF:38
LH:38
end_of_record
TN:
SF:/home/alex/labs3/build/_deps/googlebenchmark-src/test/benchmark_name_gtest.cc
FN:14,14,_ZN12_GLOBAL__N_135BenchmarkNameTest_FunctionName_Test8TestBodyEv
FN:14,14,_ZN12_GLOBAL__N_135BenchmarkNameTest_FunctionName_TestC2Ev
FN:14,14,_ZN12_GLOBAL__N_135BenchmarkNameTest_FunctionName_TestD0Ev
FN:14,14,_ZN12_GLOBAL__N_135BenchmarkNameTest_FunctionName_TestD2Ev
FN:20,20,_ZN12_GLOBAL__N_142BenchmarkNameTest_FunctionNameAndArgs_Test8TestBodyEv
FN:20,20,_ZN12_GLOBAL__N_142BenchmarkNameTest_FunctionNameAndArgs_TestC2Ev
FN:20,20,_ZN12_GLOBAL__N_142BenchmarkNameTest_FunctionNameAndArgs_TestD0Ev
FN:20,20,_ZN12_GLOBAL__N_142BenchmarkNameTest_FunctionNameAndArgs_TestD2Ev
FN:27,27,_ZN12_GLOBAL__N_130BenchmarkNameTest_MinTime_Test8TestBodyEv
FN:27,27,_ZN12_GLOBAL__N_130BenchmarkNameTest_MinTime_TestC2Ev
FN:27,27,_ZN12_GLOBAL__N_130BenchmarkNameTest_MinTime_TestD0Ev
FN:27,27,_ZN12_GLOBAL__N_130BenchmarkNameTest_MinTime_TestD2Ev
FN:35,35,_ZN12_GLOBAL__N_136BenchmarkNameTest_MinWarmUpTime_Test8TestBodyEv
FN:35,35,_ZN12_GLOBAL__N_136BenchmarkNameTest_MinWarmUpTime_TestC2Ev
FN:35,35,_ZN12_GLOBAL__N_136BenchmarkNameTest_MinWarmUpTime_TestD0Ev
FN:35,35,_ZN12_GLOBAL__N_136BenchmarkNameTest_MinWarmUpTime_TestD2Ev
FN:43,49,_ZN12_GLOBAL__N_133BenchmarkNameTest_Iterations_Test8TestBodyEv
FN:43,49,_ZN12_GLOBAL__N_133BenchmarkNameTest_Iterations_TestC2Ev
FN:43,49,_ZN12_GLOBAL__N_133BenchmarkNameTest_Iterations_TestD0Ev
FN:43,49,_ZN12_GLOBAL__N_133BenchmarkNameTest_Iterations_TestD2Ev
FN:51,51,_ZN12_GLOBAL__N_134BenchmarkNameTest_Repetitions_Test8TestBodyEv
FN:51,51,_ZN12_GLOBAL__N_134BenchmarkNameTest_Repetitions_TestC2Ev
FN:51,51,_ZN12_GLOBAL__N_134BenchmarkNameTest_Repetitions_TestD0Ev
FN:51,51,_ZN12_GLOBAL__N_134BenchmarkNameTest_Repetitions_TestD2Ev
FN:59,59,_ZN12_GLOBAL__N_131BenchmarkNameTest_TimeType_Test8TestBodyEv
FN:59,59,_ZN12_GLOBAL__N_131BenchmarkNameTest_TimeType_TestC2Ev
FN:59,59,_ZN12_GLOBAL__N_131BenchmarkNameTest_TimeType_TestD0Ev
FN:59,59,_ZN12_GLOBAL__N_131BenchmarkNameTest_TimeType_TestD2Ev
FN:67,67,_ZN12_GLOBAL__N_130BenchmarkNameTest_Threads_Test8TestBodyEv
FN:67,67,_ZN12_GLOBAL__N_130BenchmarkNameTest_Threads_TestC2Ev
FN:67,67,_ZN12_GLOBAL__N_130BenchmarkNameTest_Threads_TestD0Ev
FN:67,67,_ZN12_GLOBAL__N_130BenchmarkNameTest_Threads_TestD2Ev
FN:75,80,_ZN12_GLOBAL__N_144BenchmarkNameTest_TestEmptyFunctionName_Test8TestBodyEv
FN:75,80,_ZN12_GLOBAL__N_144BenchmarkNameTest_TestEmptyFunctionName_TestC2Ev
FN:75,80,_ZN12_GLOBAL__N_144BenchmarkNameTest_TestEmptyFunctionName_TestD0Ev
FN:75,80,_ZN12_GLOBAL__N_144BenchmarkNameTest_TestEmptyFunctionName_TestD2Ev
FN:9,9,_ZN12_GLOBAL__N_128BenchmarkNameTest_Empty_Test8TestBodyEv
FN:9,9,_ZN12_GLOBAL__N_128BenchmarkNameTest_Empty_TestC2Ev
FN:9,9,_ZN12_GLOBAL__N_128BenchmarkNameTest_Empty_TestD0Ev
FN:9,9,_ZN12_GLOBAL__N_128BenchmarkNameTest_Empty_TestD2Ev
FNDA:1,_ZN12_GLOBAL__N_135BenchmarkNameTest_FunctionName_Test8TestBodyEv
FNDA:1,_ZN12_GLOBAL__N_135BenchmarkNameTest_FunctionName_TestC2Ev
FNDA:1,_ZN12_GLOBAL__N_135BenchmarkNameTest_FunctionName_TestD0Ev
FNDA:1,_ZN12_GLOBAL__N_135BenchmarkNameTest_FunctionName_TestD2Ev
FNDA:1,_ZN12_GLOBAL__N_142BenchmarkNameTest_FunctionNameAndArgs_Test8TestBodyEv
FNDA:1,_ZN12_GLOBAL__N_142BenchmarkNameTest_FunctionNameAndArgs_TestC2Ev
FNDA:1,_ZN12_GLOBAL__N_142BenchmarkNameTest_FunctionNameAndArgs_TestD0Ev
FNDA:1,_ZN12_GLOBAL__N_142BenchmarkNameTest_FunctionNameAndArgs_TestD2Ev
FNDA:1,_ZN12_GLOBAL__N_130BenchmarkNameTest_MinTime_Test8TestBodyEv
FNDA:1,_ZN12_GLOBAL__N_130BenchmarkNameTest_MinTime_TestC2Ev
FNDA:1,_ZN12_GLOBAL__N_130BenchmarkNameTest_MinTime_TestD0Ev
FNDA:1,_ZN12_GLOBAL__N_130BenchmarkNameTest_MinTime_TestD2Ev
FNDA:1,_ZN12_GLOBAL__N_136BenchmarkNameTest_MinWarmUpTime_Test8TestBodyEv
FNDA:1,_ZN12_GLOBAL__N_136BenchmarkNameTest_MinWarmUpTime_TestC2Ev
FNDA:1,_ZN12_GLOBAL__N_136BenchmarkNameTest_MinWarmUpTime_TestD0Ev
FNDA:1,_ZN12_GLOBAL__N_136BenchmarkNameTest_MinWarmUpTime_TestD2Ev
FNDA:1,_ZN12_GLOBAL__N_133BenchmarkNameTest_Iterations_Test8TestBodyEv
FNDA:1,_ZN12_GLOBAL__N_133BenchmarkNameTest_Iterations_TestC2Ev
FNDA:1,_ZN12_GLOBAL__N_133BenchmarkNameTest_Iterations_TestD0Ev
FNDA:1,_ZN12_GLOBAL__N_133BenchmarkNameTest_Iterations_TestD2Ev
FNDA:1,_ZN12_GLOBAL__N_134BenchmarkNameTest_Repetitions_Test8TestBodyEv
FNDA:1,_ZN12_GLOBAL__N_134BenchmarkNameTest_Repetitions_TestC2Ev
FNDA:1,_ZN12_GLOBAL__N_134BenchmarkNameTest_Repetitions_TestD0Ev
FNDA:1,_ZN12_GLOBAL__N_134BenchmarkNameTest_Repetitions_TestD2Ev
FNDA:1,_ZN12_GLOBAL__N_131BenchmarkNameTest_TimeType_Test8TestBodyEv
FNDA:1,_ZN12_GLOBAL__N_131BenchmarkNameTest_TimeType_TestC2Ev
FNDA:1,_ZN12_GLOBAL__N_131BenchmarkNameTest_TimeType_TestD0Ev
FNDA:1,_ZN12_GLOBAL__N_131BenchmarkNameTest_TimeType_TestD2Ev
FNDA:1,_ZN12_GLOBAL__N_130BenchmarkNameTest_Threads_Test8TestBodyEv
FNDA:1,_ZN12_GLOBAL__N_130BenchmarkNameTest_Threads_TestC2Ev
FNDA:1,_ZN12_GLOBAL__N_130BenchmarkNameTest_Threads_TestD0Ev
FNDA:1,_ZN12_GLOBAL__N_130BenchmarkNameTest_Threads_TestD2Ev
FNDA:1,_ZN12_GLOBAL__N_144BenchmarkNameTest_TestEmptyFunctionName_Test8TestBodyEv
FNDA:1,_ZN12_GLOBAL__N_144BenchmarkNameTest_TestEmptyFunctionName_TestC2Ev
FNDA:1,_ZN12_GLOBAL__N_144BenchmarkNameTest_TestEmptyFunctionName_TestD0Ev
FNDA:1,_ZN12_GLOBAL__N_144BenchmarkNameTest_TestEmptyFunctionName_TestD2Ev
FNDA:1,_ZN12_GLOBAL__N_128BenchmarkNameTest_Empty_Test8TestBodyEv
FNDA:1,_ZN12_GLOBAL__N_128BenchmarkNameTest_Empty_TestC2Ev
FNDA:1,_ZN12_GLOBAL__N_128BenchmarkNameTest_Empty_TestD0Ev
FNDA:1,_ZN12_GLOBAL__N_128BenchmarkNameTest_Empty_TestD2Ev
FNF:40
FNH:40
DA:9,4
DA:10,1
DA:11,1
DA:12,1
DA:14,4
DA:15,1
DA:16,1
DA:17,1
DA:18,1
DA:20,4
DA:21,1
DA:22,1
DA:23,1
DA:24,1
DA:25,1
DA:27,4
DA:28,1
DA:29,1
DA:30,1
DA:31,1
DA:32,1
DA:33,1
DA:35,4
DA:36,1
DA:37,1
DA:38,1
DA:39,1
DA:40,1
DA:41,1
DA:43,4
DA:44,1
DA:45,1
DA:46,1
DA:47,1
DA:48,1
DA:49,1
DA:51,4
DA:52,1
DA:53,1
DA:54,1
DA:55,1
DA:56,1
DA:57,1
DA:59,4
DA:60,1
DA:61,1
DA:62,1
DA:63,1
DA:64,1
DA:65,1
DA:67,4
DA:68,1
DA:69,1
DA:70,1
DA:71,1
DA:72,1
DA:73,1
DA:75,4
DA:76,1
DA:77,1
DA:78,1
DA:79,1
DA:80,1
LF:63
LH:63
end_of_record
TN:
SF:/home/alex/labs3/build/_deps/googlebenchmark-src/test/benchmark_random_interleaving_gtest.cc
FN:102,122,_ZN9benchmark8internal12_GLOBAL__N_147BenchmarkTest_Match1WithRandomInterleaving_Test8TestBodyEv
FN:102,122,_ZN9benchmark8internal12_GLOBAL__N_147BenchmarkTest_Match1WithRandomInterleaving_TestC2Ev
FN:102,122,_ZN9benchmark8internal12_GLOBAL__N_147BenchmarkTest_Match1WithRandomInterleaving_TestD0Ev
FN:102,122,_ZN9benchmark8internal12_GLOBAL__N_147BenchmarkTest_Match1WithRandomInterleaving_TestD2Ev
FN:22,22,_ZN9benchmark8internal12_GLOBAL__N_110EventQueue3PutERKNSt7__cxx1112basic_stringIcSt11char_traitsIcESaIcEEE
FN:24,28,_ZN9benchmark8internal12_GLOBAL__N_110EventQueue5ClearEv
FN:30,34,_ZN9benchmark8internal12_GLOBAL__N_110EventQueue3GetEv
FN:41,41,_ZN9benchmark8internal12_GLOBAL__N_112NullReporter13ReportContextERKNS_17BenchmarkReporter7ContextE
FN:42,42,_ZN9benchmark8internal12_GLOBAL__N_112NullReporter10ReportRunsERKSt6vectorINS_17BenchmarkReporter3RunESaIS5_EE
FN:51,59,_ZN9benchmark8internal12_GLOBAL__N_113BenchmarkTest7ExecuteERKNSt7__cxx1112basic_stringIcSt11char_traitsIcESaIcEEE
FN:62,68,_ZN9benchmark8internal12_GLOBAL__N_19BM_Match1ERNS_5StateE
FN:78,78,_ZN9benchmark8internal12_GLOBAL__N_125BenchmarkTest_Match1_Test8TestBodyEv
FN:78,78,_ZN9benchmark8internal12_GLOBAL__N_125BenchmarkTest_Match1_TestC2Ev
FN:78,78,_ZN9benchmark8internal12_GLOBAL__N_125BenchmarkTest_Match1_TestD0Ev
FN:78,78,_ZN9benchmark8internal12_GLOBAL__N_125BenchmarkTest_Match1_TestD2Ev
FN:91,91,_ZN9benchmark8internal12_GLOBAL__N_139BenchmarkTest_Match1WithRepetition_Test8TestBodyEv
FN:91,91,_ZN9benchmark8internal12_GLOBAL__N_139BenchmarkTest_Match1WithRepetition_TestC2Ev
FN:91,91,_ZN9benchmark8internal12_GLOBAL__N_139BenchmarkTest_Match1WithRepetition_TestD0Ev
FN:91,91,_ZN9benchmark8internal12_GLOBAL__N_139BenchmarkTest_Match1WithRepetition_TestD2Ev
FNDA:1,_ZN9benchmark8internal12_GLOBAL__N_147BenchmarkTest_Match1WithRandomInterleaving_Test8TestBodyEv
FNDA:1,_ZN9benchmark8internal12_GLOBAL__N_147BenchmarkTest_Match1WithRandomInterleaving_TestC2Ev
FNDA:1,_ZN9benchmark8internal12_GLOBAL__N_147BenchmarkTest_Match1WithRandomInterleaving_TestD0Ev
FNDA:1,_ZN9benchmark8internal12_GLOBAL__N_147BenchmarkTest_Match1WithRandomInterleaving_TestD2Ev
FNDA:215,_ZN9benchmark8internal12_GLOBAL__N_110EventQueue3PutERKNSt7__cxx1112basic_stringIcSt11char_traitsIcESaIcEEE
FNDA:3,_ZN9benchmark8internal12_GLOBAL__N_110EventQueue5ClearEv
FNDA:215,_ZN9benchmark8internal12_GLOBAL__N_110EventQueue3GetEv
FNDA:3,_ZN9benchmark8internal12_GLOBAL__N_112NullReporter13ReportContextERKNS_17BenchmarkReporter7ContextE
FNDA:16,_ZN9benchmark8internal12_GLOBAL__N_112NullReporter10ReportRunsERKSt6vectorINS_17BenchmarkReporter3RunESaIS5_EE
FNDA:3,_ZN9benchmark8internal12_GLOBAL__N_113BenchmarkTest7ExecuteERKNSt7__cxx1112basic_stringIcSt11char_traitsIcESaIcEEE
FNDA:212,_ZN9benchmark8internal12_GLOBAL__N_19BM_Match1ERNS_5StateE
FNDA:1,_ZN9benchmark8internal12_GLOBAL__N_125BenchmarkTest_Match1_Test8TestBodyEv
FNDA:1,_ZN9benchmark8internal12_GLOBAL__N_125BenchmarkTest_Match1_TestC2Ev
FNDA:1,_ZN9benchmark8internal12_GLOBAL__N_125BenchmarkTest_Match1_TestD0Ev
FNDA:1,_ZN9benchmark8internal12_GLOBAL__N_125BenchmarkTest_Match1_TestD2Ev
FNDA:1,_ZN9benchmark8internal12_GLOBAL__N_139BenchmarkTest_Match1WithRepetition_Test8TestBodyEv
FNDA:1,_ZN9benchmark8internal12_GLOBAL__N_139BenchmarkTest_Match1WithRepetition_TestC2Ev
FNDA:1,_ZN9benchmark8internal12_GLOBAL__N_139BenchmarkTest_Match1WithRepetition_TestD0Ev
FNDA:1,_ZN9benchmark8internal12_GLOBAL__N_139BenchmarkTest_Match1WithRepetition_TestD2Ev
FNF:19
FNH:19
DA:22,215
DA:24,3
DA:25,3
DA:26,0
DA:28,3
DA:30,215
DA:31,215
DA:32,215
DA:33,215
DA:41,3
DA:42,16
DA:51,3
DA:52,3
DA:54,3
DA:55,3
DA:56,3
DA:58,6
DA:59,3
DA:62,212
DA:63,212
DA:65,43248
DA:67,212
DA:68,212
DA:78,4
DA:79,2
DA:80,1
DA:81,1
DA:82,1
DA:83,1
DA:84,1
DA:85,1
DA:86,1
DA:87,1
DA:88,1
DA:91,4
DA:92,1
DA:94,2
DA:95,1
DA:96,1
DA:97,1
DA:98,1
DA:99,1
DA:102,4
DA:103,1
DA:104,1
DA:106,1
DA:107,1
DA:108,2
DA:109,101
DA:110,100
DA:111,100
DA:112,100
DA:113,100
DA:114,100
DA:115,100
DA:116,200
DA:117,100
DA:118,3
DA:119,3
DA:120,1
DA:121,1
DA:122,1
LF:62
LH:61
end_of_record
TN:
SF:/home/alex/labs3/build/_deps/googlebenchmark-src/test/benchmark_setup_teardown_test.cc
FN:113,115,_ZL22DoSetupWithRepetitionsRKN9benchmark5StateE
FN:116,119,_ZL10BM_WithRepRN9benchmark5StateE
FN:130,157,main
FN:17,22,_ZL8DoSetup1RKN9benchmark5StateE
FN:24,27,_ZL11DoTeardown1RKN9benchmark5StateE
FN:29,32,_ZL13BM_with_setupRN9benchmark5StateE
FN:49,52,_ZL8DoSetup2RKN9benchmark5StateE
FN:54,57,_ZL11DoTeardown2RKN9benchmark5StateE
FN:59,63,_ZL13BM_concurrentRN9benchmark5StateE
FN:83,85,_ZN9MyFixture5SetUpERKN9benchmark5StateE
FN:87,87,_ZN9MyFixtureD0Ev
FN:87,87,_ZN9MyFixtureD2Ev
FN:90,93,_ZN34MyFixture_BM_WithFixture_Benchmark13BenchmarkCaseERN9benchmark5StateE
FN:90,93,_ZN34MyFixture_BM_WithFixture_BenchmarkC2Ev
FN:95,97,_ZL18DoSetupWithFixtureRKN9benchmark5StateE
FNDA:16,_ZL22DoSetupWithRepetitionsRKN9benchmark5StateE
FNDA:16,_ZL10BM_WithRepRN9benchmark5StateE
FNDA:1,main
FNDA:4,_ZL8DoSetup1RKN9benchmark5StateE
FNDA:4,_ZL11DoTeardown1RKN9benchmark5StateE
FNDA:4,_ZL13BM_with_setupRN9benchmark5StateE
FNDA:3,_ZL8DoSetup2RKN9benchmark5StateE
FNDA:3,_ZL11DoTeardown2RKN9benchmark5StateE
FNDA:30,_ZL13BM_concurrentRN9benchmark5StateE
FNDA:14,_ZN9MyFixture5SetUpERKN9benchmark5StateE
FNDA:0,_ZN9MyFixtureD0Ev
FNDA:2,_ZN9MyFixtureD2Ev
FNDA:14,_ZN34MyFixture_BM_WithFixture_Benchmark13BenchmarkCaseERN9benchmark5StateE
FNDA:2,_ZN34MyFixture_BM_WithFixture_BenchmarkC2Ev
FNDA:4,_ZL18DoSetupWithFixtureRKN9benchmark5StateE
FNF:15
FNH:14
DA:17,4
DA:18,4
DA:21,4
DA:22,4
DA:24,4
DA:25,4
DA:26,4
DA:27,4
DA:29,4
DA:30,816
DA:32,4
DA:49,3
DA:51,3
DA:52,3
DA:54,3
DA:56,3
DA:57,3
DA:59,30
DA:60,6119
DA:63,29
DA:83,14
DA:84,14
DA:85,14
DA:87,2
DA:90,20
DA:91,722364794
DA:93,14
DA:95,4
DA:96,4
DA:97,4
DA:113,16
DA:114,16
DA:115,16
DA:116,16
DA:117,3264
DA:119,16
DA:130,1
DA:131,1
DA:133,1
DA:134,1
DA:137,1
DA:138,1
DA:141,1
DA:142,1
DA:143,1
DA:147,1
DA:151,1
DA:154,1
DA:156,1
LF:49
LH:49
end_of_record
TN:
SF:/home/alex/labs3/build/_deps/googlebenchmark-src/test/benchmark_test.cc
FN:106,115,_Z13BM_SequentialINSt7__cxx114listIiSaIiEEEiEvRN9benchmark5StateE
FN:106,115,_Z13BM_SequentialISt6vectorIiSaIiEEiEvRN9benchmark5StateE
FN:124,132,_ZL16BM_StringCompareRN9benchmark5StateE
FN:135,152,_ZL16BM_SetupTeardownRN9benchmark5StateE
FN:155,161,_ZL11BM_LongTestRN9benchmark5StateE
FN:164,185,_ZL17BM_ParallelMemsetRN9benchmark5StateE
FN:188,208,_ZL15BM_ManualTimingRN9benchmark5StateE
FN:215,218,_Z12BM_with_argsIJNSt7__cxx1112basic_stringIcSt11char_traitsIcESaIcEEESt4pairIidEEEvRN9benchmark5StateEDpOT_
FN:215,218,_Z12BM_with_argsIJiiiEEvRN9benchmark5StateEDpOT_
FN:219,219,_ZNKL29benchmark_uniq_18BM_with_argsMUlRN9benchmark5StateEE_clES2_
FN:220,220,_ZNKL29benchmark_uniq_19BM_with_argsMUlRN9benchmark5StateEE_clES2_
FN:223,226,_Z20BM_non_template_argsRN9benchmark5StateEid
FN:227,227,_ZNKL37benchmark_uniq_20BM_non_template_argsMUlRN9benchmark5StateEE_clES2_
FN:231,248,_ZL20BM_DenseThreadRangesRN9benchmark5StateE
FN:253,259,_ZL16BM_BenchmarkNameRN9benchmark5StateE
FN:264,269,_Z17BM_templated_testISt7complexIdEEvRN9benchmark5StateE
FN:274,274,main
FN:30,32,_ZN12_GLOBAL__N_19FactorialEi
FN:34,42,_ZN12_GLOBAL__N_111CalculatePiEi
FN:44,48,_ZN12_GLOBAL__N_118ConstructRandomSetEl
FN:55,62,_ZL12BM_FactorialRN9benchmark5StateE
FN:66,72,_ZL19BM_CalculatePiRangeRN9benchmark5StateE
FN:75,81,_ZL14BM_CalculatePiRN9benchmark5StateE
FN:86,97,_ZL12BM_SetInsertRN9benchmark5StateE
FNDA:26,_Z13BM_SequentialINSt7__cxx114listIiSaIiEEEiEvRN9benchmark5StateE
FNDA:32,_Z13BM_SequentialISt6vectorIiSaIiEEiEvRN9benchmark5StateE
FNDA:53,_ZL16BM_StringCompareRN9benchmark5StateE
FNDA:71,_ZL16BM_SetupTeardownRN9benchmark5StateE
FNDA:9,_ZL11BM_LongTestRN9benchmark5StateE
FNDA:7,_ZL17BM_ParallelMemsetRN9benchmark5StateE
FNDA:34,_ZL15BM_ManualTimingRN9benchmark5StateE
FNDA:8,_Z12BM_with_argsIJNSt7__cxx1112basic_stringIcSt11char_traitsIcESaIcEEESt4pairIidEEEvRN9benchmark5StateEDpOT_
FNDA:8,_Z12BM_with_argsIJiiiEEvRN9benchmark5StateEDpOT_
FNDA:8,_ZNKL29benchmark_uniq_18BM_with_argsMUlRN9benchmark5StateEE_clES2_
FNDA:8,_ZNKL29benchmark_uniq_19BM_with_argsMUlRN9benchmark5StateEE_clES2_
FNDA:8,_Z20BM_non_template_argsRN9benchmark5StateEid
FNDA:8,_ZNKL37benchmark_uniq_20BM_non_template_argsMUlRN9benchmark5StateEE_clES2_
FNDA:289,_ZL20BM_DenseThreadRangesRN9benchmark5StateE
FNDA:8,_ZL16BM_BenchmarkNameRN9benchmark5StateE
FNDA:8,_Z17BM_templated_testISt7complexIdEEvRN9benchmark5StateE
FNDA:1,main
FNDA:8318984,_ZN12_GLOBAL__N_19FactorialEi
FNDA:1502863,_ZN12_GLOBAL__N_111CalculatePiEi
FNDA:1087,_ZN12_GLOBAL__N_118ConstructRandomSetEl
FNDA:14,_ZL12BM_FactorialRN9benchmark5StateE
FNDA:37,_ZL19BM_CalculatePiRangeRN9benchmark5StateE
FNDA:203,_ZL14BM_CalculatePiRN9benchmark5StateE
FNDA:21,_ZL12BM_SetInsertRN9benchmark5StateE
FNF:24
FNH:24
DA:30,8318984
DA:31,8318984
DA:34,1502863
DA:35,1502863
DA:36,42954226
DA:37,41451363
DA:38,41451363
DA:39,41451363
DA:41,1502863
DA:44,1087
DA:45,1087
DA:46,4834367
DA:47,1087
DA:48,0
DA:55,14
DA:56,14
DA:57,2079802
DA:59,14
DA:60,14
DA:61,14
DA:62,14
DA:66,37
DA:67,37
DA:68,4486060
DA:69,37
DA:70,37
DA:71,37
DA:72,37
DA:75,203
DA:77,8360
DA:78,7548
DA:81,202
DA:86,21
DA:87,21
DA:88,1171
DA:89,1087
DA:90,1087
DA:91,1087
DA:92,214270
DA:94,42
DA:95,42
DA:97,21
DA:106,58
DA:107,58
DA:108,2639262
DA:109,1319515
DA:110,7789287
DA:112,116
DA:114,58
DA:115,58
DA:124,53
DA:125,53
DA:126,106
DA:127,53
DA:128,11539146
DA:129,11538934
DA:132,53
DA:135,71
DA:136,71
DA:138,4
DA:140,71
DA:141,5198
DA:142,4864
DA:143,5040
DA:144,2538
DA:146,2502
DA:147,5040
DA:148,5040
DA:149,120
DA:150,4
DA:152,120
DA:155,9
DA:156,9
DA:157,87
DA:158,852361318
DA:159,426180608
DA:161,9
DA:164,7
DA:165,7
DA:166,14
DA:167,7
DA:168,7
DA:170,7
DA:171,6
DA:174,35
DA:175,4689227
DA:178,4689396
DA:182,7
DA:183,3
DA:185,7
DA:188,34
DA:189,34
DA:190,34
DA:192,34
DA:194,1875
DA:195,1739
DA:197,1739
DA:198,1739
DA:199,1739
DA:202,1739
DA:204,1739
DA:205,1739
DA:208,34
DA:215,16
DA:216,20616100
DA:218,16
DA:219,8
DA:220,24
DA:223,8
DA:224,4238529
DA:226,8
DA:227,8
DA:231,289
DA:232,289
DA:233,41
DA:234,95
DA:235,41
DA:236,53
DA:237,122
DA:238,53
DA:239,195
DA:240,555
DA:242,195
DA:243,0
DA:244,0
DA:246,10240240
DA:248,0
DA:253,8
DA:254,10097998
DA:258,8
DA:259,8
DA:264,8
DA:265,5080412
DA:266,5080380
DA:269,8
DA:274,1
LF:136
LH:132
end_of_record
TN:
SF:/home/alex/labs3/build/_deps/googlebenchmark-src/test/commandlineflags_gtest.cc
FN:154,154,_ZN9benchmark12_GLOBAL__N_126Int32FromEnv_NotInEnv_Test8TestBodyEv
FN:154,154,_ZN9benchmark12_GLOBAL__N_126Int32FromEnv_NotInEnv_TestC2Ev
FN:154,154,_ZN9benchmark12_GLOBAL__N_126Int32FromEnv_NotInEnv_TestD0Ev
FN:154,154,_ZN9benchmark12_GLOBAL__N_126Int32FromEnv_NotInEnv_TestD2Ev
FN:159,163,_ZN9benchmark12_GLOBAL__N_132Int32FromEnv_InvalidInteger_Test8TestBodyEv
FN:159,163,_ZN9benchmark12_GLOBAL__N_132Int32FromEnv_InvalidInteger_TestC2Ev
FN:159,163,_ZN9benchmark12_GLOBAL__N_132Int32FromEnv_InvalidInteger_TestD0Ev
FN:159,163,_ZN9benchmark12_GLOBAL__N_132Int32FromEnv_InvalidInteger_TestD2Ev
FN:165,169,_ZN9benchmark12_GLOBAL__N_130Int32FromEnv_ValidInteger_Test8TestBodyEv
FN:165,169,_ZN9benchmark12_GLOBAL__N_130Int32FromEnv_ValidInteger_TestC2Ev
FN:165,169,_ZN9benchmark12_GLOBAL__N_130Int32FromEnv_ValidInteger_TestD0Ev
FN:165,169,_ZN9benchmark12_GLOBAL__N_130Int32FromEnv_ValidInteger_TestD2Ev
FN:171,171,_ZN9benchmark12_GLOBAL__N_127DoubleFromEnv_NotInEnv_Test8TestBodyEv
FN:171,171,_ZN9benchmark12_GLOBAL__N_127DoubleFromEnv_NotInEnv_TestC2Ev
FN:171,171,_ZN9benchmark12_GLOBAL__N_127DoubleFromEnv_NotInEnv_TestD0Ev
FN:171,171,_ZN9benchmark12_GLOBAL__N_127DoubleFromEnv_NotInEnv_TestD2Ev
FN:176,176,_ZN9benchmark12_GLOBAL__N_130DoubleFromEnv_InvalidReal_Test8TestBodyEv
FN:176,176,_ZN9benchmark12_GLOBAL__N_130DoubleFromEnv_InvalidReal_TestC2Ev
FN:176,176,_ZN9benchmark12_GLOBAL__N_130DoubleFromEnv_InvalidReal_TestD0Ev
FN:176,176,_ZN9benchmark12_GLOBAL__N_130DoubleFromEnv_InvalidReal_TestD2Ev
FN:182,182,_ZN9benchmark12_GLOBAL__N_128DoubleFromEnv_ValidReal_Test8TestBodyEv
FN:182,182,_ZN9benchmark12_GLOBAL__N_128DoubleFromEnv_ValidReal_TestC2Ev
FN:182,182,_ZN9benchmark12_GLOBAL__N_128DoubleFromEnv_ValidReal_TestD0Ev
FN:182,182,_ZN9benchmark12_GLOBAL__N_128DoubleFromEnv_ValidReal_TestD2Ev
FN:188,188,_ZN9benchmark12_GLOBAL__N_126StringFromEnv_Default_Test8TestBodyEv
FN:188,188,_ZN9benchmark12_GLOBAL__N_126StringFromEnv_Default_TestC2Ev
FN:188,188,_ZN9benchmark12_GLOBAL__N_126StringFromEnv_Default_TestD0Ev
FN:188,188,_ZN9benchmark12_GLOBAL__N_126StringFromEnv_Default_TestD2Ev
FN:193,197,_ZN9benchmark12_GLOBAL__N_124StringFromEnv_Valid_Test8TestBodyEv
FN:193,197,_ZN9benchmark12_GLOBAL__N_124StringFromEnv_Valid_TestC2Ev
FN:193,197,_ZN9benchmark12_GLOBAL__N_124StringFromEnv_Valid_TestD0Ev
FN:193,197,_ZN9benchmark12_GLOBAL__N_124StringFromEnv_Valid_TestD2Ev
FN:199,199,_ZN9benchmark12_GLOBAL__N_127KvPairsFromEnv_Default_Test8TestBodyEv
FN:199,199,_ZN9benchmark12_GLOBAL__N_127KvPairsFromEnv_Default_TestC2Ev
FN:199,199,_ZN9benchmark12_GLOBAL__N_127KvPairsFromEnv_Default_TestD0Ev
FN:199,199,_ZN9benchmark12_GLOBAL__N_127KvPairsFromEnv_Default_TestD2Ev
FN:205,210,_ZN9benchmark12_GLOBAL__N_143KvPairsFromEnv_MalformedReturnsDefault_Test8TestBodyEv
FN:205,210,_ZN9benchmark12_GLOBAL__N_143KvPairsFromEnv_MalformedReturnsDefault_TestC2Ev
FN:205,210,_ZN9benchmark12_GLOBAL__N_143KvPairsFromEnv_MalformedReturnsDefault_TestD0Ev
FN:205,210,_ZN9benchmark12_GLOBAL__N_143KvPairsFromEnv_MalformedReturnsDefault_TestD2Ev
FN:212,217,_ZN9benchmark12_GLOBAL__N_126KvPairsFromEnv_Single_Test8TestBodyEv
FN:212,217,_ZN9benchmark12_GLOBAL__N_126KvPairsFromEnv_Single_TestC2Ev
FN:212,217,_ZN9benchmark12_GLOBAL__N_126KvPairsFromEnv_Single_TestD0Ev
FN:212,217,_ZN9benchmark12_GLOBAL__N_126KvPairsFromEnv_Single_TestD2Ev
FN:219,225,_ZN9benchmark12_GLOBAL__N_128KvPairsFromEnv_Multiple_Test8TestBodyEv
FN:219,225,_ZN9benchmark12_GLOBAL__N_128KvPairsFromEnv_Multiple_TestC2Ev
FN:219,225,_ZN9benchmark12_GLOBAL__N_128KvPairsFromEnv_Multiple_TestD0Ev
FN:219,225,_ZN9benchmark12_GLOBAL__N_128KvPairsFromEnv_Multiple_TestD2Ev
FN:27,27,_ZN9benchmark12_GLOBAL__N_124BoolFromEnv_Default_Test8TestBodyEv
FN:27,27,_ZN9benchmark12_GLOBAL__N_124BoolFromEnv_Default_TestC2Ev
FN:27,27,_ZN9benchmark12_GLOBAL__N_124BoolFromEnv_Default_TestD0Ev
FN:27,27,_ZN9benchmark12_GLOBAL__N_124BoolFromEnv_Default_TestD2Ev
FN:32,88,_ZN9benchmark12_GLOBAL__N_122BoolFromEnv_False_Test8TestBodyEv
FN:32,88,_ZN9benchmark12_GLOBAL__N_122BoolFromEnv_False_TestC2Ev
FN:32,88,_ZN9benchmark12_GLOBAL__N_122BoolFromEnv_False_TestD0Ev
FN:32,88,_ZN9benchmark12_GLOBAL__N_122BoolFromEnv_False_TestD2Ev
FN:90,90,_ZN9benchmark12_GLOBAL__N_121BoolFromEnv_True_Test8TestBodyEv
FN:90,90,_ZN9benchmark12_GLOBAL__N_121BoolFromEnv_True_TestC2Ev
FN:90,90,_ZN9benchmark12_GLOBAL__N_121BoolFromEnv_True_TestD0Ev
FN:90,90,_ZN9benchmark12_GLOBAL__N_121BoolFromEnv_True_TestD2Ev
FNDA:1,_ZN9benchmark12_GLOBAL__N_126Int32FromEnv_NotInEnv_Test8TestBodyEv
FNDA:1,_ZN9benchmark12_GLOBAL__N_126Int32FromEnv_NotInEnv_TestC2Ev
FNDA:1,_ZN9benchmark12_GLOBAL__N_126Int32FromEnv_NotInEnv_TestD0Ev
FNDA:1,_ZN9benchmark12_GLOBAL__N_126Int32FromEnv_NotInEnv_TestD2Ev
FNDA:1,_ZN9benchmark12_GLOBAL__N_132Int32FromEnv_InvalidInteger_Test8TestBodyEv
FNDA:1,_ZN9benchmark12_GLOBAL__N_132Int32FromEnv_InvalidInteger_TestC2Ev
FNDA:1,_ZN9benchmark12_GLOBAL__N_132Int32FromEnv_InvalidInteger_TestD0Ev
FNDA:1,_ZN9benchmark12_GLOBAL__N_132Int32FromEnv_InvalidInteger_TestD2Ev
FNDA:1,_ZN9benchmark12_GLOBAL__N_130Int32FromEnv_ValidInteger_Test8TestBodyEv
FNDA:1,_ZN9benchmark12_GLOBAL__N_130Int32FromEnv_ValidInteger_TestC2Ev
FNDA:1,_ZN9benchmark12_GLOBAL__N_130Int32FromEnv_ValidInteger_TestD0Ev
FNDA:1,_ZN9benchmark12_GLOBAL__N_130Int32FromEnv_ValidInteger_TestD2Ev
FNDA:1,_ZN9benchmark12_GLOBAL__N_127DoubleFromEnv_NotInEnv_Test8TestBodyEv
FNDA:1,_ZN9benchmark12_GLOBAL__N_127DoubleFromEnv_NotInEnv_TestC2Ev
FNDA:1,_ZN9benchmark12_GLOBAL__N_127DoubleFromEnv_NotInEnv_TestD0Ev
FNDA:1,_ZN9benchmark12_GLOBAL__N_127DoubleFromEnv_NotInEnv_TestD2Ev
FNDA:1,_ZN9benchmark12_GLOBAL__N_130DoubleFromEnv_InvalidReal_Test8TestBodyEv
FNDA:1,_ZN9benchmark12_GLOBAL__N_130DoubleFromEnv_InvalidReal_TestC2Ev
FNDA:1,_ZN9benchmark12_GLOBAL__N_130DoubleFromEnv_InvalidReal_TestD0Ev
FNDA:1,_ZN9benchmark12_GLOBAL__N_130DoubleFromEnv_InvalidReal_TestD2Ev
FNDA:1,_ZN9benchmark12_GLOBAL__N_128DoubleFromEnv_ValidReal_Test8TestBodyEv
FNDA:1,_ZN9benchmark12_GLOBAL__N_128DoubleFromEnv_ValidReal_TestC2Ev
FNDA:1,_ZN9benchmark12_GLOBAL__N_128DoubleFromEnv_ValidReal_TestD0Ev
FNDA:1,_ZN9benchmark12_GLOBAL__N_128DoubleFromEnv_ValidReal_TestD2Ev
FNDA:1,_ZN9benchmark12_GLOBAL__N_126StringFromEnv_Default_Test8TestBodyEv
FNDA:1,_ZN9benchmark12_GLOBAL__N_126StringFromEnv_Default_TestC2Ev
FNDA:1,_ZN9benchmark12_GLOBAL__N_126StringFromEnv_Default_TestD0Ev
FNDA:1,_ZN9benchmark12_GLOBAL__N_126StringFromEnv_Default_TestD2Ev
FNDA:1,_ZN9benchmark12_GLOBAL__N_124StringFromEnv_Valid_Test8TestBodyEv
FNDA:1,_ZN9benchmark12_GLOBAL__N_124StringFromEnv_Valid_TestC2Ev
FNDA:1,_ZN9benchmark12_GLOBAL__N_124StringFromEnv_Valid_TestD0Ev
FNDA:1,_ZN9benchmark12_GLOBAL__N_124StringFromEnv_Valid_TestD2Ev
FNDA:1,_ZN9benchmark12_GLOBAL__N_127KvPairsFromEnv_Default_Test8TestBodyEv
FNDA:1,_ZN9benchmark12_GLOBAL__N_127KvPairsFromEnv_Default_TestC2Ev
FNDA:1,_ZN9benchmark12_GLOBAL__N_127KvPairsFromEnv_Default_TestD0Ev
FNDA:1,_ZN9benchmark12_GLOBAL__N_127KvPairsFromEnv_Default_TestD2Ev
FNDA:1,_ZN9benchmark12_GLOBAL__N_143KvPairsFromEnv_MalformedReturnsDefault_Test8TestBodyEv
FNDA:1,_ZN9benchmark12_GLOBAL__N_143KvPairsFromEnv_MalformedReturnsDefault_TestC2Ev
FNDA:1,_ZN9benchmark12_GLOBAL__N_143KvPairsFromEnv_MalformedReturnsDefault_TestD0Ev
FNDA:1,_ZN9benchmark12_GLOBAL__N_143KvPairsFromEnv_MalformedReturnsDefault_TestD2Ev
FNDA:1,_ZN9benchmark12_GLOBAL__N_126KvPairsFromEnv_Single_Test8TestBodyEv
FNDA:1,_ZN9benchmark12_GLOBAL__N_126KvPairsFromEnv_Single_TestC2Ev
FNDA:1,_ZN9benchmark12_GLOBAL__N_126KvPairsFromEnv_Single_TestD0Ev
FNDA:1,_ZN9benchmark12_GLOBAL__N_126KvPairsFromEnv_Single_TestD2Ev
FNDA:1,_ZN9benchmark12_GLOBAL__N_128KvPairsFromEnv_Multiple_Test8TestBodyEv
FNDA:1,_ZN9benchmark12_GLOBAL__N_128KvPairsFromEnv_Multiple_TestC2Ev
FNDA:1,_ZN9benchmark12_GLOBAL__N_128KvPairsFromEnv_Multiple_TestD0Ev
FNDA:1,_ZN9benchmark12_GLOBAL__N_128KvPairsFromEnv_Multiple_TestD2Ev
FNDA:1,_ZN9benchmark12_GLOBAL__N_124BoolFromEnv_Default_Test8TestBodyEv
FNDA:1,_ZN9benchmark12_GLOBAL__N_124BoolFromEnv_Default_TestC2Ev
FNDA:1,_ZN9benchmark12_GLOBAL__N_124BoolFromEnv_Default_TestD0Ev
FNDA:1,_ZN9benchmark12_GLOBAL__N_124BoolFromEnv_Default_TestD2Ev
FNDA:1,_ZN9benchmark12_GLOBAL__N_122BoolFromEnv_False_Test8TestBodyEv
FNDA:1,_ZN9benchmark12_GLOBAL__N_122BoolFromEnv_False_TestC2Ev
FNDA:1,_ZN9benchmark12_GLOBAL__N_122BoolFromEnv_False_TestD0Ev
FNDA:1,_ZN9benchmark12_GLOBAL__N_122BoolFromEnv_False_TestD2Ev
FNDA:1,_ZN9benchmark12_GLOBAL__N_121BoolFromEnv_True_Test8TestBodyEv
FNDA:1,_ZN9benchmark12_GLOBAL__N_121BoolFromEnv_True_TestC2Ev
FNDA:1,_ZN9benchmark12_GLOBAL__N_121BoolFromEnv_True_TestD0Ev
FNDA:1,_ZN9benchmark12_GLOBAL__N_121BoolFromEnv_True_TestD2Ev
FNF:60
FNH:60
DA:27,4
DA:28,1
DA:29,1
DA:32,4
DA:33,1
DA:34,1
DA:35,1
DA:37,1
DA:38,1
DA:39,1
DA:41,1
DA:42,1
DA:43,1
DA:45,1
DA:46,1
DA:47,1
DA:49,1
DA:50,1
DA:51,1
DA:53,1
DA:54,1
DA:55,1
DA:57,1
DA:58,1
DA:59,1
DA:61,1
DA:62,1
DA:63,1
DA:65,1
DA:66,1
DA:67,1
DA:69,1
DA:70,1
DA:71,1
DA:73,1
DA:74,1
DA:75,1
DA:77,1
DA:78,1
DA:79,1
DA:81,1
DA:82,1
DA:83,1
DA:85,1
DA:86,1
DA:87,1
DA:90,4
DA:91,1
DA:92,1
DA:93,1
DA:95,1
DA:96,1
DA:97,1
DA:99,1
DA:100,1
DA:101,1
DA:103,1
DA:104,1
DA:105,1
DA:107,1
DA:108,1
DA:109,1
DA:111,1
DA:112,1
DA:113,1
DA:115,1
DA:116,1
DA:117,1
DA:119,1
DA:120,1
DA:121,1
DA:123,1
DA:124,1
DA:125,1
DA:127,1
DA:128,1
DA:129,1
DA:131,1
DA:132,1
DA:133,1
DA:135,1
DA:136,1
DA:137,1
DA:139,1
DA:140,1
DA:141,1
DA:143,1
DA:144,1
DA:145,1
DA:148,1
DA:149,1
DA:150,1
DA:154,4
DA:155,1
DA:156,1
DA:159,4
DA:160,1
DA:161,1
DA:162,1
DA:165,4
DA:166,1
DA:167,1
DA:168,1
DA:171,4
DA:172,1
DA:173,1
DA:176,4
DA:177,1
DA:178,1
DA:179,1
DA:182,4
DA:183,1
DA:184,1
DA:185,1
DA:188,4
DA:189,1
DA:190,1
DA:193,4
DA:194,1
DA:195,1
DA:196,1
DA:199,4
DA:200,1
DA:201,4
DA:202,1
DA:203,1
DA:205,4
DA:206,1
DA:207,4
DA:208,1
DA:209,1
DA:210,1
DA:212,4
DA:213,1
DA:214,1
DA:215,1
DA:216,1
DA:219,4
DA:220,1
DA:221,1
DA:223,1
DA:224,1
LF:142
LH:142
end_of_record
TN:
SF:/home/alex/labs3/build/_deps/googlebenchmark-src/test/complexity_test.cc
FN:110,117,_Z21ConstructRandomVectorl
FN:119,128,_Z17BM_Complexity_O_NRN9benchmark5StateE
FN:136,138,_ZNKL27benchmark_uniq_6_benchmark_MUllE_clEl
FN:16,62,_ZN12_GLOBAL__N_117AddComplexityTestERKNSt7__cxx1112basic_stringIcSt11char_traitsIcESaIcEEES7_S7_S7_i
FN:162,168,_ZL23BM_Complexity_O_N_log_NRN9benchmark5StateE
FN:177,179,_ZNKL27benchmark_uniq_9_benchmark_MUllE_clEl
FN:205,212,_Z24BM_ComplexityCaptureArgsRN9benchmark5StateEi
FN:214,214,_ZNKL41benchmark_uniq_11BM_ComplexityCaptureArgsMUlRN9benchmark5StateEE_clES2_
FN:228,228,main
FN:70,77,_Z16BM_Complexity_O1RN9benchmark5StateE
FN:82,82,_ZNKL27benchmark_uniq_4_benchmark_MUllE_clEl
FNDA:133,_Z21ConstructRandomVectorl
FNDA:80,_Z17BM_Complexity_O_NRN9benchmark5StateE
FNDA:28,_ZNKL27benchmark_uniq_6_benchmark_MUllE_clEl
FNDA:8,_ZN12_GLOBAL__N_117AddComplexityTestERKNSt7__cxx1112basic_stringIcSt11char_traitsIcESaIcEEES7_S7_S7_i
FNDA:53,_ZL23BM_Complexity_O_N_log_NRN9benchmark5StateE
FNDA:28,_ZNKL27benchmark_uniq_9_benchmark_MUllE_clEl
FNDA:32,_Z24BM_ComplexityCaptureArgsRN9benchmark5StateEi
FNDA:32,_ZNKL41benchmark_uniq_11BM_ComplexityCaptureArgsMUlRN9benchmark5StateEE_clES2_
FNDA:1,main
FNDA:105,_Z16BM_Complexity_O1RN9benchmark5StateE
FNDA:28,_ZNKL27benchmark_uniq_4_benchmark_MUllE_clEl
FNF:11
FNH:11
DA:16,8
DA:20,56
DA:23,8
DA:26,32
DA:31,208
DA:34,16
DA:48,16
DA:58,32
DA:61,8
DA:62,120
DA:70,105
DA:71,115863
DA:72,118329075
DA:76,105
DA:77,105
DA:82,28
DA:110,133
DA:111,133
DA:112,133
DA:113,1915013
DA:114,1914880
DA:116,133
DA:117,0
DA:119,80
DA:120,80
DA:122,80
DA:123,18484
DA:124,18164
DA:127,80
DA:128,80
DA:136,28
DA:137,28
DA:162,53
DA:163,53
DA:164,941
DA:165,729
DA:167,53
DA:168,53
DA:177,28
DA:178,28
DA:205,32
DA:206,41953706
DA:208,20976789
DA:211,32
DA:212,32
DA:214,32
DA:228,1
LF:47
LH:46
end_of_record
TN:
SF:/home/alex/labs3/build/_deps/googlebenchmark-src/test/cxx03_test.cc
FN:15,20,_Z8BM_emptyRN9benchmark5StateE
FN:25,30,_Z26BM_old_arg_range_interfaceRN9benchmark5StateE
FN:34,36,_Z12BM_template2IilEvRN9benchmark5StateE
FN:40,42,_Z12BM_template1IiEvRN9benchmark5StateE
FN:40,42,_Z12BM_template1IlEvRN9benchmark5StateE
FN:49,51,_ZN33BM_Fixture_BM_template1_Benchmark13BenchmarkCaseERN9benchmark5StateE
FN:49,51,_ZN33BM_Fixture_BM_template1_BenchmarkC2Ev
FN:52,54,_ZN33BM_Fixture_BM_template2_Benchmark13BenchmarkCaseERN9benchmark5StateE
FN:52,54,_ZN33BM_Fixture_BM_template2_BenchmarkC2Ev
FN:56,59,_Z11BM_countersRN9benchmark5StateE
FN:62,62,main
FNDA:56,_Z8BM_emptyRN9benchmark5StateE
FNDA:16,_Z26BM_old_arg_range_interfaceRN9benchmark5StateE
FNDA:8,_Z12BM_template2IilEvRN9benchmark5StateE
FNDA:8,_Z12BM_template1IiEvRN9benchmark5StateE
FNDA:8,_Z12BM_template1IlEvRN9benchmark5StateE
FNDA:8,_ZN33BM_Fixture_BM_template1_Benchmark13BenchmarkCaseERN9benchmark5StateE
FNDA:1,_ZN33BM_Fixture_BM_template1_BenchmarkC2Ev
FNDA:8,_ZN33BM_Fixture_BM_template2_Benchmark13BenchmarkCaseERN9benchmark5StateE
FNDA:1,_ZN33BM_Fixture_BM_template2_BenchmarkC2Ev
FNDA:8,_Z11BM_countersRN9benchmark5StateE
FNDA:1,main
FNF:11
FNH:11
DA:15,56
DA:16,26933723
DA:17,26933611
DA:18,26933611
DA:20,56
DA:25,16
DA:26,40
DA:28,8954010
DA:30,16
DA:34,8
DA:35,8
DA:36,8
DA:40,16
DA:41,16
DA:42,16
DA:49,11
DA:50,8
DA:51,8
DA:52,11
DA:53,8
DA:54,8
DA:56,8
DA:57,8
DA:58,8
DA:59,8
DA:62,1
LF:26
LH:26
end_of_record
TN:
SF:/home/alex/labs3/build/_deps/googlebenchmark-src/test/diagnostics_test.cc
FN:20,26,_Z11TestHandlerv
FN:28,44,_Z24try_invalid_pause_resumeRN9benchmark5StateE
FN:46,59,_Z18BM_diagnostic_testRN9benchmark5StateE
FN:62,75,_Z31BM_diagnostic_test_keep_runningRN9benchmark5StateE
FN:78,91,main
FNDA:8,_Z11TestHandlerv
FNDA:4,_Z24try_invalid_pause_resumeRN9benchmark5StateE
FNDA:8,_Z18BM_diagnostic_testRN9benchmark5StateE
FNDA:8,_Z31BM_diagnostic_test_keep_runningRN9benchmark5StateE
FNDA:1,main
FNF:5
FNH:5
DA:20,8
DA:22,8
DA:28,4
DA:32,4
DA:33,0
DA:34,4
DA:35,4
DA:37,4
DA:38,0
DA:39,4
DA:40,4
DA:44,4
DA:46,8
DA:49,8
DA:51,8450060
DA:52,4225014
DA:56,8
DA:58,8
DA:59,8
DA:62,8
DA:65,8
DA:67,3335558
DA:68,3335542
DA:72,8
DA:74,8
DA:75,8
DA:78,1
DA:87,1
DA:88,1
DA:89,1
DA:91,1
LF:31
LH:29
end_of_record
TN:
SF:/home/alex/labs3/build/_deps/googlebenchmark-src/test/display_aggregates_only_test.cc
FN:13,16,_Z16BM_SummaryRepeatRN9benchmark5StateE
FN:19,45,main
FNDA:10,_Z16BM_SummaryRepeatRN9benchmark5StateE
FNDA:1,main
FNF:2
FNH:2
DA:13,10
DA:14,28196946
DA:16,10
DA:19,1
DA:20,1
DA:22,3
DA:23,3
DA:24,3
DA:25,3
DA:26,2
DA:27,3
DA:28,3
DA:29,3
DA:39,0
DA:40,0
DA:41,0
DA:44,1
DA:45,1
LF:18
LH:15
end_of_record
TN:
SF:/home/alex/labs3/build/_deps/googlebenchmark-src/test/donotoptimize_test.cc
FN:29,69,main
FNDA:1,main
FNF:1
FNH:1
DA:9,1
DA:19,2
DA:20,2
DA:21,2
DA:22,2
DA:26,2
DA:29,1
DA:32,1
DA:33,1
DA:35,1
DA:36,1
DA:38,1
DA:39,1
DA:41,1
DA:42,1
DA:44,1
DA:45,1
DA:47,1
DA:48,1
DA:49,1
DA:50,1
DA:52,1
DA:53,1
DA:54,1
DA:55,1
DA:56,1
DA:58,1
DA:59,1
DA:62,1
DA:63,1
DA:67,1
DA:69,1
LF:32
LH:32
end_of_record
TN:
SF:/home/alex/labs3/build/_deps/googlebenchmark-src/test/filter_test.cc
FN:17,19,_ZN12_GLOBAL__N_112TestReporter13ReportContextERKN9benchmark17BenchmarkReporter7ContextE
FN:21,25,_ZN12_GLOBAL__N_112TestReporter10ReportRunsERKSt6vectorIN9benchmark17BenchmarkReporter3RunESaIS4_EE
FN:27,27,_ZN12_GLOBAL__N_112TestReporterC2Ev
FN:29,29,_ZN12_GLOBAL__N_112TestReporterD0Ev
FN:29,29,_ZN12_GLOBAL__N_112TestReporterD2Ev
FN:31,31,_ZNK12_GLOBAL__N_112TestReporter8GetCountEv
FN:33,33,_ZNK12_GLOBAL__N_112TestReporter17GetMaxFamilyIndexEv
FN:42,45,_ZL8NoPrefixRN9benchmark5StateE
FN:48,51,_ZL6BM_FooRN9benchmark5StateE
FN:54,57,_ZL6BM_BarRN9benchmark5StateE
FN:60,63,_ZL9BM_FooBarRN9benchmark5StateE
FN:66,69,_ZL8BM_FooBaRN9benchmark5StateE
FN:72,117,main
FNDA:15,_ZN12_GLOBAL__N_112TestReporter13ReportContextERKN9benchmark17BenchmarkReporter7ContextE
FNDA:45,_ZN12_GLOBAL__N_112TestReporter10ReportRunsERKSt6vectorIN9benchmark17BenchmarkReporter3RunESaIS4_EE
FNDA:36,_ZN12_GLOBAL__N_112TestReporterC2Ev
FNDA:0,_ZN12_GLOBAL__N_112TestReporterD0Ev
FNDA:36,_ZN12_GLOBAL__N_112TestReporterD2Ev
FNDA:36,_ZNK12_GLOBAL__N_112TestReporter8GetCountEv
FNDA:36,_ZNK12_GLOBAL__N_112TestReporter17GetMaxFamilyIndexEv
FNDA:72,_ZL8NoPrefixRN9benchmark5StateE
FNDA:72,_ZL6BM_FooRN9benchmark5StateE
FNDA:72,_ZL6BM_BarRN9benchmark5StateE
FNDA:72,_ZL9BM_FooBarRN9benchmark5StateE
FNDA:72,_ZL8BM_FooBaRN9benchmark5StateE
FNDA:36,main
FNF:13
FNH:12
DA:17,15
DA:18,15
DA:21,45
DA:22,45
DA:23,45
DA:24,45
DA:25,45
DA:27,36
DA:29,36
DA:31,36
DA:33,36
DA:42,72
DA:43,109998308
DA:45,72
DA:48,72
DA:49,103010604
DA:51,72
DA:54,72
DA:55,104831260
DA:57,72
DA:60,72
DA:61,103716602
DA:63,72
DA:66,72
DA:67,103271192
DA:69,72
DA:72,36
DA:73,36
DA:74,180
DA:75,288
DA:78,36
DA:80,36
DA:82,36
DA:84,36
DA:86,72
DA:88,36
DA:90,36
DA:91,0
DA:92,0
DA:93,0
DA:94,0
DA:97,36
DA:98,36
DA:99,36
DA:100,0
DA:101,0
DA:102,0
DA:103,0
DA:106,36
DA:107,36
DA:108,36
DA:109,0
DA:110,0
DA:111,0
DA:112,0
DA:114,36
DA:116,36
DA:117,36
LF:58
LH:46
end_of_record
TN:
SF:/home/alex/labs3/build/_deps/googlebenchmark-src/test/fixture_test.cc
FN:11,16,_ZN9MyFixture5SetUpERKN9benchmark5StateE
FN:18,23,_ZN9MyFixture8TearDownERKN9benchmark5StateE
FN:25,25,_ZN9MyFixtureD0Ev
FN:25,25,_ZN9MyFixtureD2Ev
FN:30,35,_ZN23MyFixture_Foo_Benchmark13BenchmarkCaseERN9benchmark5StateE
FN:30,35,_ZN23MyFixture_Foo_BenchmarkC2Ev
FN:37,47,_ZN23MyFixture_Bar_Benchmark13BenchmarkCaseERN9benchmark5StateE
FN:37,47,_ZN23MyFixture_Bar_BenchmarkC2Ev
FN:51,51,main
FNDA:87,_ZN9MyFixture5SetUpERKN9benchmark5StateE
FNDA:66,_ZN9MyFixture8TearDownERKN9benchmark5StateE
FNDA:0,_ZN9MyFixtureD0Ev
FNDA:3,_ZN9MyFixtureD2Ev
FNDA:8,_ZN23MyFixture_Foo_Benchmark13BenchmarkCaseERN9benchmark5StateE
FNDA:1,_ZN23MyFixture_Foo_BenchmarkC2Ev
FNDA:79,_ZN23MyFixture_Bar_Benchmark13BenchmarkCaseERN9benchmark5StateE
FNDA:2,_ZN23MyFixture_Bar_BenchmarkC2Ev
FNDA:1,main
FNF:9
FNH:8
DA:11,87
DA:12,87
DA:13,19
DA:14,19
DA:16,87
DA:18,66
DA:19,66
DA:20,19
DA:21,19
DA:23,66
DA:25,3
DA:30,11
DA:31,8
DA:32,8
DA:33,12012498
DA:35,8
DA:37,85
DA:38,79
DA:39,11
DA:40,11
DA:42,659619
DA:43,659277
DA:44,659258
DA:46,77
DA:47,58
DA:51,1
LF:26
LH:26
end_of_record
TN:
SF:/home/alex/labs3/build/_deps/googlebenchmark-src/test/internal_threading_test.cc
FN:122,131,_Z28BM_MainThreadAndWorkerThreadRN9benchmark5StateE
FN:17,28,_Z14MyBusySpinwaitv
FN:185,185,main
FN:37,44,_Z13BM_MainThreadRN9benchmark5StateE
FN:79,87,_Z15BM_WorkerThreadRN9benchmark5StateE
FNDA:18,_Z28BM_MainThreadAndWorkerThreadRN9benchmark5StateE
FNDA:72,_Z14MyBusySpinwaitv
FNDA:1,main
FNDA:18,_Z13BM_MainThreadRN9benchmark5StateE
FNDA:18,_Z15BM_WorkerThreadRN9benchmark5StateE
FNF:5
FNH:5
DA:17,72
DA:18,72
DA:21,8475899
DA:22,8480153
DA:24,8472985
DA:25,8480153
DA:26,71
DA:27,8475827
DA:37,18
DA:38,90
DA:39,18
DA:40,17
DA:42,18
DA:43,18
DA:44,18
DA:79,18
DA:80,90
DA:81,17
DA:82,18
DA:83,18
DA:84,18
DA:85,19
DA:86,18
DA:87,18
DA:122,18
DA:123,90
DA:124,18
DA:125,18
DA:126,18
DA:127,18
DA:128,18
DA:129,18
DA:130,18
DA:131,18
DA:185,1
LF:35
LH:35
end_of_record
TN:
SF:/home/alex/labs3/build/_deps/googlebenchmark-src/test/link_main_test.cc
FN:3,8,_Z8BM_emptyRN9benchmark5StateE
FNDA:9,_Z8BM_emptyRN9benchmark5StateE
FNF:1
FNH:1
DA:3,9
DA:4,14497156
DA:5,7248560
DA:8,9
LF:4
LH:4
end_of_record
TN:
SF:/home/alex/labs3/build/_deps/googlebenchmark-src/test/map_test.cc
FN:19,32,_ZL12BM_MapLookupRN9benchmark5StateE
FN:38,40,_ZN10MapFixture5SetUpERKN9benchmark5StateE
FN:42,42,_ZN10MapFixture8TearDownERKN9benchmark5StateE
FN:47,56,_ZN27MapFixture_Lookup_Benchmark13BenchmarkCaseERN9benchmark5StateE
FN:47,56,_ZN27MapFixture_Lookup_BenchmarkC2Ev
FN:59,59,main
FN:8,14,_ZN12_GLOBAL__N_118ConstructRandomMapEi
FNDA:14,_ZL12BM_MapLookupRN9benchmark5StateE
FNDA:14,_ZN10MapFixture5SetUpERKN9benchmark5StateE
FNDA:14,_ZN10MapFixture8TearDownERKN9benchmark5StateE
FNDA:14,_ZN27MapFixture_Lookup_Benchmark13BenchmarkCaseERN9benchmark5StateE
FNDA:1,_ZN27MapFixture_Lookup_BenchmarkC2Ev
FNDA:1,main
FNDA:11985,_ZN12_GLOBAL__N_118ConstructRandomMapEi
FNF:7
FNH:7
DA:8,11985
DA:9,11985
DA:10,304761
DA:11,292776
DA:13,11985
DA:14,0
DA:19,14
DA:20,14
DA:21,14
DA:22,12027
DA:23,11971
DA:24,11971
DA:25,11971
DA:26,294723
DA:27,282752
DA:31,14
DA:32,14
DA:38,14
DA:39,14
DA:40,14
DA:42,14
DA:47,17
DA:48,14
DA:49,14787
DA:50,330203
DA:51,315472
DA:55,14
DA:56,14
DA:59,1
LF:29
LH:28
end_of_record
TN:
SF:/home/alex/labs3/build/_deps/googlebenchmark-src/test/memory_manager_test.cc
FN:15,20,_Z8BM_emptyRN9benchmark5StateE
FN:41,47,main
FN:8,8,_ZN17TestMemoryManager5StartEv
FN:9,12,_ZN17TestMemoryManager4StopERN9benchmark13MemoryManager6ResultE
FNDA:9,_Z8BM_emptyRN9benchmark5StateE
FNDA:1,main
FNDA:1,_ZN17TestMemoryManager5StartEv
FNDA:1,_ZN17TestMemoryManager4StopERN9benchmark13MemoryManager6ResultE
FNF:4
FNH:4
DA:8,1
DA:9,1
DA:10,1
DA:11,1
DA:12,1
DA:15,9
DA:16,7994106
DA:17,3997035
DA:20,9
DA:41,1
DA:42,1
DA:44,1
DA:45,1
DA:46,1
DA:47,1
LF:15
LH:15
end_of_record
TN:
SF:/home/alex/labs3/build/_deps/googlebenchmark-src/test/min_time_parse_gtest.cc
FN:6,6,_ZN12_GLOBAL__N_134ParseMinTimeTest_InvalidInput_Test8TestBodyEv
FN:6,6,_ZN12_GLOBAL__N_134ParseMinTimeTest_InvalidInput_TestC2Ev
FN:6,6,_ZN12_GLOBAL__N_134ParseMinTimeTest_InvalidInput_TestD0Ev
FN:6,6,_ZN12_GLOBAL__N_134ParseMinTimeTest_InvalidInput_TestD2Ev
FNDA:1,_ZN12_GLOBAL__N_134ParseMinTimeTest_InvalidInput_Test8TestBodyEv
FNDA:1,_ZN12_GLOBAL__N_134ParseMinTimeTest_InvalidInput_TestC2Ev
FNDA:1,_ZN12_GLOBAL__N_134ParseMinTimeTest_InvalidInput_TestD0Ev
FNDA:1,_ZN12_GLOBAL__N_134ParseMinTimeTest_InvalidInput_TestD2Ev
FNF:4
FNH:4
DA:6,4
DA:11,1
DA:15,1
DA:19,1
DA:23,1
LF:5
LH:5
end_of_record
TN:
SF:/home/alex/labs3/build/_deps/googlebenchmark-src/test/multiple_ranges_test.cc
FN:10,29,_ZN21MultipleRangesFixtureC2Ev
FN:31,38,_ZN21MultipleRangesFixture5SetUpERKN9benchmark5StateE
FN:42,61,_ZN21MultipleRangesFixtureD0Ev
FN:42,61,_ZN21MultipleRangesFixtureD2Ev
FN:67,74,_ZN37MultipleRangesFixture_Empty_Benchmark13BenchmarkCaseERN9benchmark5StateE
FN:67,74,_ZN37MultipleRangesFixture_Empty_BenchmarkC2Ev
FN:81,87,_Z23BM_CheckDefaultArgumentRN9benchmark5StateE
FN:90,93,_ZL17BM_MultipleRangesRN9benchmark5StateE
FN:96,96,main
FNDA:1,_ZN21MultipleRangesFixtureC2Ev
FNDA:119,_ZN21MultipleRangesFixture5SetUpERKN9benchmark5StateE
FNDA:0,_ZN21MultipleRangesFixtureD0Ev
FNDA:1,_ZN21MultipleRangesFixtureD2Ev
FNDA:119,_ZN37MultipleRangesFixture_Empty_Benchmark13BenchmarkCaseERN9benchmark5StateE
FNDA:1,_ZN37MultipleRangesFixture_Empty_BenchmarkC2Ev
FNDA:48,_Z23BM_CheckDefaultArgumentRN9benchmark5StateE
FNDA:8,_ZL17BM_MultipleRangesRN9benchmark5StateE
FNDA:1,main
FNF:9
FNH:8
DA:10,1
DA:11,20
DA:29,4
DA:31,119
DA:32,238
DA:33,476
DA:35,119
DA:37,119
DA:38,119
DA:42,1
DA:43,1
DA:44,0
DA:45,0
DA:46,0
DA:47,0
DA:48,0
DA:50,0
DA:52,0
DA:53,0
DA:54,0
DA:55,0
DA:56,0
DA:58,0
DA:61,1
DA:67,122
DA:68,4916238
DA:69,4915762
DA:70,118691338
DA:74,119
DA:81,48
DA:83,96
DA:84,96
DA:85,78033076
DA:87,48
DA:90,8
DA:91,13113356
DA:93,8
DA:96,1
LF:38
LH:26
end_of_record
TN:
SF:/home/alex/labs3/build/_deps/googlebenchmark-src/test/options_test.cc
FN:11,14,_Z8BM_basicRN9benchmark5StateE
FN:16,22,_Z13BM_basic_slowRN9benchmark5StateE
FN:53,57,_Z10CustomArgsPN9benchmark8internal9BenchmarkE
FN:61,74,_Z27BM_explicit_iteration_countRN9benchmark5StateE
FN:77,77,main
FNDA:690,_Z8BM_basicRN9benchmark5StateE
FNDA:5,_Z13BM_basic_slowRN9benchmark5StateE
FNDA:1,_Z10CustomArgsPN9benchmark8internal9BenchmarkE
FNDA:1,_Z27BM_explicit_iteration_countRN9benchmark5StateE
FNDA:1,main
FNF:5
FNH:5
DA:11,690
DA:12,2174484041
DA:14,40386
DA:16,5
DA:17,5
DA:18,34
DA:19,14
DA:20,28
DA:22,5
DA:53,1
DA:54,11
DA:55,10
DA:57,1
DA:61,1
DA:65,1
DA:66,1
DA:69,1
DA:70,88
DA:72,1
DA:73,1
DA:74,1
DA:77,1
LF:22
LH:22
end_of_record
TN:
SF:/home/alex/labs3/build/_deps/googlebenchmark-src/test/output_test.h
FN:116,116,_ZNK7Results15DurationCPUTimeEv
FN:120,124,_ZNK7Results3GetERKNSt7__cxx1112basic_stringIcSt11char_traitsIcESaIcEEE
FN:134,138,_ZNK7Results12GetCounterAsIdEET_RKNSt7__cxx1112basic_stringIcSt11char_traitsIcESaIcEEE
FN:134,138,_ZNK7Results12GetCounterAsIiEET_RKNSt7__cxx1112basic_stringIcSt11char_traitsIcESaIcEEE
FN:142,151,_ZNK7Results5GetAsIdEET_RKNSt7__cxx1112basic_stringIcSt11char_traitsIcESaIcEEE
FN:98,98,_ZN7ResultsC2ERKNSt7__cxx1112basic_stringIcSt11char_traitsIcESaIcEEE
FNDA:74,_ZNK7Results15DurationCPUTimeEv
FNDA:663,_ZNK7Results3GetERKNSt7__cxx1112basic_stringIcSt11char_traitsIcESaIcEEE
FNDA:252,_ZNK7Results12GetCounterAsIdEET_RKNSt7__cxx1112basic_stringIcSt11char_traitsIcESaIcEEE
FNDA:176,_ZNK7Results12GetCounterAsIiEET_RKNSt7__cxx1112basic_stringIcSt11char_traitsIcESaIcEEE
FNDA:589,_ZNK7Results5GetAsIdEET_RKNSt7__cxx1112basic_stringIcSt11char_traitsIcESaIcEEE
FNDA:271,_ZN7ResultsC2ERKNSt7__cxx1112basic_stringIcSt11char_traitsIcESaIcEEE
FNF:6
FNH:6
DA:98,271
DA:116,74
DA:120,663
DA:121,663
DA:122,663
DA:123,663
DA:134,428
DA:135,428
DA:136,428
DA:137,428
DA:142,589
DA:143,589
DA:144,589
DA:145,589
DA:146,589
DA:148,589
DA:149,589
DA:150,589
DA:151,589
LF:19
LH:19
end_of_record
TN:
SF:/home/alex/labs3/build/_deps/googlebenchmark-src/test/output_test_helper.cc
FN:128,139,_ZN8internal12_GLOBAL__N_110CheckCasesERKSt6vectorI8TestCaseSaIS2_EERNSt7__cxx1118basic_stringstreamIcSt11char_traitsIcESaIcEEE
FN:143,144,_ZN8internal12_GLOBAL__N_112TestReporterC2ESt6vectorIPN9benchmark17BenchmarkReporterESaIS5_EE
FN:146,158,_ZN8internal12_GLOBAL__N_112TestReporter13ReportContextERKN9benchmark17BenchmarkReporter7ContextE
FN:160,162,_ZN8internal12_GLOBAL__N_112TestReporter10ReportRunsERKSt6vectorIN9benchmark17BenchmarkReporter3RunESaIS5_EE
FN:163,165,_ZN8internal12_GLOBAL__N_112TestReporter8FinalizeEv
FN:185,186,_ZN8internal14ResultsChecker12PatternAndFnC2ERKNSt7__cxx1112basic_stringIcSt11char_traitsIcESaIcEEESt8functionIFvRK7ResultsEE
FN:207,210,_ZN8internal17GetResultsCheckerEv
FN:213,216,_ZN8internal14ResultsChecker3AddERKNSt7__cxx1112basic_stringIcSt11char_traitsIcESaIcEEERKSt8functionIFvRK7ResultsEE
FN:219,258,_ZN8internal14ResultsChecker12CheckResultsERNSt7__cxx1118basic_stringstreamIcSt11char_traitsIcESaIcEEE
FN:261,263,_ZN8internal14ResultsChecker10SetHeader_ERKNSt7__cxx1112basic_stringIcSt11char_traitsIcESaIcEEE
FN:266,276,_ZN8internal14ResultsChecker10SetValues_ERKNSt7__cxx1112basic_stringIcSt11char_traitsIcESaIcEEE
FN:279,298,_ZN8internal14ResultsChecker9SplitCsv_ERKNSt7__cxx1112basic_stringIcSt11char_traitsIcESaIcEEE
FN:302,306,_Z10AddCheckerRKNSt7__cxx1112basic_stringIcSt11char_traitsIcESaIcEEERKSt8functionIFvRK7ResultsEE
FN:308,318,_ZNK7Results10NumThreadsEv
FN:32,37,_ZN8internal12_GLOBAL__N_115GetTestCaseListE10TestCaseID
FN:320,320,_ZNK7Results13NumIterationsEv
FN:322,342,_ZNK7Results7GetTimeENS_13BenchmarkTimeE
FN:348,359,_ZN8TestCaseC2ENSt7__cxx1112basic_stringIcSt11char_traitsIcESaIcEEEi
FN:361,365,_Z8AddCases10TestCaseIDSt16initializer_listI8TestCaseE
FN:367,383,_Z16SetSubstitutionsSt16initializer_listISt4pairINSt7__cxx1112basic_stringIcSt11char_traitsIcESaIcEEES6_EE
FN:389,446,_Z14RunOutputTestsiPPc
FN:39,79,_ZN8internal12_GLOBAL__N_116GetSubstitutionsEv
FN:404,410,_ZZ14RunOutputTestsiPPcEN12ReporterTestC2ERKNSt7__cxx1112basic_stringIcSt11char_traitsIcESaIcEEERSt6vectorI8TestCaseSaISB_EESE_RN9benchmark17BenchmarkReporterE
FN:450,457,_Z9SubstrCntRKNSt7__cxx1112basic_stringIcSt11char_traitsIcESaIcEEES6_
FN:459,462,_ZL5ToHexi
FN:464,468,_ZL13RandomHexCharv
FN:470,476,_ZL17GetRandomFileNamev
FN:478,481,_ZL10FileExistsRKNSt7__cxx1112basic_stringIcSt11char_traitsIcESaIcEEE
FN:483,494,_ZL15GetTempFileNamev
FN:496,519,_Z21GetFileReporterOutputB5cxx11iPPc
FN:81,93,_ZN8internal12_GLOBAL__N_120PerformSubstitutionsENSt7__cxx1112basic_stringIcSt11char_traitsIcESaIcEEE
FN:95,126,_ZN8internal12_GLOBAL__N_19CheckCaseERNSt7__cxx1118basic_stringstreamIcSt11char_traitsIcESaIcEEERK8TestCaseRKSt6vectorIS8_SaIS8_EE
FNDA:48,_ZN8internal12_GLOBAL__N_110CheckCasesERKSt6vectorI8TestCaseSaIS2_EERNSt7__cxx1118basic_stringstreamIcSt11char_traitsIcESaIcEEE
FNDA:8,_ZN8internal12_GLOBAL__N_112TestReporterC2ESt6vectorIPN9benchmark17BenchmarkReporterESaIS5_EE
FNDA:8,_ZN8internal12_GLOBAL__N_112TestReporter13ReportContextERKN9benchmark17BenchmarkReporter7ContextE
FNDA:203,_ZN8internal12_GLOBAL__N_112TestReporter10ReportRunsERKSt6vectorIN9benchmark17BenchmarkReporter3RunESaIS5_EE
FNDA:8,_ZN8internal12_GLOBAL__N_112TestReporter8FinalizeEv
FNDA:22,_ZN8internal14ResultsChecker12PatternAndFnC2ERKNSt7__cxx1112basic_stringIcSt11char_traitsIcESaIcEEESt8functionIFvRK7ResultsEE
FNDA:30,_ZN8internal17GetResultsCheckerEv
FNDA:22,_ZN8internal14ResultsChecker3AddERKNSt7__cxx1112basic_stringIcSt11char_traitsIcESaIcEEERKSt8functionIFvRK7ResultsEE
FNDA:8,_ZN8internal14ResultsChecker12CheckResultsERNSt7__cxx1118basic_stringstreamIcSt11char_traitsIcESaIcEEE
FNDA:8,_ZN8internal14ResultsChecker10SetHeader_ERKNSt7__cxx1112basic_stringIcSt11char_traitsIcESaIcEEE
FNDA:279,_ZN8internal14ResultsChecker10SetValues_ERKNSt7__cxx1112basic_stringIcSt11char_traitsIcESaIcEEE
FNDA:279,_ZN8internal14ResultsChecker9SplitCsv_ERKNSt7__cxx1112basic_stringIcSt11char_traitsIcESaIcEEE
FNDA:22,_Z10AddCheckerRKNSt7__cxx1112basic_stringIcSt11char_traitsIcESaIcEEERKSt8functionIFvRK7ResultsEE
FNDA:16,_ZNK7Results10NumThreadsEv
FNDA:273,_ZN8internal12_GLOBAL__N_115GetTestCaseListE10TestCaseID
FNDA:79,_ZNK7Results13NumIterationsEv
FNDA:74,_ZNK7Results7GetTimeENS_13BenchmarkTimeE
FNDA:1850,_ZN8TestCaseC2ENSt7__cxx1112basic_stringIcSt11char_traitsIcESaIcEEEi
FNDA:225,_Z8AddCases10TestCaseIDSt16initializer_listI8TestCaseE
FNDA:9,_Z16SetSubstitutionsSt16initializer_listISt4pairINSt7__cxx1112basic_stringIcSt11char_traitsIcESaIcEEES6_EE
FNDA:8,_Z14RunOutputTestsiPPc
FNDA:1909,_ZN8internal12_GLOBAL__N_116GetSubstitutionsEv
FNDA:24,_ZZ14RunOutputTestsiPPcEN12ReporterTestC2ERKNSt7__cxx1112basic_stringIcSt11char_traitsIcESaIcEEERSt6vectorI8TestCaseSaISB_EESE_RN9benchmark17BenchmarkReporterE
FNDA:11,_Z9SubstrCntRKNSt7__cxx1112basic_stringIcSt11char_traitsIcESaIcEEES6_
FNDA:12,_ZL5ToHexi
FNDA:12,_ZL13RandomHexCharv
FNDA:2,_ZL17GetRandomFileNamev
FNDA:2,_ZL10FileExistsRKNSt7__cxx1112basic_stringIcSt11char_traitsIcESaIcEEE
FNDA:2,_ZL15GetTempFileNamev
FNDA:2,_Z21GetFileReporterOutputB5cxx11iPPc
FNDA:1900,_ZN8internal12_GLOBAL__N_120PerformSubstitutionsENSt7__cxx1112basic_stringIcSt11char_traitsIcESaIcEEE
FNDA:1800,_ZN8internal12_GLOBAL__N_19CheckCaseERNSt7__cxx1118basic_stringstreamIcSt11char_traitsIcESaIcEEERK8TestCaseRKSt6vectorIS8_SaIS8_EE
FNF:32
FNH:32
DA:32,273
DA:35,327
DA:36,273
DA:39,1909
DA:42,1925
DA:43,1925
DA:44,1925
DA:52,16
DA:53,16
DA:54,16
DA:55,16
DA:56,16
DA:57,16
DA:58,16
DA:59,16
DA:60,16
DA:64,16
DA:65,16
DA:66,16
DA:67,16
DA:69,16
DA:71,16
DA:73,16
DA:74,24
DA:75,16
DA:76,2125
DA:78,1909
DA:79,144
DA:81,1900
DA:82,1900
DA:84,50270
DA:86,48370
DA:87,49470
DA:88,1100
DA:89,1100
DA:92,1900
DA:95,1800
DA:97,1800
DA:98,1800
DA:99,1800
DA:100,4211
DA:101,4211
DA:102,4211
DA:103,4211
DA:104,1800
DA:105,1800
DA:107,4286
DA:108,225
DA:110,75
DA:111,75
DA:112,150
DA:114,4211
DA:115,4822
DA:116,2411
DA:118,2411
DA:119,4822
DA:121,0
DA:122,0
DA:124,0
DA:125,0
DA:126,3600
DA:128,48
DA:129,48
DA:130,1873
DA:131,1825
DA:132,1825
DA:133,25
DA:134,25
DA:136,1800
DA:137,1800
DA:139,48
DA:143,8
DA:144,8
DA:146,8
DA:147,8
DA:148,8
DA:149,32
DA:150,24
DA:151,48
DA:152,48
DA:153,24
DA:154,24
DA:157,8
DA:160,203
DA:161,812
DA:162,203
DA:163,8
DA:164,32
DA:165,8
DA:185,22
DA:186,22
DA:207,30
DA:208,30
DA:209,30
DA:213,22
DA:215,22
DA:216,22
DA:219,8
DA:222,8
DA:224,8
DA:226,8
DA:228,8
DA:231,8
DA:232,8
DA:233,295
DA:234,287
DA:235,287
DA:236,287
DA:237,8
DA:238,8
DA:239,8
DA:241,279
DA:244,27
DA:245,19
DA:246,19
DA:247,469
DA:248,450
DA:249,399
DA:250,399
DA:252,51
DA:253,51
DA:254,51
DA:255,51
DA:258,8
DA:261,8
DA:262,8
DA:263,8
DA:266,279
DA:267,279
DA:268,271
DA:269,271
DA:270,271
DA:271,271
DA:272,271
DA:273,3010
DA:274,2739
DA:276,271
DA:279,279
DA:280,279
DA:281,279
DA:282,279
DA:283,279
DA:284,3104
DA:285,2825
DA:286,2825
DA:287,2825
DA:288,2825
DA:289,2825
DA:290,2825
DA:291,2825
DA:293,279
DA:294,279
DA:295,279
DA:296,279
DA:297,279
DA:298,0
DA:302,22
DA:303,22
DA:304,22
DA:305,22
DA:308,16
DA:309,16
DA:310,16
DA:311,16
DA:312,16
DA:313,16
DA:314,16
DA:315,16
DA:316,16
DA:317,16
DA:318,16
DA:320,237
DA:322,74
DA:323,74
DA:324,74
DA:325,148
DA:326,74
DA:327,74
DA:328,74
DA:329,74
DA:331,0
DA:332,0
DA:334,0
DA:335,0
DA:337,0
DA:338,0
DA:340,0
DA:348,1850
DA:349,1850
DA:350,1850
DA:351,1850
DA:352,1850
DA:353,1850
DA:354,1850
DA:355,5550
DA:356,1850
DA:357,1850
DA:358,3700
DA:359,1850
DA:361,225
DA:362,225
DA:363,225
DA:364,225
DA:367,9
DA:369,9
DA:370,59
DA:371,50
DA:372,50
DA:373,1371
DA:374,1363
DA:375,42
DA:376,42
DA:377,42
DA:380,50
DA:381,50
DA:382,9
DA:389,8
DA:391,8
DA:392,8
DA:393,8
DA:394,8
DA:395,8
DA:404,24
DA:407,24
DA:408,24
DA:409,24
DA:410,24
DA:412,8
DA:413,8
DA:414,16
DA:415,8
DA:416,16
DA:417,8
DA:418,64
DA:421,8
DA:422,16
DA:423,8
DA:425,32
DA:427,96
DA:428,24
DA:429,24
DA:431,24
DA:432,24
DA:434,24
DA:435,24
DA:437,24
DA:438,24
DA:442,8
DA:444,8
DA:445,8
DA:446,48
DA:450,11
DA:451,11
DA:452,11
DA:453,33
DA:454,22
DA:455,22
DA:456,11
DA:459,12
DA:460,12
DA:461,12
DA:464,12
DA:465,12
DA:466,12
DA:467,12
DA:470,2
DA:471,2
DA:472,24
DA:473,22
DA:475,2
DA:476,0
DA:478,2
DA:479,2
DA:480,4
DA:481,2
DA:483,2
DA:487,2
DA:488,2
DA:489,2
DA:490,4
DA:491,2
DA:492,0
DA:493,0
DA:496,2
DA:497,2
DA:498,2
DA:500,2
DA:501,2
DA:503,2
DA:504,2
DA:505,2
DA:507,2
DA:509,2
DA:510,2
DA:513,2
DA:515,2
DA:516,2
DA:518,4
DA:519,2
LF:299
LH:284
end_of_record
TN:
SF:/home/alex/labs3/build/_deps/googlebenchmark-src/test/perf_counters_gtest.cc
FN:100,100,_ZN12_GLOBAL__N_135PerfCountersTest_Read2Counters_Test8TestBodyEv
FN:100,100,_ZN12_GLOBAL__N_135PerfCountersTest_Read2Counters_TestC2Ev
FN:100,100,_ZN12_GLOBAL__N_135PerfCountersTest_Read2Counters_TestD0Ev
FN:100,100,_ZN12_GLOBAL__N_135PerfCountersTest_Read2Counters_TestD2Ev
FN:118,118,_ZN12_GLOBAL__N_144PerfCountersTest_ReopenExistingCounters_Test8TestBodyEv
FN:118,118,_ZN12_GLOBAL__N_144PerfCountersTest_ReopenExistingCounters_TestC2Ev
FN:118,118,_ZN12_GLOBAL__N_144PerfCountersTest_ReopenExistingCounters_TestD0Ev
FN:118,118,_ZN12_GLOBAL__N_144PerfCountersTest_ReopenExistingCounters_TestD2Ev
FN:135,135,_ZN12_GLOBAL__N_148PerfCountersTest_CreateExistingMeasurements_Test8TestBodyEv
FN:135,135,_ZN12_GLOBAL__N_148PerfCountersTest_CreateExistingMeasurements_TestC2Ev
FN:135,135,_ZN12_GLOBAL__N_148PerfCountersTest_CreateExistingMeasurements_TestD0Ev
FN:135,135,_ZN12_GLOBAL__N_148PerfCountersTest_CreateExistingMeasurements_TestD2Ev
FN:203,213,_ZN12_GLOBAL__N_17do_workEv
FN:215,233,_ZN12_GLOBAL__N_17measureEmPN9benchmark8internal17PerfCounterValuesES3_
FN:220,220,_ZZN12_GLOBAL__N_17measureEmPN9benchmark8internal17PerfCounterValuesES3_ENKUlvE_clEv
FN:235,267,_ZN12_GLOBAL__N_135PerfCountersTest_MultiThreaded_Test8TestBodyEv
FN:235,267,_ZN12_GLOBAL__N_135PerfCountersTest_MultiThreaded_TestC2Ev
FN:235,267,_ZN12_GLOBAL__N_135PerfCountersTest_MultiThreaded_TestD0Ev
FN:235,267,_ZN12_GLOBAL__N_135PerfCountersTest_MultiThreaded_TestD2Ev
FN:26,28,_ZN12_GLOBAL__N_126PerfCountersTest_Init_Test8TestBodyEv
FN:26,28,_ZN12_GLOBAL__N_126PerfCountersTest_Init_TestC2Ev
FN:26,28,_ZN12_GLOBAL__N_126PerfCountersTest_Init_TestD0Ev
FN:26,28,_ZN12_GLOBAL__N_126PerfCountersTest_Init_TestD2Ev
FN:269,305,_ZN12_GLOBAL__N_136PerfCountersTest_HardwareLimits_Test8TestBodyEv
FN:269,305,_ZN12_GLOBAL__N_136PerfCountersTest_HardwareLimits_TestC2Ev
FN:269,305,_ZN12_GLOBAL__N_136PerfCountersTest_HardwareLimits_TestD0Ev
FN:269,305,_ZN12_GLOBAL__N_136PerfCountersTest_HardwareLimits_TestD2Ev
FN:30,30,_ZN12_GLOBAL__N_132PerfCountersTest_OneCounter_Test8TestBodyEv
FN:30,30,_ZN12_GLOBAL__N_132PerfCountersTest_OneCounter_TestC2Ev
FN:30,30,_ZN12_GLOBAL__N_132PerfCountersTest_OneCounter_TestD0Ev
FN:30,30,_ZN12_GLOBAL__N_132PerfCountersTest_OneCounter_TestD2Ev
FN:38,82,_ZN12_GLOBAL__N_134PerfCountersTest_NegativeTest_Test8TestBodyEv
FN:38,82,_ZN12_GLOBAL__N_134PerfCountersTest_NegativeTest_TestC2Ev
FN:38,82,_ZN12_GLOBAL__N_134PerfCountersTest_NegativeTest_TestD0Ev
FN:38,82,_ZN12_GLOBAL__N_134PerfCountersTest_NegativeTest_TestD2Ev
FN:84,98,_ZN12_GLOBAL__N_134PerfCountersTest_Read1Counter_Test8TestBodyEv
FN:84,98,_ZN12_GLOBAL__N_134PerfCountersTest_Read1Counter_TestC2Ev
FN:84,98,_ZN12_GLOBAL__N_134PerfCountersTest_Read1Counter_TestD0Ev
FN:84,98,_ZN12_GLOBAL__N_134PerfCountersTest_Read1Counter_TestD2Ev
FNDA:1,_ZN12_GLOBAL__N_135PerfCountersTest_Read2Counters_Test8TestBodyEv
FNDA:1,_ZN12_GLOBAL__N_135PerfCountersTest_Read2Counters_TestC2Ev
FNDA:1,_ZN12_GLOBAL__N_135PerfCountersTest_Read2Counters_TestD0Ev
FNDA:1,_ZN12_GLOBAL__N_135PerfCountersTest_Read2Counters_TestD2Ev
FNDA:1,_ZN12_GLOBAL__N_144PerfCountersTest_ReopenExistingCounters_Test8TestBodyEv
FNDA:1,_ZN12_GLOBAL__N_144PerfCountersTest_ReopenExistingCounters_TestC2Ev
FNDA:1,_ZN12_GLOBAL__N_144PerfCountersTest_ReopenExistingCounters_TestD0Ev
FNDA:1,_ZN12_GLOBAL__N_144PerfCountersTest_ReopenExistingCounters_TestD2Ev
FNDA:1,_ZN12_GLOBAL__N_148PerfCountersTest_CreateExistingMeasurements_Test8TestBodyEv
FNDA:1,_ZN12_GLOBAL__N_148PerfCountersTest_CreateExistingMeasurements_TestC2Ev
FNDA:1,_ZN12_GLOBAL__N_148PerfCountersTest_CreateExistingMeasurements_TestD0Ev
FNDA:1,_ZN12_GLOBAL__N_148PerfCountersTest_CreateExistingMeasurements_TestD2Ev
FNDA:0,_ZN12_GLOBAL__N_17do_workEv
FNDA:0,_ZN12_GLOBAL__N_17measureEmPN9benchmark8internal17PerfCounterValuesES3_
FNDA:0,_ZZN12_GLOBAL__N_17measureEmPN9benchmark8internal17PerfCounterValuesES3_ENKUlvE_clEv
FNDA:1,_ZN12_GLOBAL__N_135PerfCountersTest_MultiThreaded_Test8TestBodyEv
FNDA:1,_ZN12_GLOBAL__N_135PerfCountersTest_MultiThreaded_TestC2Ev
FNDA:1,_ZN12_GLOBAL__N_135PerfCountersTest_MultiThreaded_TestD0Ev
FNDA:1,_ZN12_GLOBAL__N_135PerfCountersTest_MultiThreaded_TestD2Ev
FNDA:1,_ZN12_GLOBAL__N_126PerfCountersTest_Init_Test8TestBodyEv
FNDA:1,_ZN12_GLOBAL__N_126PerfCountersTest_Init_TestC2Ev
FNDA:1,_ZN12_GLOBAL__N_126PerfCountersTest_Init_TestD0Ev
FNDA:1,_ZN12_GLOBAL__N_126PerfCountersTest_Init_TestD2Ev
FNDA:1,_ZN12_GLOBAL__N_136PerfCountersTest_HardwareLimits_Test8TestBodyEv
FNDA:1,_ZN12_GLOBAL__N_136PerfCountersTest_HardwareLimits_TestC2Ev
FNDA:1,_ZN12_GLOBAL__N_136PerfCountersTest_HardwareLimits_TestD0Ev
FNDA:1,_ZN12_GLOBAL__N_136PerfCountersTest_HardwareLimits_TestD2Ev
FNDA:1,_ZN12_GLOBAL__N_132PerfCountersTest_OneCounter_Test8TestBodyEv
FNDA:1,_ZN12_GLOBAL__N_132PerfCountersTest_OneCounter_TestC2Ev
FNDA:1,_ZN12_GLOBAL__N_132PerfCountersTest_OneCounter_TestD0Ev
FNDA:1,_ZN12_GLOBAL__N_132PerfCountersTest_OneCounter_TestD2Ev
FNDA:1,_ZN12_GLOBAL__N_134PerfCountersTest_NegativeTest_Test8TestBodyEv
FNDA:1,_ZN12_GLOBAL__N_134PerfCountersTest_NegativeTest_TestC2Ev
FNDA:1,_ZN12_GLOBAL__N_134PerfCountersTest_NegativeTest_TestD0Ev
FNDA:1,_ZN12_GLOBAL__N_134PerfCountersTest_NegativeTest_TestD2Ev
FNDA:1,_ZN12_GLOBAL__N_134PerfCountersTest_Read1Counter_Test8TestBodyEv
FNDA:1,_ZN12_GLOBAL__N_134PerfCountersTest_Read1Counter_TestC2Ev
FNDA:1,_ZN12_GLOBAL__N_134PerfCountersTest_Read1Counter_TestD0Ev
FNDA:1,_ZN12_GLOBAL__N_134PerfCountersTest_Read1Counter_TestD2Ev
FNF:39
FNH:36
DA:26,4
DA:27,1
DA:28,1
DA:30,4
DA:31,1
DA:32,1
DA:34,0
DA:35,0
DA:36,0
DA:38,4
DA:39,1
DA:40,1
DA:41,1
DA:43,0
DA:48,0
DA:49,0
DA:50,0
DA:55,0
DA:56,0
DA:57,0
DA:58,0
DA:59,0
DA:62,0
DA:63,0
DA:64,0
DA:65,0
DA:66,0
DA:67,0
DA:70,0
DA:72,0
DA:76,0
DA:77,0
DA:78,0
DA:79,0
DA:80,0
DA:81,0
DA:82,0
DA:84,4
DA:85,1
DA:86,1
DA:88,0
DA:89,0
DA:90,0
DA:91,0
DA:92,0
DA:93,0
DA:94,0
DA:95,0
DA:96,0
DA:97,0
DA:98,0
DA:100,4
DA:101,1
DA:102,1
DA:104,0
DA:106,0
DA:107,0
DA:108,0
DA:109,0
DA:110,0
DA:111,0
DA:112,0
DA:113,0
DA:114,0
DA:115,0
DA:116,0
DA:118,4
DA:121,1
DA:122,1
DA:124,0
DA:125,0
DA:126,0
DA:127,0
DA:128,0
DA:130,0
DA:131,0
DA:132,0
DA:133,0
DA:135,4
DA:140,1
DA:141,1
DA:143,0
DA:149,0
DA:150,0
DA:154,0
DA:160,0
DA:162,0
DA:163,0
DA:164,0
DA:165,0
DA:168,0
DA:171,0
DA:172,0
DA:173,0
DA:174,0
DA:175,0
DA:176,0
DA:177,0
DA:181,0
DA:184,0
DA:185,0
DA:186,0
DA:190,0
DA:191,0
DA:192,0
DA:194,0
DA:196,0
DA:203,0
DA:204,0
DA:205,0
DA:206,0
DA:207,0
DA:208,0
DA:209,0
DA:212,0
DA:215,0
DA:217,0
DA:218,0
DA:219,0
DA:220,0
DA:228,0
DA:229,0
DA:231,0
DA:233,0
DA:235,4
DA:236,1
DA:237,1
DA:239,0
DA:240,0
DA:241,0
DA:247,0
DA:249,0
DA:250,0
DA:254,0
DA:256,0
DA:257,0
DA:265,0
DA:266,0
DA:269,4
DA:274,1
DA:275,1
DA:277,0
DA:288,0
DA:293,0
DA:294,0
DA:295,0
DA:296,0
DA:299,0
DA:301,0
DA:304,0
DA:305,0
LF:151
LH:28
end_of_record
TN:
SF:/home/alex/labs3/build/_deps/googlebenchmark-src/test/perf_counters_test.cc
FN:15,20,_ZL9BM_SimpleRN9benchmark5StateE
FN:26,35,_Z21BM_WithoutPauseResumeRN9benchmark5StateE
FN:40,56,_Z18BM_WithPauseResumeRN9benchmark5StateE
FN:62,64,_ZL11CheckSimpleRK7Results
FN:69,71,_ZL27SaveInstrCountWithoutResumeRK7Results
FN:73,75,_ZL24SaveInstrCountWithResumeRK7Results
FN:81,92,main
FNDA:0,_ZL9BM_SimpleRN9benchmark5StateE
FNDA:0,_Z21BM_WithoutPauseResumeRN9benchmark5StateE
FNDA:0,_Z18BM_WithPauseResumeRN9benchmark5StateE
FNDA:0,_ZL11CheckSimpleRK7Results
FNDA:0,_ZL27SaveInstrCountWithoutResumeRK7Results
FNDA:0,_ZL24SaveInstrCountWithResumeRK7Results
FNDA:1,main
FNF:7
FNH:1
DA:15,0
DA:16,0
DA:17,0
DA:20,0
DA:26,0
DA:27,0
DA:29,0
DA:30,0
DA:31,0
DA:35,0
DA:40,0
DA:41,0
DA:43,0
DA:44,0
DA:45,0
DA:49,0
DA:50,0
DA:51,0
DA:54,0
DA:56,0
DA:62,0
DA:63,0
DA:64,0
DA:69,0
DA:70,0
DA:71,0
DA:73,0
DA:74,0
DA:75,0
DA:81,1
DA:82,1
DA:83,1
DA:85,0
DA:86,0
DA:87,0
DA:89,0
DA:90,0
DA:91,0
DA:92,0
LF:39
LH:3
end_of_record
TN:
SF:/home/alex/labs3/build/_deps/googlebenchmark-src/test/register_benchmark_test.cc
FN:101,104,_Z20DISABLED_BM_functionRN9benchmark5StateE
FN:115,118,_ZN13CustomFixtureclERN9benchmark5StateE
FN:121,141,_Z25TestRegistrationAtRuntimev
FN:13,16,_ZN12_GLOBAL__N_112TestReporter10ReportRunsERKSt6vectorIN9benchmark17BenchmarkReporter3RunESaIS4_EE
FN:132,136,_ZZ25TestRegistrationAtRuntimevENKUlRN9benchmark5StateEE_clES1_
FN:145,160,_Z10RunTestOnev
FN:165,189,_Z10RunTestTwov
FN:191,196,main
FN:25,25,_ZN12_GLOBAL__N_18TestCaseC2ERKNSt7__cxx1112basic_stringIcSt11char_traitsIcESaIcEEE
FN:26,27,_ZN12_GLOBAL__N_18TestCaseC2ERKNSt7__cxx1112basic_stringIcSt11char_traitsIcESaIcEEES8_
FN:31,42,_ZNK12_GLOBAL__N_18TestCase8CheckRunERKN9benchmark17BenchmarkReporter3RunE
FN:47,52,_ZN12_GLOBAL__N_18AddCasesERKSt16initializer_listINS_8TestCaseEE
FN:65,68,_Z11BM_functionRN9benchmark5StateE
FN:81,85,_Z13BM_extra_argsRN9benchmark5StateEPKc
FN:86,92,_Z20RegisterFromFunctionv
FNDA:0,_Z20DISABLED_BM_functionRN9benchmark5StateE
FNDA:16,_ZN13CustomFixtureclERN9benchmark5StateE
FNDA:2,_Z25TestRegistrationAtRuntimev
FNDA:9,_ZN12_GLOBAL__N_112TestReporter10ReportRunsERKSt6vectorIN9benchmark17BenchmarkReporter3RunESaIS4_EE
FNDA:16,_ZZ25TestRegistrationAtRuntimevENKUlRN9benchmark5StateEE_clES1_
FNDA:1,_Z10RunTestOnev
FNDA:1,_Z10RunTestTwov
FNDA:1,main
FNDA:4,_ZN12_GLOBAL__N_18TestCaseC2ERKNSt7__cxx1112basic_stringIcSt11char_traitsIcESaIcEEE
FNDA:9,_ZN12_GLOBAL__N_18TestCaseC2ERKNSt7__cxx1112basic_stringIcSt11char_traitsIcESaIcEEES8_
FNDA:9,_ZNK12_GLOBAL__N_18TestCase8CheckRunERKN9benchmark17BenchmarkReporter3RunE
FNDA:6,_ZN12_GLOBAL__N_18AddCasesERKSt16initializer_listINS_8TestCaseEE
FNDA:16,_Z11BM_functionRN9benchmark5StateE
FNDA:24,_Z13BM_extra_argsRN9benchmark5StateEPKc
FNDA:1,_Z20RegisterFromFunctionv
FNF:15
FNH:14
DA:13,9
DA:14,18
DA:15,9
DA:16,9
DA:25,12
DA:26,9
DA:27,9
DA:31,9
DA:33,27
DA:34,18
DA:35,9
DA:36,15
DA:37,10
DA:39,4
DA:42,9
DA:47,6
DA:48,15
DA:49,9
DA:51,6
DA:65,16
DA:66,21343780
DA:68,16
DA:81,24
DA:82,32219094
DA:84,24
DA:85,24
DA:86,1
DA:87,1
DA:89,4
DA:90,9
DA:91,1
DA:101,0
DA:102,0
DA:104,0
DA:115,16
DA:116,24272222
DA:118,16
DA:121,2
DA:125,2
DA:126,6
DA:131,2
DA:132,16
DA:133,27453314
DA:135,16
DA:136,18
DA:137,2
DA:138,4
DA:141,12
DA:145,1
DA:146,1
DA:148,1
DA:149,1
DA:152,1
DA:154,8
DA:155,7
DA:156,7
DA:157,7
DA:159,1
DA:160,1
DA:165,1
DA:166,1
DA:168,1
DA:169,1
DA:171,1
DA:172,1
DA:173,1
DA:174,1
DA:176,1
DA:177,1
DA:178,1
DA:181,1
DA:183,3
DA:184,2
DA:185,2
DA:186,2
DA:188,1
DA:189,1
DA:191,1
DA:192,1
DA:194,1
DA:195,1
DA:196,1
LF:82
LH:79
end_of_record
TN:
SF:/home/alex/labs3/build/_deps/googlebenchmark-src/test/repetitions_test.cc
FN:111,114,_ZL22BM_ImplicitRepetitionsRN9benchmark5StateE
FN:214,214,main
FN:9,12,_ZL22BM_ExplicitRepetitionsRN9benchmark5StateE
FNDA:10,_ZL22BM_ImplicitRepetitionsRN9benchmark5StateE
FNDA:1,main
FNDA:9,_ZL22BM_ExplicitRepetitionsRN9benchmark5StateE
FNF:3
FNH:3
DA:9,9
DA:10,23271210
DA:12,9
DA:111,10
DA:112,35581116
DA:114,10
DA:214,1
LF:7
LH:7
end_of_record
TN:
SF:/home/alex/labs3/build/_deps/googlebenchmark-src/test/report_aggregates_only_test.cc
FN:13,16,_Z16BM_SummaryRepeatRN9benchmark5StateE
FN:19,41,main
FNDA:10,_Z16BM_SummaryRepeatRN9benchmark5StateE
FNDA:1,main
FNF:2
FNH:2
DA:13,10
DA:14,31658724
DA:16,10
DA:19,1
DA:20,1
DA:22,3
DA:23,3
DA:24,3
DA:25,2
DA:26,3
DA:27,3
DA:28,3
DA:35,0
DA:36,0
DA:37,0
DA:40,1
DA:41,1
LF:17
LH:14
end_of_record
TN:
SF:/home/alex/labs3/build/_deps/googlebenchmark-src/test/reporter_output_test.cc
FN:1118,1122,_Z13BM_CSV_FormatRN9benchmark5StateE
FN:1130,1130,main
FN:125,132,_Z19BM_items_per_secondRN9benchmark5StateE
FN:157,161,_Z8BM_labelRN9benchmark5StateE
FN:16,59,_ZL15AddContextCasesv
FN:186,189,_Z24BM_time_label_nanosecondRN9benchmark5StateE
FN:209,212,_Z25BM_time_label_microsecondRN9benchmark5StateE
FN:232,235,_Z25BM_time_label_millisecondRN9benchmark5StateE
FN:255,258,_Z20BM_time_label_secondRN9benchmark5StateE
FN:281,285,_Z8BM_errorRN9benchmark5StateE
FN:306,309,_Z14BM_no_arg_nameRN9benchmark5StateE
FN:326,329,_Z11BM_arg_nameRN9benchmark5StateE
FN:346,349,_Z12BM_arg_namesRN9benchmark5StateE
FN:368,371,_Z7BM_nameRN9benchmark5StateE
FN:394,397,_Z10BM_BigArgsRN9benchmark5StateE
FN:406,413,_Z16BM_Complexity_O1RN9benchmark5StateE
FN:425,428,_Z9BM_RepeatRN9benchmark5StateE
FN:639,642,_Z13BM_RepeatOnceRN9benchmark5StateE
FN:656,659,_Z16BM_SummaryRepeatRN9benchmark5StateE
FN:67,70,_Z8BM_basicRN9benchmark5StateE
FN:707,710,_Z17BM_SummaryDisplayRN9benchmark5StateE
FN:757,760,_Z17BM_RepeatTimeUnitRN9benchmark5StateE
FN:818,820,_ZNKL14UserStatisticsMUlRKSt6vectorIdSaIdEEE_clES4_
FN:821,825,_Z12BM_UserStatsRN9benchmark5StateE
FN:93,100,_Z19BM_bytes_per_secondRN9benchmark5StateE
FN:949,951,_ZNKL21UserPercentStatisticsMUlRKSt6vectorIdSaIdEEE_clES4_
FN:952,956,_Z19BM_UserPercentStatsRN9benchmark5StateE
FNDA:1,_Z13BM_CSV_FormatRN9benchmark5StateE
FNDA:1,main
FNDA:8,_Z19BM_items_per_secondRN9benchmark5StateE
FNDA:8,_Z8BM_labelRN9benchmark5StateE
FNDA:1,_ZL15AddContextCasesv
FNDA:8,_Z24BM_time_label_nanosecondRN9benchmark5StateE
FNDA:8,_Z25BM_time_label_microsecondRN9benchmark5StateE
FNDA:8,_Z25BM_time_label_millisecondRN9benchmark5StateE
FNDA:8,_Z20BM_time_label_secondRN9benchmark5StateE
FNDA:1,_Z8BM_errorRN9benchmark5StateE
FNDA:8,_Z14BM_no_arg_nameRN9benchmark5StateE
FNDA:8,_Z11BM_arg_nameRN9benchmark5StateE
FNDA:8,_Z12BM_arg_namesRN9benchmark5StateE
FNDA:8,_Z7BM_nameRN9benchmark5StateE
FNDA:16,_Z10BM_BigArgsRN9benchmark5StateE
FNDA:56,_Z16BM_Complexity_O1RN9benchmark5StateE
FNDA:30,_Z9BM_RepeatRN9benchmark5StateE
FNDA:8,_Z13BM_RepeatOnceRN9benchmark5StateE
FNDA:10,_Z16BM_SummaryRepeatRN9benchmark5StateE
FNDA:8,_Z8BM_basicRN9benchmark5StateE
FNDA:9,_Z17BM_SummaryDisplayRN9benchmark5StateE
FNDA:10,_Z17BM_RepeatTimeUnitRN9benchmark5StateE
FNDA:2,_ZNKL14UserStatisticsMUlRKSt6vectorIdSaIdEEE_clES4_
FNDA:3,_Z12BM_UserStatsRN9benchmark5StateE
FNDA:8,_Z19BM_bytes_per_secondRN9benchmark5StateE
FNDA:2,_ZNKL21UserPercentStatisticsMUlRKSt6vectorIdSaIdEEE_clES4_
FNDA:3,_Z19BM_UserPercentStatsRN9benchmark5StateE
FNF:27
FNH:27
DA:16,1
DA:17,4
DA:23,9
DA:33,2
DA:34,1
DA:35,1
DA:36,2
DA:38,5
DA:40,4
DA:41,8
DA:42,4
DA:44,28
DA:50,0
DA:51,2
DA:52,1
DA:53,1
DA:54,2
DA:57,2
DA:58,1
DA:59,42
DA:67,8
DA:68,13679788
DA:70,8
DA:93,8
DA:94,10358116
DA:96,5179042
DA:100,8
DA:125,8
DA:126,10227452
DA:128,5113710
DA:132,8
DA:157,8
DA:158,13207746
DA:160,8
DA:161,8
DA:186,8
DA:187,13255880
DA:189,8
DA:209,8
DA:210,13011092
DA:212,8
DA:232,8
DA:233,13339564
DA:235,8
DA:255,8
DA:256,12986276
DA:258,8
DA:281,1
DA:282,1
DA:283,4
DA:285,1
DA:306,8
DA:307,12478818
DA:309,8
DA:326,8
DA:327,12503614
DA:329,8
DA:346,8
DA:347,13275838
DA:349,8
DA:368,8
DA:369,11861320
DA:371,8
DA:394,16
DA:395,26786842
DA:397,16
DA:406,56
DA:407,71079566
DA:409,35539671
DA:412,56
DA:413,56
DA:425,30
DA:426,105859302
DA:428,30
DA:639,8
DA:640,12753266
DA:642,8
DA:656,10
DA:657,34889646
DA:659,10
DA:707,9
DA:708,22700498
DA:710,9
DA:757,10
DA:758,35333094
DA:760,10
DA:818,2
DA:819,2
DA:821,3
DA:822,27
DA:823,15
DA:825,3
DA:949,2
DA:950,2
DA:952,3
DA:953,27
DA:954,15
DA:956,3
DA:1118,1
DA:1119,1
DA:1120,4
DA:1122,1
DA:1130,1
LF:103
LH:102
end_of_record
TN:
SF:/home/alex/labs3/build/_deps/googlebenchmark-src/test/skip_with_error_test.cc
FN:122,138,_Z34BM_error_during_running_ranged_forRN9benchmark5StateE
FN:13,15,_ZN12_GLOBAL__N_112TestReporter13ReportContextERKN9benchmark17BenchmarkReporter7ContextE
FN:144,151,_Z22BM_error_after_runningRN9benchmark5StateE
FN:158,171,_Z21BM_error_while_pausedRN9benchmark5StateE
FN:17,20,_ZN12_GLOBAL__N_112TestReporter10ReportRunsERKSt6vectorIN9benchmark17BenchmarkReporter3RunESaIS4_EE
FN:182,199,main
FN:22,22,_ZN12_GLOBAL__N_112TestReporterC2Ev
FN:23,23,_ZN12_GLOBAL__N_112TestReporterD0Ev
FN:23,23,_ZN12_GLOBAL__N_112TestReporterD2Ev
FN:35,46,_ZNK12_GLOBAL__N_18TestCase8CheckRunERKN9benchmark17BenchmarkReporter3RunE
FN:51,58,_ZN12_GLOBAL__N_18AddCasesERKNSt7__cxx1112basic_stringIcSt11char_traitsIcESaIcEEERKSt16initializer_listINS_8TestCaseEE
FN:66,68,_Z19BM_error_no_runningRN9benchmark5StateE
FN:72,77,_Z23BM_error_before_runningRN9benchmark5StateE
FN:81,86,_Z29BM_error_before_running_batchRN9benchmark5StateE
FN:90,95,_Z33BM_error_before_running_range_forRN9benchmark5StateE
FN:99,111,_Z23BM_error_during_runningRN9benchmark5StateE
FNDA:2,_Z34BM_error_during_running_ranged_forRN9benchmark5StateE
FNDA:1,_ZN12_GLOBAL__N_112TestReporter13ReportContextERKN9benchmark17BenchmarkReporter7ContextE
FNDA:15,_Z22BM_error_after_runningRN9benchmark5StateE
FNDA:83,_Z21BM_error_while_pausedRN9benchmark5StateE
FNDA:26,_ZN12_GLOBAL__N_112TestReporter10ReportRunsERKSt6vectorIN9benchmark17BenchmarkReporter3RunESaIS4_EE
FNDA:1,main
FNDA:1,_ZN12_GLOBAL__N_112TestReporterC2Ev
FNDA:0,_ZN12_GLOBAL__N_112TestReporterD0Ev
FNDA:1,_ZN12_GLOBAL__N_112TestReporterD2Ev
FNDA:26,_ZNK12_GLOBAL__N_18TestCase8CheckRunERKN9benchmark17BenchmarkReporter3RunE
FNDA:8,_ZN12_GLOBAL__N_18AddCasesERKNSt7__cxx1112basic_stringIcSt11char_traitsIcESaIcEEERKSt16initializer_listINS_8TestCaseEE
FNDA:1,_Z19BM_error_no_runningRN9benchmark5StateE
FNDA:1,_Z23BM_error_before_runningRN9benchmark5StateE
FNDA:1,_Z29BM_error_before_running_batchRN9benchmark5StateE
FNDA:1,_Z33BM_error_before_running_range_forRN9benchmark5StateE
FNDA:83,_Z23BM_error_during_runningRN9benchmark5StateE
FNF:16
FNH:15
DA:13,1
DA:14,1
DA:17,26
DA:18,52
DA:19,26
DA:20,26
DA:22,1
DA:23,1
DA:35,26
DA:36,78
DA:37,52
DA:38,26
DA:40,26
DA:41,26
DA:44,9
DA:46,26
DA:51,8
DA:53,34
DA:54,26
DA:55,26
DA:56,26
DA:57,8
DA:66,1
DA:67,1
DA:68,1
DA:72,1
DA:73,1
DA:74,2
DA:75,0
DA:77,1
DA:81,1
DA:82,1
DA:83,2
DA:84,0
DA:86,1
DA:90,1
DA:91,1
DA:92,4
DA:93,0
DA:95,1
DA:99,83
DA:100,83
DA:101,69795
DA:102,69496
DA:103,11
DA:104,11
DA:105,22
DA:107,69455
DA:108,66025
DA:111,153
DA:122,2
DA:123,2
DA:124,2
DA:126,11
DA:127,6
DA:128,1
DA:129,1
DA:131,2
DA:134,2
DA:135,1
DA:138,2
DA:144,15
DA:145,90
DA:146,15
DA:149,30
DA:150,22
DA:151,15
DA:158,83
DA:159,83
DA:160,70434
DA:161,70097
DA:162,11
DA:163,11
DA:164,11
DA:165,21
DA:167,70056
DA:168,66148
DA:171,162
DA:182,1
DA:183,1
DA:185,1
DA:186,1
DA:189,1
DA:191,27
DA:192,26
DA:193,26
DA:194,26
DA:196,1
DA:198,1
DA:199,1
LF:90
LH:87
end_of_record
TN:
SF:/home/alex/labs3/build/_deps/googlebenchmark-src/test/spec_arg_test.cc
FN:20,22,_ZN12_GLOBAL__N_112TestReporter13ReportContextERKN9benchmark17BenchmarkReporter7ContextE
FN:24,28,_ZN12_GLOBAL__N_112TestReporter10ReportRunsERKSt6vectorIN9benchmark17BenchmarkReporter3RunESaIS4_EE
FN:30,30,_ZN12_GLOBAL__N_112TestReporterC2Ev
FN:32,32,_ZN12_GLOBAL__N_112TestReporterD0Ev
FN:32,32,_ZN12_GLOBAL__N_112TestReporterD2Ev
FN:34,36,_ZNK12_GLOBAL__N_112TestReporter19GetMatchedFunctionsEv
FN:44,48,_ZL12BM_NotChosenRN9benchmark5StateE
FN:51,54,_ZL9BM_ChosenRN9benchmark5StateE
FN:57,105,main
FNDA:1,_ZN12_GLOBAL__N_112TestReporter13ReportContextERKN9benchmark17BenchmarkReporter7ContextE
FNDA:1,_ZN12_GLOBAL__N_112TestReporter10ReportRunsERKSt6vectorIN9benchmark17BenchmarkReporter3RunESaIS4_EE
FNDA:1,_ZN12_GLOBAL__N_112TestReporterC2Ev
FNDA:0,_ZN12_GLOBAL__N_112TestReporterD0Ev
FNDA:1,_ZN12_GLOBAL__N_112TestReporterD2Ev
FNDA:1,_ZNK12_GLOBAL__N_112TestReporter19GetMatchedFunctionsEv
FNDA:0,_ZL12BM_NotChosenRN9benchmark5StateE
FNDA:10,_ZL9BM_ChosenRN9benchmark5StateE
FNDA:1,main
FNF:9
FNH:7
DA:20,1
DA:21,1
DA:24,1
DA:25,1
DA:26,1
DA:27,1
DA:28,1
DA:30,1
DA:32,1
DA:34,1
DA:35,1
DA:44,0
DA:45,0
DA:51,10
DA:52,743263286
DA:54,10
DA:57,1
DA:58,1
DA:61,1
DA:62,2
DA:63,2
DA:64,1
DA:65,1
DA:68,1
DA:70,1
DA:74,1
DA:77,0
DA:78,0
DA:79,0
DA:81,1
DA:82,1
DA:84,1
DA:85,1
DA:87,1
DA:88,1
DA:89,1
DA:91,0
DA:92,0
DA:96,1
DA:97,1
DA:98,1
DA:99,1
DA:101,0
DA:102,0
DA:104,1
DA:105,1
LF:46
LH:37
end_of_record
TN:
SF:/home/alex/labs3/build/_deps/googlebenchmark-src/test/spec_arg_verbosity_test.cc
FN:14,43,main
FN:8,11,_ZL12BM_VerbosityRN9benchmark5StateE
FNDA:1,main
FNDA:0,_ZL12BM_VerbosityRN9benchmark5StateE
FNF:2
FNH:1
DA:8,0
DA:9,0
DA:11,0
DA:14,1
DA:15,1
DA:18,1
DA:19,2
DA:20,2
DA:21,1
DA:22,1
DA:25,1
DA:27,0
DA:28,0
DA:31,1
DA:35,1
DA:37,0
DA:38,0
DA:39,0
DA:40,0
DA:42,1
LF:20
LH:11
end_of_record
TN:
SF:/home/alex/labs3/build/_deps/googlebenchmark-src/test/statistics_gtest.cc
FN:15,15,_ZN12_GLOBAL__N_126StatisticsTest_Median_Test8TestBodyEv
FN:15,15,_ZN12_GLOBAL__N_126StatisticsTest_Median_TestC2Ev
FN:15,15,_ZN12_GLOBAL__N_126StatisticsTest_Median_TestD0Ev
FN:15,15,_ZN12_GLOBAL__N_126StatisticsTest_Median_TestD2Ev
FN:21,21,_ZN12_GLOBAL__N_126StatisticsTest_StdDev_Test8TestBodyEv
FN:21,21,_ZN12_GLOBAL__N_126StatisticsTest_StdDev_TestC2Ev
FN:21,21,_ZN12_GLOBAL__N_126StatisticsTest_StdDev_TestD0Ev
FN:21,21,_ZN12_GLOBAL__N_126StatisticsTest_StdDev_TestD2Ev
FN:28,28,_ZN12_GLOBAL__N_122StatisticsTest_CV_Test8TestBodyEv
FN:28,28,_ZN12_GLOBAL__N_122StatisticsTest_CV_TestC2Ev
FN:28,28,_ZN12_GLOBAL__N_122StatisticsTest_CV_TestD0Ev
FN:28,28,_ZN12_GLOBAL__N_122StatisticsTest_CV_TestD2Ev
FN:9,9,_ZN12_GLOBAL__N_124StatisticsTest_Mean_Test8TestBodyEv
FN:9,9,_ZN12_GLOBAL__N_124StatisticsTest_Mean_TestC2Ev
FN:9,9,_ZN12_GLOBAL__N_124StatisticsTest_Mean_TestD0Ev
FN:9,9,_ZN12_GLOBAL__N_124StatisticsTest_Mean_TestD2Ev
FNDA:1,_ZN12_GLOBAL__N_126StatisticsTest_Median_Test8TestBodyEv
FNDA:1,_ZN12_GLOBAL__N_126StatisticsTest_Median_TestC2Ev
FNDA:1,_ZN12_GLOBAL__N_126StatisticsTest_Median_TestD0Ev
FNDA:1,_ZN12_GLOBAL__N_126StatisticsTest_Median_TestD2Ev
FNDA:1,_ZN12_GLOBAL__N_126StatisticsTest_StdDev_Test8TestBodyEv
FNDA:1,_ZN12_GLOBAL__N_126StatisticsTest_StdDev_TestC2Ev
FNDA:1,_ZN12_GLOBAL__N_126StatisticsTest_StdDev_TestD0Ev
FNDA:1,_ZN12_GLOBAL__N_126StatisticsTest_StdDev_TestD2Ev
FNDA:1,_ZN12_GLOBAL__N_122StatisticsTest_CV_Test8TestBodyEv
FNDA:1,_ZN12_GLOBAL__N_122StatisticsTest_CV_TestC2Ev
FNDA:1,_ZN12_GLOBAL__N_122StatisticsTest_CV_TestD0Ev
FNDA:1,_ZN12_GLOBAL__N_122StatisticsTest_CV_TestD2Ev
FNDA:1,_ZN12_GLOBAL__N_124StatisticsTest_Mean_Test8TestBodyEv
FNDA:1,_ZN12_GLOBAL__N_124StatisticsTest_Mean_TestC2Ev
FNDA:1,_ZN12_GLOBAL__N_124StatisticsTest_Mean_TestD0Ev
FNDA:1,_ZN12_GLOBAL__N_124StatisticsTest_Mean_TestD2Ev
FNF:16
FNH:16
DA:9,4
DA:10,3
DA:11,3
DA:12,3
DA:13,1
DA:15,4
DA:16,3
DA:17,3
DA:18,3
DA:19,1
DA:21,4
DA:22,3
DA:23,3
DA:24,3
DA:25,1
DA:26,1
DA:28,4
DA:29,3
DA:30,3
DA:31,3
DA:32,1
DA:33,1
LF:22
LH:22
end_of_record
TN:
SF:/home/alex/labs3/build/_deps/googlebenchmark-src/test/string_util_gtest.cc
FN:123,123,_ZN12_GLOBAL__N_124StringUtilTest_stod_Test8TestBodyEv
FN:123,123,_ZN12_GLOBAL__N_124StringUtilTest_stod_TestC2Ev
FN:123,123,_ZN12_GLOBAL__N_124StringUtilTest_stod_TestD0Ev
FN:123,123,_ZN12_GLOBAL__N_124StringUtilTest_stod_TestD2Ev
FN:13,13,_ZN12_GLOBAL__N_125StringUtilTest_stoul_Test8TestBodyEv
FN:13,13,_ZN12_GLOBAL__N_125StringUtilTest_stoul_TestC2Ev
FN:13,13,_ZN12_GLOBAL__N_125StringUtilTest_stoul_TestD0Ev
FN:13,13,_ZN12_GLOBAL__N_125StringUtilTest_stoul_TestD2Ev
FN:156,156,_ZN12_GLOBAL__N_128StringUtilTest_StrSplit_Test8TestBodyEv
FN:156,156,_ZN12_GLOBAL__N_128StringUtilTest_StrSplit_TestC2Ev
FN:156,156,_ZN12_GLOBAL__N_128StringUtilTest_StrSplit_TestD0Ev
FN:156,156,_ZN12_GLOBAL__N_128StringUtilTest_StrSplit_TestD2Ev
FN:167,167,_ZN12_GLOBAL__N_1L59gtest_HumanReadableTestsHumanReadableFixture_EvalGenerator_Ev
FN:167,167,_ZN12_GLOBAL__N_1L62gtest_HumanReadableTestsHumanReadableFixture_EvalGenerateName_ERKN7testing13TestParamInfoISt5tupleIJdN9benchmark7Counter4OneKENSt7__cxx1112basic_stringIcSt11char_traitsIcESaIcEEEEEEE
FN:193,197,_ZN12_GLOBAL__N_145HumanReadableFixture_HumanReadableNumber_Test13AddToRegistryEv
FN:193,197,_ZN12_GLOBAL__N_145HumanReadableFixture_HumanReadableNumber_Test8TestBodyEv
FN:193,197,_ZN12_GLOBAL__N_145HumanReadableFixture_HumanReadableNumber_TestC2Ev
FN:76,76,_ZN12_GLOBAL__N_124StringUtilTest_stoi_Test8TestBodyEv
FN:76,76,_ZN12_GLOBAL__N_124StringUtilTest_stoi_TestC2Ev
FN:76,76,_ZN12_GLOBAL__N_124StringUtilTest_stoi_TestD0Ev
FN:76,76,_ZN12_GLOBAL__N_124StringUtilTest_stoi_TestD2Ev
FNDA:1,_ZN12_GLOBAL__N_124StringUtilTest_stod_Test8TestBodyEv
FNDA:1,_ZN12_GLOBAL__N_124StringUtilTest_stod_TestC2Ev
FNDA:1,_ZN12_GLOBAL__N_124StringUtilTest_stod_TestD0Ev
FNDA:1,_ZN12_GLOBAL__N_124StringUtilTest_stod_TestD2Ev
FNDA:1,_ZN12_GLOBAL__N_125StringUtilTest_stoul_Test8TestBodyEv
FNDA:1,_ZN12_GLOBAL__N_125StringUtilTest_stoul_TestC2Ev
FNDA:1,_ZN12_GLOBAL__N_125StringUtilTest_stoul_TestD0Ev
FNDA:1,_ZN12_GLOBAL__N_125StringUtilTest_stoul_TestD2Ev
FNDA:1,_ZN12_GLOBAL__N_128StringUtilTest_StrSplit_Test8TestBodyEv
FNDA:1,_ZN12_GLOBAL__N_128StringUtilTest_StrSplit_TestC2Ev
FNDA:1,_ZN12_GLOBAL__N_128StringUtilTest_StrSplit_TestD0Ev
FNDA:1,_ZN12_GLOBAL__N_128StringUtilTest_StrSplit_TestD2Ev
FNDA:1,_ZN12_GLOBAL__N_1L59gtest_HumanReadableTestsHumanReadableFixture_EvalGenerator_Ev
FNDA:16,_ZN12_GLOBAL__N_1L62gtest_HumanReadableTestsHumanReadableFixture_EvalGenerateName_ERKN7testing13TestParamInfoISt5tupleIJdN9benchmark7Counter4OneKENSt7__cxx1112basic_stringIcSt11char_traitsIcESaIcEEEEEEE
FNDA:1,_ZN12_GLOBAL__N_145HumanReadableFixture_HumanReadableNumber_Test13AddToRegistryEv
FNDA:16,_ZN12_GLOBAL__N_145HumanReadableFixture_HumanReadableNumber_Test8TestBodyEv
FNDA:16,_ZN12_GLOBAL__N_145HumanReadableFixture_HumanReadableNumber_TestC2Ev
FNDA:1,_ZN12_GLOBAL__N_124StringUtilTest_stoi_Test8TestBodyEv
FNDA:1,_ZN12_GLOBAL__N_124StringUtilTest_stoi_TestC2Ev
FNDA:1,_ZN12_GLOBAL__N_124StringUtilTest_stoi_TestD0Ev
FNDA:1,_ZN12_GLOBAL__N_124StringUtilTest_stoi_TestD2Ev
FNF:21
FNH:21
DA:13,4
DA:15,1
DA:16,2
DA:17,1
DA:20,1
DA:21,2
DA:22,1
DA:25,1
DA:26,2
DA:27,1
DA:37,1
DA:38,2
DA:39,1
DA:40,1
DA:44,1
DA:45,2
DA:46,1
DA:49,1
DA:50,2
DA:51,1
DA:54,1
DA:55,2
DA:56,1
DA:59,1
DA:60,2
DA:61,1
DA:64,1
DA:65,2
DA:66,1
DA:70,3
DA:71,1
DA:76,4
DA:77,2
DA:78,1
DA:81,1
DA:82,2
DA:83,1
DA:86,1
DA:87,2
DA:88,1
DA:91,1
DA:92,2
DA:93,1
DA:96,1
DA:97,2
DA:98,1
DA:101,1
DA:102,2
DA:103,1
DA:106,1
DA:107,2
DA:108,1
DA:111,1
DA:112,2
DA:113,1
DA:117,3
DA:118,1
DA:123,4
DA:124,2
DA:125,1
DA:128,1
DA:129,2
DA:130,1
DA:133,1
DA:134,2
DA:135,1
DA:138,1
DA:139,2
DA:140,1
DA:143,1
DA:145,2
DA:146,1
DA:150,3
DA:151,1
DA:156,4
DA:157,3
DA:158,4
DA:159,1
DA:160,7
DA:161,1
DA:162,7
DA:167,17
DA:193,37
DA:194,16
DA:195,32
DA:196,16
DA:197,16
LF:87
LH:87
end_of_record
TN:
SF:/home/alex/labs3/build/_deps/googlebenchmark-src/test/templated_fixture_test.cc
FN:10,10,_ZN9MyFixtureIdEC2Ev
FN:10,10,_ZN9MyFixtureIiEC2Ev
FN:15,19,_ZN23MyFixture_Foo_Benchmark13BenchmarkCaseERN9benchmark5StateE
FN:15,19,_ZN23MyFixture_Foo_BenchmarkC2Ev
FN:21,25,_ZN23MyFixture_Bar_Benchmark13BenchmarkCaseERN9benchmark5StateE
FN:21,25,_ZN23MyFixture_Bar_BenchmarkC2Ev
FN:28,28,main
FNDA:1,_ZN9MyFixtureIdEC2Ev
FNDA:1,_ZN9MyFixtureIiEC2Ev
FNDA:8,_ZN23MyFixture_Foo_Benchmark13BenchmarkCaseERN9benchmark5StateE
FNDA:1,_ZN23MyFixture_Foo_BenchmarkC2Ev
FNDA:8,_ZN23MyFixture_Bar_Benchmark13BenchmarkCaseERN9benchmark5StateE
FNDA:1,_ZN23MyFixture_Bar_BenchmarkC2Ev
FNDA:1,main
FNF:7
FNH:7
DA:10,2
DA:15,11
DA:16,6644372
DA:17,6644340
DA:19,8
DA:21,11
DA:22,4460246
DA:23,4460214
DA:25,8
DA:28,1
LF:10
LH:10
end_of_record
TN:
SF:/home/alex/labs3/build/_deps/googlebenchmark-src/test/time_unit_gtest.cc
FN:11,11,_ZN9benchmark8internal12_GLOBAL__N_114DummyBenchmarkC2Ev
FN:12,12,_ZN9benchmark8internal12_GLOBAL__N_114DummyBenchmark3RunERNS_5StateE
FN:15,15,_ZN9benchmark8internal12_GLOBAL__N_141DefaultTimeUnitTest_TimeUnitIsNotSet_Test8TestBodyEv
FN:15,15,_ZN9benchmark8internal12_GLOBAL__N_141DefaultTimeUnitTest_TimeUnitIsNotSet_TestC2Ev
FN:15,15,_ZN9benchmark8internal12_GLOBAL__N_141DefaultTimeUnitTest_TimeUnitIsNotSet_TestD0Ev
FN:15,15,_ZN9benchmark8internal12_GLOBAL__N_141DefaultTimeUnitTest_TimeUnitIsNotSet_TestD2Ev
FN:20,20,_ZN9benchmark8internal12_GLOBAL__N_137DefaultTimeUnitTest_DefaultIsSet_Test8TestBodyEv
FN:20,20,_ZN9benchmark8internal12_GLOBAL__N_137DefaultTimeUnitTest_DefaultIsSet_TestC2Ev
FN:20,20,_ZN9benchmark8internal12_GLOBAL__N_137DefaultTimeUnitTest_DefaultIsSet_TestD0Ev
FN:20,20,_ZN9benchmark8internal12_GLOBAL__N_137DefaultTimeUnitTest_DefaultIsSet_TestD2Ev
FN:27,27,_ZN9benchmark8internal12_GLOBAL__N_152DefaultTimeUnitTest_DefaultAndExplicitUnitIsSet_Test8TestBodyEv
FN:27,27,_ZN9benchmark8internal12_GLOBAL__N_152DefaultTimeUnitTest_DefaultAndExplicitUnitIsSet_TestC2Ev
FN:27,27,_ZN9benchmark8internal12_GLOBAL__N_152DefaultTimeUnitTest_DefaultAndExplicitUnitIsSet_TestD0Ev
FN:27,27,_ZN9benchmark8internal12_GLOBAL__N_152DefaultTimeUnitTest_DefaultAndExplicitUnitIsSet_TestD2Ev
FNDA:3,_ZN9benchmark8internal12_GLOBAL__N_114DummyBenchmarkC2Ev
FNDA:0,_ZN9benchmark8internal12_GLOBAL__N_114DummyBenchmark3RunERNS_5StateE
FNDA:1,_ZN9benchmark8internal12_GLOBAL__N_141DefaultTimeUnitTest_TimeUnitIsNotSet_Test8TestBodyEv
FNDA:1,_ZN9benchmark8internal12_GLOBAL__N_141DefaultTimeUnitTest_TimeUnitIsNotSet_TestC2Ev
FNDA:1,_ZN9benchmark8internal12_GLOBAL__N_141DefaultTimeUnitTest_TimeUnitIsNotSet_TestD0Ev
FNDA:1,_ZN9benchmark8internal12_GLOBAL__N_141DefaultTimeUnitTest_TimeUnitIsNotSet_TestD2Ev
FNDA:1,_ZN9benchmark8internal12_GLOBAL__N_137DefaultTimeUnitTest_DefaultIsSet_Test8TestBodyEv
FNDA:1,_ZN9benchmark8internal12_GLOBAL__N_137DefaultTimeUnitTest_DefaultIsSet_TestC2Ev
FNDA:1,_ZN9benchmark8internal12_GLOBAL__N_137DefaultTimeUnitTest_DefaultIsSet_TestD0Ev
FNDA:1,_ZN9benchmark8internal12_GLOBAL__N_137DefaultTimeUnitTest_DefaultIsSet_TestD2Ev
FNDA:1,_ZN9benchmark8internal12_GLOBAL__N_152DefaultTimeUnitTest_DefaultAndExplicitUnitIsSet_Test8TestBodyEv
FNDA:1,_ZN9benchmark8internal12_GLOBAL__N_152DefaultTimeUnitTest_DefaultAndExplicitUnitIsSet_TestC2Ev
FNDA:1,_ZN9benchmark8internal12_GLOBAL__N_152DefaultTimeUnitTest_DefaultAndExplicitUnitIsSet_TestD0Ev
FNDA:1,_ZN9benchmark8internal12_GLOBAL__N_152DefaultTimeUnitTest_DefaultAndExplicitUnitIsSet_TestD2Ev
FNF:14
FNH:13
DA:11,9
DA:12,0
DA:15,4
DA:16,1
DA:17,1
DA:18,1
DA:20,4
DA:21,1
DA:22,1
DA:23,1
DA:24,1
DA:25,1
DA:27,4
DA:28,1
DA:29,1
DA:30,1
DA:32,1
DA:33,1
LF:18
LH:17
end_of_record
TN:
SF:/home/alex/labs3/build/_deps/googlebenchmark-src/test/user_counters_tabular_test.cc
FN:355,362,_Z12CheckTabularRK7Results
FN:372,387,_Z23BM_CounterRates_TabularRN9benchmark5StateE
FN:414,422,_Z16CheckTabularRateRK7Results
FN:431,440,_Z22BM_CounterSet0_TabularRN9benchmark5StateE
FN:463,467,_Z9CheckSet0RK7Results
FN:471,480,_Z22BM_CounterSet1_TabularRN9benchmark5StateE
FN:503,507,_Z9CheckSet1RK7Results
FN:515,524,_Z22BM_CounterSet2_TabularRN9benchmark5StateE
FN:547,551,_Z9CheckSet2RK7Results
FN:558,558,main
FN:64,76,_Z19BM_Counters_TabularRN9benchmark5StateE
FNDA:4,_Z12CheckTabularRK7Results
FNDA:190,_Z23BM_CounterRates_TabularRN9benchmark5StateE
FNDA:5,_Z16CheckTabularRateRK7Results
FNDA:202,_Z22BM_CounterSet0_TabularRN9benchmark5StateE
FNDA:5,_Z9CheckSet0RK7Results
FNDA:177,_Z22BM_CounterSet1_TabularRN9benchmark5StateE
FNDA:5,_Z9CheckSet1RK7Results
FNDA:177,_Z22BM_CounterSet2_TabularRN9benchmark5StateE
FNDA:5,_Z9CheckSet2RK7Results
FNDA:1,main
FNDA:25,_Z19BM_Counters_TabularRN9benchmark5StateE
FNF:11
FNH:11
DA:64,25
DA:65,26141543
DA:68,170
DA:76,11552
DA:355,4
DA:356,16
DA:357,16
DA:358,16
DA:359,16
DA:360,16
DA:361,12
DA:362,4
DA:372,190
DA:373,12692425
DA:375,6351120
DA:379,1167
DA:387,0
DA:414,5
DA:415,5
DA:416,40
DA:417,40
DA:418,40
DA:419,40
DA:420,40
DA:421,35
DA:422,5
DA:431,202
DA:432,16929385
DA:435,685
DA:440,20785
DA:463,5
DA:464,20
DA:465,20
DA:466,15
DA:467,5
DA:471,177
DA:472,13946587
DA:475,587
DA:480,25355
DA:503,5
DA:504,20
DA:505,20
DA:506,15
DA:507,5
DA:515,177
DA:516,15210143
DA:519,617
DA:524,5585
DA:547,5
DA:548,20
DA:549,20
DA:550,15
DA:551,5
DA:558,1
LF:54
LH:53
end_of_record
TN:
SF:/home/alex/labs3/build/_deps/googlebenchmark-src/test/user_counters_test.cc
FN:104,111,_Z22CheckBytesAndItemsPSecRK7Results
FN:119,128,_Z16BM_Counters_RateRN9benchmark5StateE
FN:151,156,_Z9CheckRateRK7Results
FN:163,172,_Z9BM_InvertRN9benchmark5StateE
FN:194,197,_Z11CheckInvertRK7Results
FN:204,215,_Z24BM_Counters_InvertedRateRN9benchmark5StateE
FN:239,244,_Z17CheckInvertedRateRK7Results
FN:25,30,_Z18BM_Counters_SimpleRN9benchmark5StateE
FN:251,256,_Z19BM_Counters_ThreadsRN9benchmark5StateE
FN:281,284,_Z12CheckThreadsRK7Results
FN:291,297,_Z22BM_Counters_AvgThreadsRN9benchmark5StateE
FN:322,325,_Z15CheckAvgThreadsRK7Results
FN:333,342,_Z26BM_Counters_AvgThreadsRateRN9benchmark5StateE
FN:367,370,_Z19CheckAvgThreadsRateRK7Results
FN:378,384,_Z30BM_Counters_IterationInvariantRN9benchmark5StateE
FN:408,413,_Z23CheckIterationInvariantRK7Results
FN:421,432,_Z37BM_Counters_kIsIterationInvariantRateRN9benchmark5StateE
FN:457,463,_Z29CheckIsIterationInvariantRateRK7Results
FN:471,477,_Z25BM_Counters_AvgIterationsRN9benchmark5StateE
FN:501,506,_Z18CheckAvgIterationsRK7Results
FN:513,523,_Z30BM_Counters_kAvgIterationsRateRN9benchmark5StateE
FN:52,57,_Z11CheckSimpleRK7Results
FN:547,553,_Z22CheckAvgIterationsRateRK7Results
FN:561,561,main
FN:67,77,_Z33BM_Counters_WithBytesAndItemsPSecRN9benchmark5StateE
FNDA:1,_Z22CheckBytesAndItemsPSecRK7Results
FNDA:8,_Z16BM_Counters_RateRN9benchmark5StateE
FNDA:1,_Z9CheckRateRK7Results
FNDA:8,_Z9BM_InvertRN9benchmark5StateE
FNDA:1,_Z11CheckInvertRK7Results
FNDA:8,_Z24BM_Counters_InvertedRateRN9benchmark5StateE
FNDA:1,_Z17CheckInvertedRateRK7Results
FNDA:8,_Z18BM_Counters_SimpleRN9benchmark5StateE
FNDA:98,_Z19BM_Counters_ThreadsRN9benchmark5StateE
FNDA:4,_Z12CheckThreadsRK7Results
FNDA:98,_Z22BM_Counters_AvgThreadsRN9benchmark5StateE
FNDA:4,_Z15CheckAvgThreadsRK7Results
FNDA:84,_Z26BM_Counters_AvgThreadsRateRN9benchmark5StateE
FNDA:4,_Z19CheckAvgThreadsRateRK7Results
FNDA:8,_Z30BM_Counters_IterationInvariantRN9benchmark5StateE
FNDA:1,_Z23CheckIterationInvariantRK7Results
FNDA:8,_Z37BM_Counters_kIsIterationInvariantRateRN9benchmark5StateE
FNDA:1,_Z29CheckIsIterationInvariantRateRK7Results
FNDA:8,_Z25BM_Counters_AvgIterationsRN9benchmark5StateE
FNDA:1,_Z18CheckAvgIterationsRK7Results
FNDA:9,_Z30BM_Counters_kAvgIterationsRateRN9benchmark5StateE
FNDA:1,_Z11CheckSimpleRK7Results
FNDA:1,_Z22CheckAvgIterationsRateRK7Results
FNDA:1,main
FNDA:8,_Z33BM_Counters_WithBytesAndItemsPSecRN9benchmark5StateE
FNF:25
FNH:25
DA:25,8
DA:26,12065580
DA:28,16
DA:29,16
DA:30,8
DA:52,1
DA:53,1
DA:54,4
DA:56,7
DA:57,1
DA:67,8
DA:68,10376424
DA:70,5188196
DA:73,8
DA:74,24
DA:77,8
DA:104,1
DA:105,1
DA:106,4
DA:107,4
DA:109,8
DA:110,7
DA:111,1
DA:119,8
DA:120,9700052
DA:122,4850010
DA:126,16
DA:127,8
DA:128,8
DA:151,1
DA:152,1
DA:154,8
DA:155,7
DA:156,1
DA:163,8
DA:164,10064490
DA:166,5032229
DA:170,16
DA:171,8
DA:172,8
DA:194,1
DA:195,8
DA:196,7
DA:197,1
DA:204,8
DA:205,9931928
DA:207,4965948
DA:211,8
DA:212,8
DA:213,8
DA:214,8
DA:215,8
DA:239,1
DA:240,1
DA:242,8
DA:243,7
DA:244,1
DA:251,98
DA:252,16762260
DA:254,66297
DA:255,89
DA:256,87
DA:281,4
DA:282,16
DA:283,12
DA:284,4
DA:291,98
DA:292,17915055
DA:295,0
DA:296,79
DA:297,81
DA:322,4
DA:323,16
DA:324,12
DA:325,4
DA:333,84
DA:334,8198935
DA:336,4101255
DA:340,0
DA:341,78
DA:342,75
DA:367,4
DA:368,32
DA:369,28
DA:370,4
DA:378,8
DA:379,9731762
DA:382,16
DA:383,8
DA:384,8
DA:408,1
DA:409,1
DA:411,8
DA:412,7
DA:413,1
DA:421,8
DA:422,8274886
DA:424,4137427
DA:428,8
DA:429,0
DA:430,8
DA:431,8
DA:432,8
DA:457,1
DA:458,1
DA:459,1
DA:461,8
DA:462,7
DA:463,1
DA:471,8
DA:472,11428534
DA:475,16
DA:476,8
DA:477,8
DA:501,1
DA:502,1
DA:504,8
DA:505,7
DA:506,1
DA:513,9
DA:514,14625418
DA:516,14625382
DA:520,9
DA:521,9
DA:522,9
DA:523,9
DA:547,1
DA:548,1
DA:549,1
DA:551,8
DA:552,7
DA:553,1
DA:561,1
LF:133
LH:130
end_of_record
TN:
SF:/home/alex/labs3/build/_deps/googlebenchmark-src/test/user_counters_thousands_test.cc
FN:11,27,_Z21BM_Counters_ThousandsRN9benchmark5StateE
FN:168,179,_Z14CheckThousandsRK7Results
FN:186,186,main
FNDA:9,_Z21BM_Counters_ThousandsRN9benchmark5StateE
FNDA:6,_Z14CheckThousandsRK7Results
FNDA:1,main
FNF:3
FNH:3
DA:11,9
DA:12,19838130
DA:15,54
DA:17,0
DA:18,0
DA:20,0
DA:22,0
DA:24,0
DA:27,18
DA:168,6
DA:169,6
DA:170,4
DA:173,16
DA:175,16
DA:176,16
DA:177,16
DA:178,16
DA:186,1
LF:18
LH:13
end_of_record
TN:
SF:/home/alex/labs3/build/_deps/googletest-src/googlemock/include/gmock/gmock-cardinalities.h
FN:102,102,_ZNK7testing11Cardinality22ConservativeLowerBoundEv
FN:103,103,_ZNK7testing11Cardinality22ConservativeUpperBoundEv
FN:107,109,_ZNK7testing11Cardinality22IsSatisfiedByCallCountEi
FN:113,115,_ZNK7testing11Cardinality22IsSaturatedByCallCountEi
FN:119,122,_ZNK7testing11Cardinality26IsOverSaturatedByCallCountEi
FN:125,125,_ZNK7testing11Cardinality10DescribeToEPSo
FN:68,68,_ZN7testing20CardinalityInterfaceD0Ev
FN:68,68,_ZN7testing20CardinalityInterfaceD2Ev
FN:72,72,_ZNK7testing20CardinalityInterface22ConservativeLowerBoundEv
FN:73,73,_ZNK7testing20CardinalityInterface22ConservativeUpperBoundEv
FN:98,98,_ZN7testing11CardinalityC2EPKNS_20CardinalityInterfaceE
FNDA:0,_ZNK7testing11Cardinality22ConservativeLowerBoundEv
FNDA:0,_ZNK7testing11Cardinality22ConservativeUpperBoundEv
FNDA:0,_ZNK7testing11Cardinality22IsSatisfiedByCallCountEi
FNDA:0,_ZNK7testing11Cardinality22IsSaturatedByCallCountEi
FNDA:0,_ZNK7testing11Cardinality26IsOverSaturatedByCallCountEi
FNDA:0,_ZNK7testing11Cardinality10DescribeToEPSo
FNDA:0,_ZN7testing20CardinalityInterfaceD0Ev
FNDA:0,_ZN7testing20CardinalityInterfaceD2Ev
FNDA:0,_ZNK7testing20CardinalityInterface22ConservativeLowerBoundEv
FNDA:0,_ZNK7testing20CardinalityInterface22ConservativeUpperBoundEv
FNDA:0,_ZN7testing11CardinalityC2EPKNS_20CardinalityInterfaceE
FNF:11
FNH:0
DA:68,0
DA:72,0
DA:73,0
DA:98,0
DA:102,0
DA:103,0
DA:107,0
DA:108,0
DA:113,0
DA:114,0
DA:119,0
DA:120,0
DA:121,0
DA:125,0
LF:14
LH:0
end_of_record
TN:
SF:/home/alex/labs3/build/_deps/googletest-src/googlemock/include/gmock/gmock-matchers.h
FN:1280,1281,_ZN7testing8internal16AllOfMatcherImplIRKdEC2ESt6vectorINS_7MatcherIS3_EESaIS7_EE
FN:1283,1290,_ZNK7testing8internal16AllOfMatcherImplIRKdE10DescribeToEPSo
FN:1292,1299,_ZNK7testing8internal16AllOfMatcherImplIRKdE18DescribeNegationToEPSo
FN:1301,1328,_ZNK7testing8internal16AllOfMatcherImplIRKdE15MatchAndExplainES3_PNS_19MatchResultListenerE
FN:1341,1344,_ZN7testing8internal15VariadicMatcherINS0_16AllOfMatcherImplEJNS0_9GtMatcherIdEENS0_9LtMatcherIiEEEEC2ERKS4_RKS6_
FN:1353,1357,_ZNK7testing8internal15VariadicMatcherINS0_16AllOfMatcherImplEJNS0_9GtMatcherIdEENS0_9LtMatcherIiEEEEcvNS_7MatcherIT_EEIRKdEEv
FN:1361,1365,_ZNK7testing8internal15VariadicMatcherINS0_16AllOfMatcherImplEJNS0_9GtMatcherIdEENS0_9LtMatcherIiEEEE21CreateVariadicMatcherIRKdLm0EEEvPSt6vectorINS_7MatcherIT_EESaISE_EESt17integral_constantImXT0_EE
FN:1361,1365,_ZNK7testing8internal15VariadicMatcherINS0_16AllOfMatcherImplEJNS0_9GtMatcherIdEENS0_9LtMatcherIiEEEE21CreateVariadicMatcherIRKdLm1EEEvPSt6vectorINS_7MatcherIT_EESaISE_EESt17integral_constantImXT0_EE
FN:1368,1370,_ZNK7testing8internal15VariadicMatcherINS0_16AllOfMatcherImplEJNS0_9GtMatcherIdEENS0_9LtMatcherIiEEEE21CreateVariadicMatcherIRKdEEvPSt6vectorINS_7MatcherIT_EESaISE_EESt17integral_constantImLm2EE
FN:1573,1573,_ZN7testing8internal29PredicateFormatterFromMatcherIDnEC2EDn
FN:1573,1573,_ZN7testing8internal29PredicateFormatterFromMatcherINS0_15VariadicMatcherINS0_16AllOfMatcherImplEJNS0_9GtMatcherIdEENS0_9LtMatcherIiEEEEEEC2ES8_
FN:1573,1573,_ZN7testing8internal29PredicateFormatterFromMatcherINS0_18ElementsAreMatcherISt5tupleIJNS0_11PairMatcherIPKcS6_EEEEEEEC2ES9_
FN:1573,1573,_ZN7testing8internal29PredicateFormatterFromMatcherINS0_18ElementsAreMatcherISt5tupleIJaaaaEEEEEC2ES5_
FN:1573,1573,_ZN7testing8internal29PredicateFormatterFromMatcherINS0_18ElementsAreMatcherISt5tupleIJiEEEEEC2ES5_
FN:1573,1573,_ZN7testing8internal29PredicateFormatterFromMatcherINS0_18ElementsAreMatcherISt5tupleIJiiEEEEEC2ES5_
FN:1573,1573,_ZN7testing8internal29PredicateFormatterFromMatcherINS0_18ElementsAreMatcherISt5tupleIJiiiEEEEEC2ES5_
FN:1573,1573,_ZN7testing8internal29PredicateFormatterFromMatcherINS0_18ElementsAreMatcherISt5tupleIJiiiiEEEEEC2ES5_
FN:1573,1573,_ZN7testing8internal29PredicateFormatterFromMatcherINS0_18ElementsAreMatcherISt5tupleIJiiiiiEEEEEC2ES5_
FN:1573,1573,_ZN7testing8internal29PredicateFormatterFromMatcherINS0_18ElementsAreMatcherISt5tupleIJiiiiiiiEEEEEC2ES5_
FN:1573,1573,_ZN7testing8internal29PredicateFormatterFromMatcherINS0_18ElementsAreMatcherISt5tupleIJiiiiiiiiEEEEEC2ES5_
FN:1573,1573,_ZN7testing8internal29PredicateFormatterFromMatcherINS0_18ElementsAreMatcherISt5tupleIJiiiiiiiiiEEEEEC2ES5_
FN:1573,1573,_ZN7testing8internal29PredicateFormatterFromMatcherINS0_18ElementsAreMatcherISt5tupleIJxxxxxxxxEEEEEC2ES5_
FN:1573,1573,_ZN7testing8internal29PredicateFormatterFromMatcherINS0_23ElementsAreArrayMatcherIlEEEC2ES3_
FN:1573,1573,_ZN7testing8internal29PredicateFormatterFromMatcherINS0_27UnorderedElementsAreMatcherISt5tupleIJNS0_11PairMatcherIPKcS6_EEEEEEEC2ES9_
FN:1573,1573,_ZN7testing8internal29PredicateFormatterFromMatcherINS0_27UnorderedElementsAreMatcherISt5tupleIJNS0_11PairMatcherIPKcS6_EES7_EEEEEC2ES9_
FN:1573,1573,_ZN7testing8internal29PredicateFormatterFromMatcherINS_18PolymorphicMatcherINS0_19MatchesRegexMatcherEEEEC2ES4_
FN:1579,1612,_ZNK7testing8internal29PredicateFormatterFromMatcherIDnEclIPSt3mapINSt7__cxx1112basic_stringIcSt11char_traitsIcESaIcEEESA_St4lessISA_ESaISt4pairIKSA_SA_EEEEENS_15AssertionResultEPKcRKT_
FN:1579,1612,_ZNK7testing8internal29PredicateFormatterFromMatcherINS0_15VariadicMatcherINS0_16AllOfMatcherImplEJNS0_9GtMatcherIdEENS0_9LtMatcherIiEEEEEEclIdEENS_15AssertionResultEPKcRKT_
FN:1579,1612,_ZNK7testing8internal29PredicateFormatterFromMatcherINS0_18ElementsAreMatcherISt5tupleIJNS0_11PairMatcherIPKcS6_EEEEEEEclISt3mapINSt7__cxx1112basic_stringIcSt11char_traitsIcESaIcEEESI_St4lessISI_ESaISt4pairIKSI_SI_EEEEENS_15AssertionResultES6_RKT_
FN:1579,1612,_ZNK7testing8internal29PredicateFormatterFromMatcherINS0_18ElementsAreMatcherISt5tupleIJaaaaEEEEEclISt6vectorIaSaIaEEEENS_15AssertionResultEPKcRKT_
FN:1579,1612,_ZNK7testing8internal29PredicateFormatterFromMatcherINS0_18ElementsAreMatcherISt5tupleIJiEEEEEclISt6vectorIiSaIiEEEENS_15AssertionResultEPKcRKT_
FN:1579,1612,_ZNK7testing8internal29PredicateFormatterFromMatcherINS0_18ElementsAreMatcherISt5tupleIJiiEEEEEclISt6vectorIiSaIiEEEENS_15AssertionResultEPKcRKT_
FN:1579,1612,_ZNK7testing8internal29PredicateFormatterFromMatcherINS0_18ElementsAreMatcherISt5tupleIJiiEEEEEclISt6vectorIlSaIlEEEENS_15AssertionResultEPKcRKT_
FN:1579,1612,_ZNK7testing8internal29PredicateFormatterFromMatcherINS0_18ElementsAreMatcherISt5tupleIJiiiEEEEEclISt6vectorIiSaIiEEEENS_15AssertionResultEPKcRKT_
FN:1579,1612,_ZNK7testing8internal29PredicateFormatterFromMatcherINS0_18ElementsAreMatcherISt5tupleIJiiiEEEEEclISt6vectorIlSaIlEEEENS_15AssertionResultEPKcRKT_
FN:1579,1612,_ZNK7testing8internal29PredicateFormatterFromMatcherINS0_18ElementsAreMatcherISt5tupleIJiiiiEEEEEclISt6vectorIiSaIiEEEENS_15AssertionResultEPKcRKT_
FN:1579,1612,_ZNK7testing8internal29PredicateFormatterFromMatcherINS0_18ElementsAreMatcherISt5tupleIJiiiiiEEEEEclISt6vectorIiSaIiEEEENS_15AssertionResultEPKcRKT_
FN:1579,1612,_ZNK7testing8internal29PredicateFormatterFromMatcherINS0_18ElementsAreMatcherISt5tupleIJiiiiiiiEEEEEclISt6vectorIlSaIlEEEENS_15AssertionResultEPKcRKT_
FN:1579,1612,_ZNK7testing8internal29PredicateFormatterFromMatcherINS0_18ElementsAreMatcherISt5tupleIJiiiiiiiiEEEEEclISt6vectorIiSaIiEEEENS_15AssertionResultEPKcRKT_
FN:1579,1612,_ZNK7testing8internal29PredicateFormatterFromMatcherINS0_18ElementsAreMatcherISt5tupleIJiiiiiiiiEEEEEclISt6vectorIlSaIlEEEENS_15AssertionResultEPKcRKT_
FN:1579,1612,_ZNK7testing8internal29PredicateFormatterFromMatcherINS0_18ElementsAreMatcherISt5tupleIJiiiiiiiiiEEEEEclISt6vectorIiSaIiEEEENS_15AssertionResultEPKcRKT_
FN:1579,1612,_ZNK7testing8internal29PredicateFormatterFromMatcherINS0_18ElementsAreMatcherISt5tupleIJxxxxxxxxEEEEEclISt6vectorIlSaIlEEEENS_15AssertionResultEPKcRKT_
FN:1579,1612,_ZNK7testing8internal29PredicateFormatterFromMatcherINS0_23ElementsAreArrayMatcherIlEEEclISt6vectorIlSaIlEEEENS_15AssertionResultEPKcRKT_
FN:1579,1612,_ZNK7testing8internal29PredicateFormatterFromMatcherINS0_27UnorderedElementsAreMatcherISt5tupleIJNS0_11PairMatcherIPKcS6_EEEEEEEclISt3mapINSt7__cxx1112basic_stringIcSt11char_traitsIcESaIcEEESI_St4lessISI_ESaISt4pairIKSI_SI_EEEEENS_15AssertionResultES6_RKT_
FN:1579,1612,_ZNK7testing8internal29PredicateFormatterFromMatcherINS0_27UnorderedElementsAreMatcherISt5tupleIJNS0_11PairMatcherIPKcS6_EES7_EEEEEclISt3mapINSt7__cxx1112basic_stringIcSt11char_traitsIcESaIcEEESI_St4lessISI_ESaISt4pairIKSI_SI_EEEEENS_15AssertionResultES6_RKT_
FN:1579,1612,_ZNK7testing8internal29PredicateFormatterFromMatcherINS_18PolymorphicMatcherINS0_19MatchesRegexMatcherEEEEclINSt7__cxx1112basic_stringIcSt11char_traitsIcESaIcEEEEENS_15AssertionResultEPKcRKT_
FN:1623,1626,_ZN7testing8internal33MakePredicateFormatterFromMatcherIDnEENS0_29PredicateFormatterFromMatcherIT_EES3_
FN:1623,1626,_ZN7testing8internal33MakePredicateFormatterFromMatcherINS0_15VariadicMatcherINS0_16AllOfMatcherImplEJNS0_9GtMatcherIdEENS0_9LtMatcherIiEEEEEEENS0_29PredicateFormatterFromMatcherIT_EESA_
FN:1623,1626,_ZN7testing8internal33MakePredicateFormatterFromMatcherINS0_18ElementsAreMatcherISt5tupleIJNS0_11PairMatcherIPKcS6_EEEEEEEENS0_29PredicateFormatterFromMatcherIT_EESB_
FN:1623,1626,_ZN7testing8internal33MakePredicateFormatterFromMatcherINS0_18ElementsAreMatcherISt5tupleIJaaaaEEEEEENS0_29PredicateFormatterFromMatcherIT_EES7_
FN:1623,1626,_ZN7testing8internal33MakePredicateFormatterFromMatcherINS0_18ElementsAreMatcherISt5tupleIJiEEEEEENS0_29PredicateFormatterFromMatcherIT_EES7_
FN:1623,1626,_ZN7testing8internal33MakePredicateFormatterFromMatcherINS0_18ElementsAreMatcherISt5tupleIJiiEEEEEENS0_29PredicateFormatterFromMatcherIT_EES7_
FN:1623,1626,_ZN7testing8internal33MakePredicateFormatterFromMatcherINS0_18ElementsAreMatcherISt5tupleIJiiiEEEEEENS0_29PredicateFormatterFromMatcherIT_EES7_
FN:1623,1626,_ZN7testing8internal33MakePredicateFormatterFromMatcherINS0_18ElementsAreMatcherISt5tupleIJiiiiEEEEEENS0_29PredicateFormatterFromMatcherIT_EES7_
FN:1623,1626,_ZN7testing8internal33MakePredicateFormatterFromMatcherINS0_18ElementsAreMatcherISt5tupleIJiiiiiEEEEEENS0_29PredicateFormatterFromMatcherIT_EES7_
FN:1623,1626,_ZN7testing8internal33MakePredicateFormatterFromMatcherINS0_18ElementsAreMatcherISt5tupleIJiiiiiiiEEEEEENS0_29PredicateFormatterFromMatcherIT_EES7_
FN:1623,1626,_ZN7testing8internal33MakePredicateFormatterFromMatcherINS0_18ElementsAreMatcherISt5tupleIJiiiiiiiiEEEEEENS0_29PredicateFormatterFromMatcherIT_EES7_
FN:1623,1626,_ZN7testing8internal33MakePredicateFormatterFromMatcherINS0_18ElementsAreMatcherISt5tupleIJiiiiiiiiiEEEEEENS0_29PredicateFormatterFromMatcherIT_EES7_
FN:1623,1626,_ZN7testing8internal33MakePredicateFormatterFromMatcherINS0_18ElementsAreMatcherISt5tupleIJxxxxxxxxEEEEEENS0_29PredicateFormatterFromMatcherIT_EES7_
FN:1623,1626,_ZN7testing8internal33MakePredicateFormatterFromMatcherINS0_23ElementsAreArrayMatcherIlEEEENS0_29PredicateFormatterFromMatcherIT_EES5_
FN:1623,1626,_ZN7testing8internal33MakePredicateFormatterFromMatcherINS0_27UnorderedElementsAreMatcherISt5tupleIJNS0_11PairMatcherIPKcS6_EEEEEEEENS0_29PredicateFormatterFromMatcherIT_EESB_
FN:1623,1626,_ZN7testing8internal33MakePredicateFormatterFromMatcherINS0_27UnorderedElementsAreMatcherISt5tupleIJNS0_11PairMatcherIPKcS6_EES7_EEEEEENS0_29PredicateFormatterFromMatcherIT_EESB_
FN:1623,1626,_ZN7testing8internal33MakePredicateFormatterFromMatcherINS_18PolymorphicMatcherINS0_19MatchesRegexMatcherEEEEENS0_29PredicateFormatterFromMatcherIT_EES6_
FN:2933,2935,_ZN7testing8internal12pair_getters5FirstIKSt4pairIKNSt7__cxx1112basic_stringIcSt11char_traitsIcESaIcEEES9_EEEDTdtfp_5firstERT_NS0_5Rank0E
FN:2942,2944,_ZN7testing8internal12pair_getters6SecondIKSt4pairIKNSt7__cxx1112basic_stringIcSt11char_traitsIcESaIcEEES9_EEEDTdtfp_6secondERT_NS0_5Rank0E
FN:3061,3065,_ZN7testing8internal15PairMatcherImplIRKSt4pairIKNSt7__cxx1112basic_stringIcSt11char_traitsIcESaIcEEES8_EEC2IPKcSG_EET_T0_
FN:3068,3073,_ZNK7testing8internal15PairMatcherImplIRKSt4pairIKNSt7__cxx1112basic_stringIcSt11char_traitsIcESaIcEEES8_EE10DescribeToEPSo
FN:3076,3081,_ZNK7testing8internal15PairMatcherImplIRKSt4pairIKNSt7__cxx1112basic_stringIcSt11char_traitsIcESaIcEEES8_EE18DescribeNegationToEPSo
FN:308,308,_ZN7testing25StringMatchResultListenerC2Ev
FN:3085,3110,_ZNK7testing8internal15PairMatcherImplIRKSt4pairIKNSt7__cxx1112basic_stringIcSt11char_traitsIcESaIcEEES8_EE15MatchAndExplainESC_PNS_19MatchResultListenerE
FN:311,311,_ZNK7testing25StringMatchResultListener3strB5cxx11Ev
FN:3113,3129,_ZNK7testing8internal15PairMatcherImplIRKSt4pairIKNSt7__cxx1112basic_stringIcSt11char_traitsIcESaIcEEES8_EE14ExplainSuccessERS9_SE_PNS_19MatchResultListenerE
FN:3139,3140,_ZN7testing8internal11PairMatcherIPKcS3_EC2ES3_S3_
FN:3143,3146,_ZNK7testing8internal11PairMatcherIPKcS3_EcvNS_7MatcherIT_EEIRKSt4pairIKNSt7__cxx1112basic_stringIcSt11char_traitsIcESaIcEEESF_EEEv
FN:3378,3382,_ZN7testing8internal22ElementsAreMatcherImplIRKSt3mapINSt7__cxx1112basic_stringIcSt11char_traitsIcESaIcEEES8_St4lessIS8_ESaISt4pairIKS8_S8_EEEEC2IN9__gnu_cxx17__normal_iteratorIPNS_7MatcherIRKSD_EESt6vectorISP_SaISP_EEEEEET_SV_
FN:3378,3382,_ZN7testing8internal22ElementsAreMatcherImplIRKSt6vectorIaSaIaEEEC2IN9__gnu_cxx17__normal_iteratorIPNS_7MatcherIRKaEES2_ISE_SaISE_EEEEEET_SJ_
FN:3378,3382,_ZN7testing8internal22ElementsAreMatcherImplIRKSt6vectorIiSaIiEEEC2IN9__gnu_cxx17__normal_iteratorIPNS_7MatcherIRKiEES2_ISE_SaISE_EEEEEET_SJ_
FN:3378,3382,_ZN7testing8internal22ElementsAreMatcherImplIRKSt6vectorIlSaIlEEEC2IN9__gnu_cxx17__normal_iteratorIPKlS4_EEEET_SE_
FN:3378,3382,_ZN7testing8internal22ElementsAreMatcherImplIRKSt6vectorIlSaIlEEEC2IN9__gnu_cxx17__normal_iteratorIPNS_7MatcherIRKlEES2_ISE_SaISE_EEEEEET_SJ_
FN:3385,3401,_ZNK7testing8internal22ElementsAreMatcherImplIRKSt3mapINSt7__cxx1112basic_stringIcSt11char_traitsIcESaIcEEES8_St4lessIS8_ESaISt4pairIKS8_S8_EEEE10DescribeToEPSo
FN:3385,3401,_ZNK7testing8internal22ElementsAreMatcherImplIRKSt6vectorIaSaIaEEE10DescribeToEPSo
FN:3385,3401,_ZNK7testing8internal22ElementsAreMatcherImplIRKSt6vectorIiSaIiEEE10DescribeToEPSo
FN:3385,3401,_ZNK7testing8internal22ElementsAreMatcherImplIRKSt6vectorIlSaIlEEE10DescribeToEPSo
FN:3404,3418,_ZNK7testing8internal22ElementsAreMatcherImplIRKSt3mapINSt7__cxx1112basic_stringIcSt11char_traitsIcESaIcEEES8_St4lessIS8_ESaISt4pairIKS8_S8_EEEE18DescribeNegationToEPSo
FN:3404,3418,_ZNK7testing8internal22ElementsAreMatcherImplIRKSt6vectorIaSaIaEEE18DescribeNegationToEPSo
FN:3404,3418,_ZNK7testing8internal22ElementsAreMatcherImplIRKSt6vectorIiSaIiEEE18DescribeNegationToEPSo
FN:3404,3418,_ZNK7testing8internal22ElementsAreMatcherImplIRKSt6vectorIlSaIlEEE18DescribeNegationToEPSo
FN:341,358,_ZN7testing8internal15MatcherCastImplIRKNSt7__cxx1112basic_stringIcSt11char_traitsIcESaIcEEENS_18PolymorphicMatcherINS0_19MatchesRegexMatcherEEEE4CastERKSC_
FN:341,358,_ZN7testing8internal15MatcherCastImplIRKNSt7__cxx1112basic_stringIcSt11char_traitsIcESaIcEEEPKcE4CastERKSB_
FN:341,358,_ZN7testing8internal15MatcherCastImplIRKPSt3mapINSt7__cxx1112basic_stringIcSt11char_traitsIcESaIcEEES8_St4lessIS8_ESaISt4pairIKS8_S8_EEEDnE4CastERKDn
FN:341,358,_ZN7testing8internal15MatcherCastImplIRKSt3mapINSt7__cxx1112basic_stringIcSt11char_traitsIcESaIcEEES8_St4lessIS8_ESaISt4pairIKS8_S8_EEENS0_18ElementsAreMatcherISt5tupleIJNS0_11PairMatcherIPKcSM_EEEEEEE4CastERKSP_
FN:341,358,_ZN7testing8internal15MatcherCastImplIRKSt3mapINSt7__cxx1112basic_stringIcSt11char_traitsIcESaIcEEES8_St4lessIS8_ESaISt4pairIKS8_S8_EEENS0_27UnorderedElementsAreMatcherISt5tupleIJNS0_11PairMatcherIPKcSM_EEEEEEE4CastERKSP_
FN:341,358,_ZN7testing8internal15MatcherCastImplIRKSt3mapINSt7__cxx1112basic_stringIcSt11char_traitsIcESaIcEEES8_St4lessIS8_ESaISt4pairIKS8_S8_EEENS0_27UnorderedElementsAreMatcherISt5tupleIJNS0_11PairMatcherIPKcSM_EESN_EEEEE4CastERKSP_
FN:341,358,_ZN7testing8internal15MatcherCastImplIRKSt4pairIKNSt7__cxx1112basic_stringIcSt11char_traitsIcESaIcEEES8_ENS0_11PairMatcherIPKcSF_EEE4CastERKSG_
FN:341,358,_ZN7testing8internal15MatcherCastImplIRKSt6vectorIaSaIaEENS0_18ElementsAreMatcherISt5tupleIJaaaaEEEEE4CastERKSA_
FN:341,358,_ZN7testing8internal15MatcherCastImplIRKSt6vectorIiSaIiEENS0_18ElementsAreMatcherISt5tupleIJiEEEEE4CastERKSA_
FN:341,358,_ZN7testing8internal15MatcherCastImplIRKSt6vectorIiSaIiEENS0_18ElementsAreMatcherISt5tupleIJiiEEEEE4CastERKSA_
FN:341,358,_ZN7testing8internal15MatcherCastImplIRKSt6vectorIiSaIiEENS0_18ElementsAreMatcherISt5tupleIJiiiEEEEE4CastERKSA_
FN:341,358,_ZN7testing8internal15MatcherCastImplIRKSt6vectorIiSaIiEENS0_18ElementsAreMatcherISt5tupleIJiiiiEEEEE4CastERKSA_
FN:341,358,_ZN7testing8internal15MatcherCastImplIRKSt6vectorIiSaIiEENS0_18ElementsAreMatcherISt5tupleIJiiiiiEEEEE4CastERKSA_
FN:341,358,_ZN7testing8internal15MatcherCastImplIRKSt6vectorIiSaIiEENS0_18ElementsAreMatcherISt5tupleIJiiiiiiiiEEEEE4CastERKSA_
FN:341,358,_ZN7testing8internal15MatcherCastImplIRKSt6vectorIiSaIiEENS0_18ElementsAreMatcherISt5tupleIJiiiiiiiiiEEEEE4CastERKSA_
FN:341,358,_ZN7testing8internal15MatcherCastImplIRKSt6vectorIlSaIlEENS0_18ElementsAreMatcherISt5tupleIJiiEEEEE4CastERKSA_
FN:341,358,_ZN7testing8internal15MatcherCastImplIRKSt6vectorIlSaIlEENS0_18ElementsAreMatcherISt5tupleIJiiiEEEEE4CastERKSA_
FN:341,358,_ZN7testing8internal15MatcherCastImplIRKSt6vectorIlSaIlEENS0_18ElementsAreMatcherISt5tupleIJiiiiiiiEEEEE4CastERKSA_
FN:341,358,_ZN7testing8internal15MatcherCastImplIRKSt6vectorIlSaIlEENS0_18ElementsAreMatcherISt5tupleIJiiiiiiiiEEEEE4CastERKSA_
FN:341,358,_ZN7testing8internal15MatcherCastImplIRKSt6vectorIlSaIlEENS0_18ElementsAreMatcherISt5tupleIJxxxxxxxxEEEEE4CastERKSA_
FN:341,358,_ZN7testing8internal15MatcherCastImplIRKSt6vectorIlSaIlEENS0_23ElementsAreArrayMatcherIlEEE4CastERKS8_
FN:341,358,_ZN7testing8internal15MatcherCastImplIRKaaE4CastES3_
FN:341,358,_ZN7testing8internal15MatcherCastImplIRKdNS0_15VariadicMatcherINS0_16AllOfMatcherImplEJNS0_9GtMatcherIdEENS0_9LtMatcherIiEEEEEE4CastERKSA_
FN:341,358,_ZN7testing8internal15MatcherCastImplIRKdNS0_9GtMatcherIdEEE4CastERKS5_
FN:341,358,_ZN7testing8internal15MatcherCastImplIRKdNS0_9LtMatcherIiEEE4CastERKS5_
FN:341,358,_ZN7testing8internal15MatcherCastImplIRKiiE4CastES3_
FN:341,358,_ZN7testing8internal15MatcherCastImplIRKliE4CastERKi
FN:341,358,_ZN7testing8internal15MatcherCastImplIRKllE4CastES3_
FN:341,358,_ZN7testing8internal15MatcherCastImplIRKlxE4CastERKx
FN:3420,3498,_ZNK7testing8internal22ElementsAreMatcherImplIRKSt3mapINSt7__cxx1112basic_stringIcSt11char_traitsIcESaIcEEES8_St4lessIS8_ESaISt4pairIKS8_S8_EEEE15MatchAndExplainESH_PNS_19MatchResultListenerE
FN:3420,3498,_ZNK7testing8internal22ElementsAreMatcherImplIRKSt6vectorIaSaIaEEE15MatchAndExplainES6_PNS_19MatchResultListenerE
FN:3420,3498,_ZNK7testing8internal22ElementsAreMatcherImplIRKSt6vectorIiSaIiEEE15MatchAndExplainES6_PNS_19MatchResultListenerE
FN:3420,3498,_ZNK7testing8internal22ElementsAreMatcherImplIRKSt6vectorIlSaIlEEE15MatchAndExplainES6_PNS_19MatchResultListenerE
FN:3501,3503,_ZN7testing8internal22ElementsAreMatcherImplIRKSt3mapINSt7__cxx1112basic_stringIcSt11char_traitsIcESaIcEEES8_St4lessIS8_ESaISt4pairIKS8_S8_EEEE8ElementsEm
FN:3501,3503,_ZN7testing8internal22ElementsAreMatcherImplIRKSt6vectorIaSaIaEEE8ElementsEm
FN:3501,3503,_ZN7testing8internal22ElementsAreMatcherImplIRKSt6vectorIiSaIiEEE8ElementsEm
FN:3501,3503,_ZN7testing8internal22ElementsAreMatcherImplIRKSt6vectorIlSaIlEEE8ElementsEm
FN:3505,3505,_ZNK7testing8internal22ElementsAreMatcherImplIRKSt3mapINSt7__cxx1112basic_stringIcSt11char_traitsIcESaIcEEES8_St4lessIS8_ESaISt4pairIKS8_S8_EEEE5countEv
FN:3505,3505,_ZNK7testing8internal22ElementsAreMatcherImplIRKSt6vectorIaSaIaEEE5countEv
FN:3505,3505,_ZNK7testing8internal22ElementsAreMatcherImplIRKSt6vectorIiSaIiEEE5countEv
FN:3505,3505,_ZNK7testing8internal22ElementsAreMatcherImplIRKSt6vectorIlSaIlEEE5countEv
FN:3516,3519,_ZN7testing8internal11MatchMatrixC2Emm
FN:3521,3521,_ZNK7testing8internal11MatchMatrix7LhsSizeEv
FN:3522,3522,_ZNK7testing8internal11MatchMatrix7RhsSizeEv
FN:3523,3525,_ZNK7testing8internal11MatchMatrix7HasEdgeEmm
FN:3526,3528,_ZN7testing8internal11MatchMatrix7SetEdgeEmmb
FN:3540,3542,_ZNK7testing8internal11MatchMatrix10SpaceIndexEmm
FN:3573,3575,_ZN7testing8internal35UnorderedElementsAreMatcherImplBaseC2ENS0_23UnorderedMatcherRequire5FlagsE
FN:3595,3595,_ZN7testing8internal35UnorderedElementsAreMatcherImplBase18matcher_describersEv
FN:3597,3599,_ZN7testing8internal35UnorderedElementsAreMatcherImplBase8ElementsEm
FN:3601,3601,_ZNK7testing8internal35UnorderedElementsAreMatcherImplBase11match_flagsEv
FN:362,374,_ZN7testing8internal15MatcherCastImplIRKNSt7__cxx1112basic_stringIcSt11char_traitsIcESaIcEEENS_18PolymorphicMatcherINS0_19MatchesRegexMatcherEEEE8CastImplILb0EEENS_7MatcherIS9_EERKSC_St17integral_constantIbLb1EESJ_IbXT_EE
FN:362,374,_ZN7testing8internal15MatcherCastImplIRKNSt7__cxx1112basic_stringIcSt11char_traitsIcESaIcEEEPKcE8CastImplILb1EEENS_7MatcherIS9_EERKSB_St17integral_constantIbLb1EESI_IbXT_EE
FN:362,374,_ZN7testing8internal15MatcherCastImplIRKPSt3mapINSt7__cxx1112basic_stringIcSt11char_traitsIcESaIcEEES8_St4lessIS8_ESaISt4pairIKS8_S8_EEEDnE8CastImplILb1EEENS_7MatcherISI_EERKDnSt17integral_constantIbLb1EESP_IbXT_EE
FN:362,374,_ZN7testing8internal15MatcherCastImplIRKSt3mapINSt7__cxx1112basic_stringIcSt11char_traitsIcESaIcEEES8_St4lessIS8_ESaISt4pairIKS8_S8_EEENS0_18ElementsAreMatcherISt5tupleIJNS0_11PairMatcherIPKcSM_EEEEEEE8CastImplILb0EEENS_7MatcherISH_EERKSP_St17integral_constantIbLb1EESW_IbXT_EE
FN:362,374,_ZN7testing8internal15MatcherCastImplIRKSt3mapINSt7__cxx1112basic_stringIcSt11char_traitsIcESaIcEEES8_St4lessIS8_ESaISt4pairIKS8_S8_EEENS0_27UnorderedElementsAreMatcherISt5tupleIJNS0_11PairMatcherIPKcSM_EEEEEEE8CastImplILb0EEENS_7MatcherISH_EERKSP_St17integral_constantIbLb1EESW_IbXT_EE
FN:362,374,_ZN7testing8internal15MatcherCastImplIRKSt3mapINSt7__cxx1112basic_stringIcSt11char_traitsIcESaIcEEES8_St4lessIS8_ESaISt4pairIKS8_S8_EEENS0_27UnorderedElementsAreMatcherISt5tupleIJNS0_11PairMatcherIPKcSM_EESN_EEEEE8CastImplILb0EEENS_7MatcherISH_EERKSP_St17integral_constantIbLb1EESW_IbXT_EE
FN:362,374,_ZN7testing8internal15MatcherCastImplIRKSt4pairIKNSt7__cxx1112basic_stringIcSt11char_traitsIcESaIcEEES8_ENS0_11PairMatcherIPKcSF_EEE8CastImplILb0EEENS_7MatcherISC_EERKSG_St17integral_constantIbLb1EESN_IbXT_EE
FN:362,374,_ZN7testing8internal15MatcherCastImplIRKSt6vectorIaSaIaEENS0_18ElementsAreMatcherISt5tupleIJaaaaEEEEE8CastImplILb0EEENS_7MatcherIS6_EERKSA_St17integral_constantIbLb1EESH_IbXT_EE
FN:362,374,_ZN7testing8internal15MatcherCastImplIRKSt6vectorIiSaIiEENS0_18ElementsAreMatcherISt5tupleIJiEEEEE8CastImplILb0EEENS_7MatcherIS6_EERKSA_St17integral_constantIbLb1EESH_IbXT_EE
FN:362,374,_ZN7testing8internal15MatcherCastImplIRKSt6vectorIiSaIiEENS0_18ElementsAreMatcherISt5tupleIJiiEEEEE8CastImplILb0EEENS_7MatcherIS6_EERKSA_St17integral_constantIbLb1EESH_IbXT_EE
FN:362,374,_ZN7testing8internal15MatcherCastImplIRKSt6vectorIiSaIiEENS0_18ElementsAreMatcherISt5tupleIJiiiEEEEE8CastImplILb0EEENS_7MatcherIS6_EERKSA_St17integral_constantIbLb1EESH_IbXT_EE
FN:362,374,_ZN7testing8internal15MatcherCastImplIRKSt6vectorIiSaIiEENS0_18ElementsAreMatcherISt5tupleIJiiiiEEEEE8CastImplILb0EEENS_7MatcherIS6_EERKSA_St17integral_constantIbLb1EESH_IbXT_EE
FN:362,374,_ZN7testing8internal15MatcherCastImplIRKSt6vectorIiSaIiEENS0_18ElementsAreMatcherISt5tupleIJiiiiiEEEEE8CastImplILb0EEENS_7MatcherIS6_EERKSA_St17integral_constantIbLb1EESH_IbXT_EE
FN:362,374,_ZN7testing8internal15MatcherCastImplIRKSt6vectorIiSaIiEENS0_18ElementsAreMatcherISt5tupleIJiiiiiiiiEEEEE8CastImplILb0EEENS_7MatcherIS6_EERKSA_St17integral_constantIbLb1EESH_IbXT_EE
FN:362,374,_ZN7testing8internal15MatcherCastImplIRKSt6vectorIiSaIiEENS0_18ElementsAreMatcherISt5tupleIJiiiiiiiiiEEEEE8CastImplILb0EEENS_7MatcherIS6_EERKSA_St17integral_constantIbLb1EESH_IbXT_EE
FN:362,374,_ZN7testing8internal15MatcherCastImplIRKSt6vectorIlSaIlEENS0_18ElementsAreMatcherISt5tupleIJiiEEEEE8CastImplILb0EEENS_7MatcherIS6_EERKSA_St17integral_constantIbLb1EESH_IbXT_EE
FN:362,374,_ZN7testing8internal15MatcherCastImplIRKSt6vectorIlSaIlEENS0_18ElementsAreMatcherISt5tupleIJiiiEEEEE8CastImplILb0EEENS_7MatcherIS6_EERKSA_St17integral_constantIbLb1EESH_IbXT_EE
FN:362,374,_ZN7testing8internal15MatcherCastImplIRKSt6vectorIlSaIlEENS0_18ElementsAreMatcherISt5tupleIJiiiiiiiEEEEE8CastImplILb0EEENS_7MatcherIS6_EERKSA_St17integral_constantIbLb1EESH_IbXT_EE
FN:362,374,_ZN7testing8internal15MatcherCastImplIRKSt6vectorIlSaIlEENS0_18ElementsAreMatcherISt5tupleIJiiiiiiiiEEEEE8CastImplILb0EEENS_7MatcherIS6_EERKSA_St17integral_constantIbLb1EESH_IbXT_EE
FN:362,374,_ZN7testing8internal15MatcherCastImplIRKSt6vectorIlSaIlEENS0_18ElementsAreMatcherISt5tupleIJxxxxxxxxEEEEE8CastImplILb0EEENS_7MatcherIS6_EERKSA_St17integral_constantIbLb1EESH_IbXT_EE
FN:362,374,_ZN7testing8internal15MatcherCastImplIRKSt6vectorIlSaIlEENS0_23ElementsAreArrayMatcherIlEEE8CastImplILb0EEENS_7MatcherIS6_EERKS8_St17integral_constantIbLb1EESF_IbXT_EE
FN:362,374,_ZN7testing8internal15MatcherCastImplIRKaaE8CastImplILb1EEENS_7MatcherIS3_EES3_St17integral_constantIbLb1EES8_IbXT_EE
FN:362,374,_ZN7testing8internal15MatcherCastImplIRKdNS0_15VariadicMatcherINS0_16AllOfMatcherImplEJNS0_9GtMatcherIdEENS0_9LtMatcherIiEEEEEE8CastImplILb0EEENS_7MatcherIS3_EERKSA_St17integral_constantIbLb1EESH_IbXT_EE
FN:362,374,_ZN7testing8internal15MatcherCastImplIRKdNS0_9GtMatcherIdEEE8CastImplILb0EEENS_7MatcherIS3_EERKS5_St17integral_constantIbLb1EESC_IbXT_EE
FN:362,374,_ZN7testing8internal15MatcherCastImplIRKdNS0_9LtMatcherIiEEE8CastImplILb0EEENS_7MatcherIS3_EERKS5_St17integral_constantIbLb1EESC_IbXT_EE
FN:362,374,_ZN7testing8internal15MatcherCastImplIRKiiE8CastImplILb1EEENS_7MatcherIS3_EES3_St17integral_constantIbLb1EES8_IbXT_EE
FN:362,374,_ZN7testing8internal15MatcherCastImplIRKliE8CastImplILb1EEENS_7MatcherIS3_EERKiSt17integral_constantIbLb1EESA_IbXT_EE
FN:362,374,_ZN7testing8internal15MatcherCastImplIRKllE8CastImplILb1EEENS_7MatcherIS3_EES3_St17integral_constantIbLb1EES8_IbXT_EE
FN:362,374,_ZN7testing8internal15MatcherCastImplIRKlxE8CastImplILb1EEENS_7MatcherIS3_EERKxSt17integral_constantIbLb1EESA_IbXT_EE
FN:3622,3631,_ZN7testing8internal31UnorderedElementsAreMatcherImplIRKSt3mapINSt7__cxx1112basic_stringIcSt11char_traitsIcESaIcEEES8_St4lessIS8_ESaISt4pairIKS8_S8_EEEEC2IN9__gnu_cxx17__normal_iteratorIPNS_7MatcherIRKSD_EESt6vectorISP_SaISP_EEEEEENS0_23UnorderedMatcherRequire5FlagsET_SX_
FN:3634,3636,_ZNK7testing8internal31UnorderedElementsAreMatcherImplIRKSt3mapINSt7__cxx1112basic_stringIcSt11char_traitsIcESaIcEEES8_St4lessIS8_ESaISt4pairIKS8_S8_EEEE10DescribeToEPSo
FN:3639,3641,_ZNK7testing8internal31UnorderedElementsAreMatcherImplIRKSt3mapINSt7__cxx1112basic_stringIcSt11char_traitsIcESaIcEEES8_St4lessIS8_ESaISt4pairIKS8_S8_EEEE18DescribeNegationToEPSo
FN:3643,3653,_ZNK7testing8internal31UnorderedElementsAreMatcherImplIRKSt3mapINSt7__cxx1112basic_stringIcSt11char_traitsIcESaIcEEES8_St4lessIS8_ESaISt4pairIKS8_S8_EEEE15MatchAndExplainESH_PNS_19MatchResultListenerE
FN:3657,3682,_ZNK7testing8internal31UnorderedElementsAreMatcherImplIRKSt3mapINSt7__cxx1112basic_stringIcSt11char_traitsIcESaIcEEES8_St4lessIS8_ESaISt4pairIKS8_S8_EEEE15AnalyzeElementsISt23_Rb_tree_const_iteratorISD_EEENS0_11MatchMatrixET_SN_PSt6vectorIS8_SaIS8_EEPNS_19MatchResultListenerE
FN:3692,3694,_ZNK7testing8internal22CastAndAppendTransformIRKSt4pairIKNSt7__cxx1112basic_stringIcSt11char_traitsIcESaIcEEES8_EEclINS0_11PairMatcherIPKcSH_EEEENS_7MatcherISC_EERKT_
FN:3692,3694,_ZNK7testing8internal22CastAndAppendTransformIRKaEclIaEENS_7MatcherIS3_EERKT_
FN:3692,3694,_ZNK7testing8internal22CastAndAppendTransformIRKiEclIiEENS_7MatcherIS3_EERKT_
FN:3692,3694,_ZNK7testing8internal22CastAndAppendTransformIRKlEclIiEENS_7MatcherIS3_EERKT_
FN:3692,3694,_ZNK7testing8internal22CastAndAppendTransformIRKlEclIxEENS_7MatcherIS3_EERKT_
FN:3701,3702,_ZN7testing8internal27UnorderedElementsAreMatcherISt5tupleIJNS0_11PairMatcherIPKcS5_EEEEEC2ERKS7_
FN:3701,3702,_ZN7testing8internal27UnorderedElementsAreMatcherISt5tupleIJNS0_11PairMatcherIPKcS5_EES6_EEEC2ERKS7_
FN:3705,3718,_ZNK7testing8internal27UnorderedElementsAreMatcherISt5tupleIJNS0_11PairMatcherIPKcS5_EEEEEcvNS_7MatcherIT_EEIRKSt3mapINSt7__cxx1112basic_stringIcSt11char_traitsIcESaIcEEESJ_St4lessISJ_ESaISt4pairIKSJ_SJ_EEEEEv
FN:3705,3718,_ZNK7testing8internal27UnorderedElementsAreMatcherISt5tupleIJNS0_11PairMatcherIPKcS5_EES6_EEEcvNS_7MatcherIT_EEIRKSt3mapINSt7__cxx1112basic_stringIcSt11char_traitsIcESaIcEEESJ_St4lessISJ_ESaISt4pairIKSJ_SJ_EEEEEv
FN:3728,3728,_ZN7testing8internal18ElementsAreMatcherISt5tupleIJNS0_11PairMatcherIPKcS5_EEEEEC2ERKS7_
FN:3728,3728,_ZN7testing8internal18ElementsAreMatcherISt5tupleIJaaaaEEEC2ERKS3_
FN:3728,3728,_ZN7testing8internal18ElementsAreMatcherISt5tupleIJiEEEC2ERKS3_
FN:3728,3728,_ZN7testing8internal18ElementsAreMatcherISt5tupleIJiiEEEC2ERKS3_
FN:3728,3728,_ZN7testing8internal18ElementsAreMatcherISt5tupleIJiiiEEEC2ERKS3_
FN:3728,3728,_ZN7testing8internal18ElementsAreMatcherISt5tupleIJiiiiEEEC2ERKS3_
FN:3728,3728,_ZN7testing8internal18ElementsAreMatcherISt5tupleIJiiiiiEEEC2ERKS3_
FN:3728,3728,_ZN7testing8internal18ElementsAreMatcherISt5tupleIJiiiiiiiEEEC2ERKS3_
FN:3728,3728,_ZN7testing8internal18ElementsAreMatcherISt5tupleIJiiiiiiiiEEEC2ERKS3_
FN:3728,3728,_ZN7testing8internal18ElementsAreMatcherISt5tupleIJiiiiiiiiiEEEC2ERKS3_
FN:3728,3728,_ZN7testing8internal18ElementsAreMatcherISt5tupleIJxxxxxxxxEEEC2ERKS3_
FN:3731,3747,_ZNK7testing8internal18ElementsAreMatcherISt5tupleIJNS0_11PairMatcherIPKcS5_EEEEEcvNS_7MatcherIT_EEIRKSt3mapINSt7__cxx1112basic_stringIcSt11char_traitsIcESaIcEEESJ_St4lessISJ_ESaISt4pairIKSJ_SJ_EEEEEv
FN:3731,3747,_ZNK7testing8internal18ElementsAreMatcherISt5tupleIJaaaaEEEcvNS_7MatcherIT_EEIRKSt6vectorIaSaIaEEEEv
FN:3731,3747,_ZNK7testing8internal18ElementsAreMatcherISt5tupleIJiEEEcvNS_7MatcherIT_EEIRKSt6vectorIiSaIiEEEEv
FN:3731,3747,_ZNK7testing8internal18ElementsAreMatcherISt5tupleIJiiEEEcvNS_7MatcherIT_EEIRKSt6vectorIiSaIiEEEEv
FN:3731,3747,_ZNK7testing8internal18ElementsAreMatcherISt5tupleIJiiEEEcvNS_7MatcherIT_EEIRKSt6vectorIlSaIlEEEEv
FN:3731,3747,_ZNK7testing8internal18ElementsAreMatcherISt5tupleIJiiiEEEcvNS_7MatcherIT_EEIRKSt6vectorIiSaIiEEEEv
FN:3731,3747,_ZNK7testing8internal18ElementsAreMatcherISt5tupleIJiiiEEEcvNS_7MatcherIT_EEIRKSt6vectorIlSaIlEEEEv
FN:3731,3747,_ZNK7testing8internal18ElementsAreMatcherISt5tupleIJiiiiEEEcvNS_7MatcherIT_EEIRKSt6vectorIiSaIiEEEEv
FN:3731,3747,_ZNK7testing8internal18ElementsAreMatcherISt5tupleIJiiiiiEEEcvNS_7MatcherIT_EEIRKSt6vectorIiSaIiEEEEv
FN:3731,3747,_ZNK7testing8internal18ElementsAreMatcherISt5tupleIJiiiiiiiEEEcvNS_7MatcherIT_EEIRKSt6vectorIlSaIlEEEEv
FN:3731,3747,_ZNK7testing8internal18ElementsAreMatcherISt5tupleIJiiiiiiiiEEEcvNS_7MatcherIT_EEIRKSt6vectorIiSaIiEEEEv
FN:3731,3747,_ZNK7testing8internal18ElementsAreMatcherISt5tupleIJiiiiiiiiEEEcvNS_7MatcherIT_EEIRKSt6vectorIlSaIlEEEEv
FN:3731,3747,_ZNK7testing8internal18ElementsAreMatcherISt5tupleIJiiiiiiiiiEEEcvNS_7MatcherIT_EEIRKSt6vectorIiSaIiEEEEv
FN:3731,3747,_ZNK7testing8internal18ElementsAreMatcherISt5tupleIJxxxxxxxxEEEcvNS_7MatcherIT_EEIRKSt6vectorIlSaIlEEEEv
FN:3779,3779,_ZN7testing8internal23ElementsAreArrayMatcherIlEC2IN9__gnu_cxx17__normal_iteratorIPKlSt6vectorIlSaIlEEEEEET_SC_
FN:3782,3789,_ZNK7testing8internal23ElementsAreArrayMatcherIlEcvNS_7MatcherIT_EEIRKSt6vectorIlSaIlEEEEv
FN:4153,4156,_ZN7testing16ElementsAreArrayIN9__gnu_cxx17__normal_iteratorIPKlSt6vectorIlSaIlEEEEEENS_8internal23ElementsAreArrayMatcherINSt15iterator_traitsIT_E10value_typeEEESC_SC_
FN:4171,4174,_ZN7testing16ElementsAreArrayISt6vectorIlSaIlEEEEDTcl16ElementsAreArraycldtfp_5beginEcldtfp_3endEEERKT_
FN:460,460,_ZN7testing8internal15MatcherCastImplIRKSt4pairIKNSt7__cxx1112basic_stringIcSt11char_traitsIcESaIcEEES8_ENS_7MatcherISC_EEE4CastERKSE_
FN:460,460,_ZN7testing8internal15MatcherCastImplIRKaNS_7MatcherIS3_EEE4CastERKS5_
FN:460,460,_ZN7testing8internal15MatcherCastImplIRKiNS_7MatcherIS3_EEE4CastERKS5_
FN:460,460,_ZN7testing8internal15MatcherCastImplIRKlNS_7MatcherIS3_EEE4CastERKS5_
FN:4996,5000,_ZN7testing4PairIPKcS2_EENS_8internal11PairMatcherIT_T0_EES5_S6_
FN:5098,5102,_ZN7testing11ElementsAreIJNS_8internal11PairMatcherIPKcS4_EEEEENS1_18ElementsAreMatcherISt5tupleIJDpNSt5decayIRKT_E4typeEEEEEDpSB_
FN:5098,5102,_ZN7testing11ElementsAreIJaaaaEEENS_8internal18ElementsAreMatcherISt5tupleIJDpNSt5decayIRKT_E4typeEEEEEDpS7_
FN:5098,5102,_ZN7testing11ElementsAreIJiEEENS_8internal18ElementsAreMatcherISt5tupleIJDpNSt5decayIRKT_E4typeEEEEEDpS7_
FN:5098,5102,_ZN7testing11ElementsAreIJiiEEENS_8internal18ElementsAreMatcherISt5tupleIJDpNSt5decayIRKT_E4typeEEEEEDpS7_
FN:5098,5102,_ZN7testing11ElementsAreIJiiiEEENS_8internal18ElementsAreMatcherISt5tupleIJDpNSt5decayIRKT_E4typeEEEEEDpS7_
FN:5098,5102,_ZN7testing11ElementsAreIJiiiiEEENS_8internal18ElementsAreMatcherISt5tupleIJDpNSt5decayIRKT_E4typeEEEEEDpS7_
FN:5098,5102,_ZN7testing11ElementsAreIJiiiiiEEENS_8internal18ElementsAreMatcherISt5tupleIJDpNSt5decayIRKT_E4typeEEEEEDpS7_
FN:5098,5102,_ZN7testing11ElementsAreIJiiiiiiiEEENS_8internal18ElementsAreMatcherISt5tupleIJDpNSt5decayIRKT_E4typeEEEEEDpS7_
FN:5098,5102,_ZN7testing11ElementsAreIJiiiiiiiiEEENS_8internal18ElementsAreMatcherISt5tupleIJDpNSt5decayIRKT_E4typeEEEEEDpS7_
FN:5098,5102,_ZN7testing11ElementsAreIJiiiiiiiiiEEENS_8internal18ElementsAreMatcherISt5tupleIJDpNSt5decayIRKT_E4typeEEEEEDpS7_
FN:5098,5102,_ZN7testing11ElementsAreIJxxxxxxxxEEENS_8internal18ElementsAreMatcherISt5tupleIJDpNSt5decayIRKT_E4typeEEEEEDpS7_
FN:5107,5111,_ZN7testing20UnorderedElementsAreIJNS_8internal11PairMatcherIPKcS4_EEEEENS1_27UnorderedElementsAreMatcherISt5tupleIJDpNSt5decayIRKT_E4typeEEEEEDpSB_
FN:5107,5111,_ZN7testing20UnorderedElementsAreIJNS_8internal11PairMatcherIPKcS4_EES5_EEENS1_27UnorderedElementsAreMatcherISt5tupleIJDpNSt5decayIRKT_E4typeEEEEEDpSB_
FN:5115,5119,_ZN7testing5AllOfIJNS_8internal9GtMatcherIdEENS1_9LtMatcherIiEEEEENS1_15VariadicMatcherINS1_16AllOfMatcherImplEJDpNSt5decayIRKT_E4typeEEEEDpSB_
FN:514,516,_ZN7testing11MatcherCastIRKNSt7__cxx1112basic_stringIcSt11char_traitsIcESaIcEEENS_18PolymorphicMatcherINS_8internal19MatchesRegexMatcherEEEEENS_7MatcherIT_EERKT0_
FN:514,516,_ZN7testing11MatcherCastIRKNSt7__cxx1112basic_stringIcSt11char_traitsIcESaIcEEEPKcEENS_7MatcherIT_EERKT0_
FN:514,516,_ZN7testing11MatcherCastIRKPSt3mapINSt7__cxx1112basic_stringIcSt11char_traitsIcESaIcEEES7_St4lessIS7_ESaISt4pairIKS7_S7_EEEDnEENS_7MatcherIT_EERKT0_
FN:514,516,_ZN7testing11MatcherCastIRKSt3mapINSt7__cxx1112basic_stringIcSt11char_traitsIcESaIcEEES7_St4lessIS7_ESaISt4pairIKS7_S7_EEENS_8internal18ElementsAreMatcherISt5tupleIJNSH_11PairMatcherIPKcSM_EEEEEEEENS_7MatcherIT_EERKT0_
FN:514,516,_ZN7testing11MatcherCastIRKSt3mapINSt7__cxx1112basic_stringIcSt11char_traitsIcESaIcEEES7_St4lessIS7_ESaISt4pairIKS7_S7_EEENS_8internal27UnorderedElementsAreMatcherISt5tupleIJNSH_11PairMatcherIPKcSM_EEEEEEEENS_7MatcherIT_EERKT0_
FN:514,516,_ZN7testing11MatcherCastIRKSt3mapINSt7__cxx1112basic_stringIcSt11char_traitsIcESaIcEEES7_St4lessIS7_ESaISt4pairIKS7_S7_EEENS_8internal27UnorderedElementsAreMatcherISt5tupleIJNSH_11PairMatcherIPKcSM_EESN_EEEEEENS_7MatcherIT_EERKT0_
FN:514,516,_ZN7testing11MatcherCastIRKSt4pairIKNSt7__cxx1112basic_stringIcSt11char_traitsIcESaIcEEES7_ENS_7MatcherISB_EEEENSC_IT_EERKT0_
FN:514,516,_ZN7testing11MatcherCastIRKSt4pairIKNSt7__cxx1112basic_stringIcSt11char_traitsIcESaIcEEES7_ENS_8internal11PairMatcherIPKcSF_EEEENS_7MatcherIT_EERKT0_
FN:514,516,_ZN7testing11MatcherCastIRKSt6vectorIaSaIaEENS_8internal18ElementsAreMatcherISt5tupleIJaaaaEEEEEENS_7MatcherIT_EERKT0_
FN:514,516,_ZN7testing11MatcherCastIRKSt6vectorIiSaIiEENS_8internal18ElementsAreMatcherISt5tupleIJiEEEEEENS_7MatcherIT_EERKT0_
FN:514,516,_ZN7testing11MatcherCastIRKSt6vectorIiSaIiEENS_8internal18ElementsAreMatcherISt5tupleIJiiEEEEEENS_7MatcherIT_EERKT0_
FN:514,516,_ZN7testing11MatcherCastIRKSt6vectorIiSaIiEENS_8internal18ElementsAreMatcherISt5tupleIJiiiEEEEEENS_7MatcherIT_EERKT0_
FN:514,516,_ZN7testing11MatcherCastIRKSt6vectorIiSaIiEENS_8internal18ElementsAreMatcherISt5tupleIJiiiiEEEEEENS_7MatcherIT_EERKT0_
FN:514,516,_ZN7testing11MatcherCastIRKSt6vectorIiSaIiEENS_8internal18ElementsAreMatcherISt5tupleIJiiiiiEEEEEENS_7MatcherIT_EERKT0_
FN:514,516,_ZN7testing11MatcherCastIRKSt6vectorIiSaIiEENS_8internal18ElementsAreMatcherISt5tupleIJiiiiiiiiEEEEEENS_7MatcherIT_EERKT0_
FN:514,516,_ZN7testing11MatcherCastIRKSt6vectorIiSaIiEENS_8internal18ElementsAreMatcherISt5tupleIJiiiiiiiiiEEEEEENS_7MatcherIT_EERKT0_
FN:514,516,_ZN7testing11MatcherCastIRKSt6vectorIlSaIlEENS_8internal18ElementsAreMatcherISt5tupleIJiiEEEEEENS_7MatcherIT_EERKT0_
FN:514,516,_ZN7testing11MatcherCastIRKSt6vectorIlSaIlEENS_8internal18ElementsAreMatcherISt5tupleIJiiiEEEEEENS_7MatcherIT_EERKT0_
FN:514,516,_ZN7testing11MatcherCastIRKSt6vectorIlSaIlEENS_8internal18ElementsAreMatcherISt5tupleIJiiiiiiiEEEEEENS_7MatcherIT_EERKT0_
FN:514,516,_ZN7testing11MatcherCastIRKSt6vectorIlSaIlEENS_8internal18ElementsAreMatcherISt5tupleIJiiiiiiiiEEEEEENS_7MatcherIT_EERKT0_
FN:514,516,_ZN7testing11MatcherCastIRKSt6vectorIlSaIlEENS_8internal18ElementsAreMatcherISt5tupleIJxxxxxxxxEEEEEENS_7MatcherIT_EERKT0_
FN:514,516,_ZN7testing11MatcherCastIRKSt6vectorIlSaIlEENS_8internal23ElementsAreArrayMatcherIlEEEENS_7MatcherIT_EERKT0_
FN:514,516,_ZN7testing11MatcherCastIRKaNS_7MatcherIS2_EEEENS3_IT_EERKT0_
FN:514,516,_ZN7testing11MatcherCastIRKaaEENS_7MatcherIT_EERKT0_
FN:514,516,_ZN7testing11MatcherCastIRKdNS_8internal15VariadicMatcherINS3_16AllOfMatcherImplEJNS3_9GtMatcherIdEENS3_9LtMatcherIiEEEEEEENS_7MatcherIT_EERKT0_
FN:514,516,_ZN7testing11MatcherCastIRKdNS_8internal9GtMatcherIdEEEENS_7MatcherIT_EERKT0_
FN:514,516,_ZN7testing11MatcherCastIRKdNS_8internal9LtMatcherIiEEEENS_7MatcherIT_EERKT0_
FN:514,516,_ZN7testing11MatcherCastIRKiNS_7MatcherIS2_EEEENS3_IT_EERKT0_
FN:514,516,_ZN7testing11MatcherCastIRKiiEENS_7MatcherIT_EERKT0_
FN:514,516,_ZN7testing11MatcherCastIRKlNS_7MatcherIS2_EEEENS3_IT_EERKT0_
FN:514,516,_ZN7testing11MatcherCastIRKliEENS_7MatcherIT_EERKT0_
FN:514,516,_ZN7testing11MatcherCastIRKllEENS_7MatcherIT_EERKT0_
FN:514,516,_ZN7testing11MatcherCastIRKlxEENS_7MatcherIT_EERKT0_
FN:521,523,_ZN7testing15SafeMatcherCastIRKNSt7__cxx1112basic_stringIcSt11char_traitsIcESaIcEEENS_18PolymorphicMatcherINS_8internal19MatchesRegexMatcherEEEEENS_7MatcherIT_EERKT0_
FN:521,523,_ZN7testing15SafeMatcherCastIRKNSt7__cxx1112basic_stringIcSt11char_traitsIcESaIcEEEPKcEENS_7MatcherIT_EERKT0_
FN:521,523,_ZN7testing15SafeMatcherCastIRKPSt3mapINSt7__cxx1112basic_stringIcSt11char_traitsIcESaIcEEES7_St4lessIS7_ESaISt4pairIKS7_S7_EEEDnEENS_7MatcherIT_EERKT0_
FN:521,523,_ZN7testing15SafeMatcherCastIRKSt3mapINSt7__cxx1112basic_stringIcSt11char_traitsIcESaIcEEES7_St4lessIS7_ESaISt4pairIKS7_S7_EEENS_8internal18ElementsAreMatcherISt5tupleIJNSH_11PairMatcherIPKcSM_EEEEEEEENS_7MatcherIT_EERKT0_
FN:521,523,_ZN7testing15SafeMatcherCastIRKSt3mapINSt7__cxx1112basic_stringIcSt11char_traitsIcESaIcEEES7_St4lessIS7_ESaISt4pairIKS7_S7_EEENS_8internal27UnorderedElementsAreMatcherISt5tupleIJNSH_11PairMatcherIPKcSM_EEEEEEEENS_7MatcherIT_EERKT0_
FN:521,523,_ZN7testing15SafeMatcherCastIRKSt3mapINSt7__cxx1112basic_stringIcSt11char_traitsIcESaIcEEES7_St4lessIS7_ESaISt4pairIKS7_S7_EEENS_8internal27UnorderedElementsAreMatcherISt5tupleIJNSH_11PairMatcherIPKcSM_EESN_EEEEEENS_7MatcherIT_EERKT0_
FN:521,523,_ZN7testing15SafeMatcherCastIRKSt6vectorIaSaIaEENS_8internal18ElementsAreMatcherISt5tupleIJaaaaEEEEEENS_7MatcherIT_EERKT0_
FN:521,523,_ZN7testing15SafeMatcherCastIRKSt6vectorIiSaIiEENS_8internal18ElementsAreMatcherISt5tupleIJiEEEEEENS_7MatcherIT_EERKT0_
FN:521,523,_ZN7testing15SafeMatcherCastIRKSt6vectorIiSaIiEENS_8internal18ElementsAreMatcherISt5tupleIJiiEEEEEENS_7MatcherIT_EERKT0_
FN:521,523,_ZN7testing15SafeMatcherCastIRKSt6vectorIiSaIiEENS_8internal18ElementsAreMatcherISt5tupleIJiiiEEEEEENS_7MatcherIT_EERKT0_
FN:521,523,_ZN7testing15SafeMatcherCastIRKSt6vectorIiSaIiEENS_8internal18ElementsAreMatcherISt5tupleIJiiiiEEEEEENS_7MatcherIT_EERKT0_
FN:521,523,_ZN7testing15SafeMatcherCastIRKSt6vectorIiSaIiEENS_8internal18ElementsAreMatcherISt5tupleIJiiiiiEEEEEENS_7MatcherIT_EERKT0_
FN:521,523,_ZN7testing15SafeMatcherCastIRKSt6vectorIiSaIiEENS_8internal18ElementsAreMatcherISt5tupleIJiiiiiiiiEEEEEENS_7MatcherIT_EERKT0_
FN:521,523,_ZN7testing15SafeMatcherCastIRKSt6vectorIiSaIiEENS_8internal18ElementsAreMatcherISt5tupleIJiiiiiiiiiEEEEEENS_7MatcherIT_EERKT0_
FN:521,523,_ZN7testing15SafeMatcherCastIRKSt6vectorIlSaIlEENS_8internal18ElementsAreMatcherISt5tupleIJiiEEEEEENS_7MatcherIT_EERKT0_
FN:521,523,_ZN7testing15SafeMatcherCastIRKSt6vectorIlSaIlEENS_8internal18ElementsAreMatcherISt5tupleIJiiiEEEEEENS_7MatcherIT_EERKT0_
FN:521,523,_ZN7testing15SafeMatcherCastIRKSt6vectorIlSaIlEENS_8internal18ElementsAreMatcherISt5tupleIJiiiiiiiEEEEEENS_7MatcherIT_EERKT0_
FN:521,523,_ZN7testing15SafeMatcherCastIRKSt6vectorIlSaIlEENS_8internal18ElementsAreMatcherISt5tupleIJiiiiiiiiEEEEEENS_7MatcherIT_EERKT0_
FN:521,523,_ZN7testing15SafeMatcherCastIRKSt6vectorIlSaIlEENS_8internal18ElementsAreMatcherISt5tupleIJxxxxxxxxEEEEEENS_7MatcherIT_EERKT0_
FN:521,523,_ZN7testing15SafeMatcherCastIRKSt6vectorIlSaIlEENS_8internal23ElementsAreArrayMatcherIlEEEENS_7MatcherIT_EERKT0_
FN:521,523,_ZN7testing15SafeMatcherCastIRKdNS_8internal15VariadicMatcherINS3_16AllOfMatcherImplEJNS3_9GtMatcherIdEENS3_9LtMatcherIiEEEEEEENS_7MatcherIT_EERKT0_
FN:521,523,_ZN7testing15SafeMatcherCastIRKdNS_8internal9GtMatcherIdEEEENS_7MatcherIT_EERKT0_
FN:521,523,_ZN7testing15SafeMatcherCastIRKdNS_8internal9LtMatcherIiEEEENS_7MatcherIT_EERKT0_
FN:565,570,_ZN7testing8internal15PrintIfNotEmptyERKNSt7__cxx1112basic_stringIcSt11char_traitsIcESaIcEEEPSo
FN:575,580,_ZN7testing8internal18IsReadableTypeNameERKNSt7__cxx1112basic_stringIcSt11char_traitsIcESaIcEEE
FN:588,608,_ZN7testing8internal20MatchPrintAndExplainIKNSt7__cxx1112basic_stringIcSt11char_traitsIcESaIcEEERS8_EEbRT_RKNS_7MatcherIT0_EEPNS_19MatchResultListenerE
FN:588,608,_ZN7testing8internal20MatchPrintAndExplainIKPSt3mapINSt7__cxx1112basic_stringIcSt11char_traitsIcESaIcEEES8_St4lessIS8_ESaISt4pairIKS8_S8_EEERSH_EEbRT_RKNS_7MatcherIT0_EEPNS_19MatchResultListenerE
FN:588,608,_ZN7testing8internal20MatchPrintAndExplainIKSt3mapINSt7__cxx1112basic_stringIcSt11char_traitsIcESaIcEEES8_St4lessIS8_ESaISt4pairIKS8_S8_EEERSG_EEbRT_RKNS_7MatcherIT0_EEPNS_19MatchResultListenerE
FN:588,608,_ZN7testing8internal20MatchPrintAndExplainIKSt6vectorIaSaIaEERS5_EEbRT_RKNS_7MatcherIT0_EEPNS_19MatchResultListenerE
FN:588,608,_ZN7testing8internal20MatchPrintAndExplainIKSt6vectorIiSaIiEERS5_EEbRT_RKNS_7MatcherIT0_EEPNS_19MatchResultListenerE
FN:588,608,_ZN7testing8internal20MatchPrintAndExplainIKSt6vectorIlSaIlEERS5_EEbRT_RKNS_7MatcherIT0_EEPNS_19MatchResultListenerE
FN:588,608,_ZN7testing8internal20MatchPrintAndExplainIKdRS2_EEbRT_RKNS_7MatcherIT0_EEPNS_19MatchResultListenerE
FN:713,715,_ZN7testing8internal26TransformTupleValuesHelperISt5tupleIJNS0_11PairMatcherIPKcS5_EEEENS0_22CastAndAppendTransformIRKSt4pairIKNSt7__cxx1112basic_stringIcSt11char_traitsIcESaIcEEESF_EEESt20back_insert_iteratorISt6vectorINS_7MatcherISJ_EESaISO_EEEE3RunESK_RKS7_SR_
FN:713,715,_ZN7testing8internal26TransformTupleValuesHelperISt5tupleIJNS0_11PairMatcherIPKcS5_EES6_EENS0_22CastAndAppendTransformIRKSt4pairIKNSt7__cxx1112basic_stringIcSt11char_traitsIcESaIcEEESF_EEESt20back_insert_iteratorISt6vectorINS_7MatcherISJ_EESaISO_EEEE3RunESK_RKS7_SR_
FN:713,715,_ZN7testing8internal26TransformTupleValuesHelperISt5tupleIJaaaaEENS0_22CastAndAppendTransformIRKaEESt20back_insert_iteratorISt6vectorINS_7MatcherIS6_EESaISB_EEEE3RunES7_RKS3_SE_
FN:713,715,_ZN7testing8internal26TransformTupleValuesHelperISt5tupleIJiEENS0_22CastAndAppendTransformIRKiEESt20back_insert_iteratorISt6vectorINS_7MatcherIS6_EESaISB_EEEE3RunES7_RKS3_SE_
FN:713,715,_ZN7testing8internal26TransformTupleValuesHelperISt5tupleIJiiEENS0_22CastAndAppendTransformIRKiEESt20back_insert_iteratorISt6vectorINS_7MatcherIS6_EESaISB_EEEE3RunES7_RKS3_SE_
FN:713,715,_ZN7testing8internal26TransformTupleValuesHelperISt5tupleIJiiEENS0_22CastAndAppendTransformIRKlEESt20back_insert_iteratorISt6vectorINS_7MatcherIS6_EESaISB_EEEE3RunES7_RKS3_SE_
FN:713,715,_ZN7testing8internal26TransformTupleValuesHelperISt5tupleIJiiiEENS0_22CastAndAppendTransformIRKiEESt20back_insert_iteratorISt6vectorINS_7MatcherIS6_EESaISB_EEEE3RunES7_RKS3_SE_
FN:713,715,_ZN7testing8internal26TransformTupleValuesHelperISt5tupleIJiiiEENS0_22CastAndAppendTransformIRKlEESt20back_insert_iteratorISt6vectorINS_7MatcherIS6_EESaISB_EEEE3RunES7_RKS3_SE_
FN:713,715,_ZN7testing8internal26TransformTupleValuesHelperISt5tupleIJiiiiEENS0_22CastAndAppendTransformIRKiEESt20back_insert_iteratorISt6vectorINS_7MatcherIS6_EESaISB_EEEE3RunES7_RKS3_SE_
FN:713,715,_ZN7testing8internal26TransformTupleValuesHelperISt5tupleIJiiiiiEENS0_22CastAndAppendTransformIRKiEESt20back_insert_iteratorISt6vectorINS_7MatcherIS6_EESaISB_EEEE3RunES7_RKS3_SE_
FN:713,715,_ZN7testing8internal26TransformTupleValuesHelperISt5tupleIJiiiiiiiEENS0_22CastAndAppendTransformIRKlEESt20back_insert_iteratorISt6vectorINS_7MatcherIS6_EESaISB_EEEE3RunES7_RKS3_SE_
FN:713,715,_ZN7testing8internal26TransformTupleValuesHelperISt5tupleIJiiiiiiiiEENS0_22CastAndAppendTransformIRKiEESt20back_insert_iteratorISt6vectorINS_7MatcherIS6_EESaISB_EEEE3RunES7_RKS3_SE_
FN:713,715,_ZN7testing8internal26TransformTupleValuesHelperISt5tupleIJiiiiiiiiEENS0_22CastAndAppendTransformIRKlEESt20back_insert_iteratorISt6vectorINS_7MatcherIS6_EESaISB_EEEE3RunES7_RKS3_SE_
FN:713,715,_ZN7testing8internal26TransformTupleValuesHelperISt5tupleIJiiiiiiiiiEENS0_22CastAndAppendTransformIRKiEESt20back_insert_iteratorISt6vectorINS_7MatcherIS6_EESaISB_EEEE3RunES7_RKS3_SE_
FN:713,715,_ZN7testing8internal26TransformTupleValuesHelperISt5tupleIJxxxxxxxxEENS0_22CastAndAppendTransformIRKlEESt20back_insert_iteratorISt6vectorINS_7MatcherIS6_EESaISB_EEEE3RunES7_RKS3_SE_
FN:720,723,_ZNK7testing8internal26TransformTupleValuesHelperISt5tupleIJNS0_11PairMatcherIPKcS5_EEEENS0_22CastAndAppendTransformIRKSt4pairIKNSt7__cxx1112basic_stringIcSt11char_traitsIcESaIcEEESF_EEESt20back_insert_iteratorISt6vectorINS_7MatcherISJ_EESaISO_EEEE16IterateOverTupleIS7_Lm1EEclESK_RKS7_SR_
FN:720,723,_ZNK7testing8internal26TransformTupleValuesHelperISt5tupleIJNS0_11PairMatcherIPKcS5_EES6_EENS0_22CastAndAppendTransformIRKSt4pairIKNSt7__cxx1112basic_stringIcSt11char_traitsIcESaIcEEESF_EEESt20back_insert_iteratorISt6vectorINS_7MatcherISJ_EESaISO_EEEE16IterateOverTupleIS7_Lm1EEclESK_RKS7_SR_
FN:720,723,_ZNK7testing8internal26TransformTupleValuesHelperISt5tupleIJNS0_11PairMatcherIPKcS5_EES6_EENS0_22CastAndAppendTransformIRKSt4pairIKNSt7__cxx1112basic_stringIcSt11char_traitsIcESaIcEEESF_EEESt20back_insert_iteratorISt6vectorINS_7MatcherISJ_EESaISO_EEEE16IterateOverTupleIS7_Lm2EEclESK_RKS7_SR_
FN:720,723,_ZNK7testing8internal26TransformTupleValuesHelperISt5tupleIJaaaaEENS0_22CastAndAppendTransformIRKaEESt20back_insert_iteratorISt6vectorINS_7MatcherIS6_EESaISB_EEEE16IterateOverTupleIS3_Lm1EEclES7_RKS3_SE_
FN:720,723,_ZNK7testing8internal26TransformTupleValuesHelperISt5tupleIJaaaaEENS0_22CastAndAppendTransformIRKaEESt20back_insert_iteratorISt6vectorINS_7MatcherIS6_EESaISB_EEEE16IterateOverTupleIS3_Lm2EEclES7_RKS3_SE_
FN:720,723,_ZNK7testing8internal26TransformTupleValuesHelperISt5tupleIJaaaaEENS0_22CastAndAppendTransformIRKaEESt20back_insert_iteratorISt6vectorINS_7MatcherIS6_EESaISB_EEEE16IterateOverTupleIS3_Lm3EEclES7_RKS3_SE_
FN:720,723,_ZNK7testing8internal26TransformTupleValuesHelperISt5tupleIJaaaaEENS0_22CastAndAppendTransformIRKaEESt20back_insert_iteratorISt6vectorINS_7MatcherIS6_EESaISB_EEEE16IterateOverTupleIS3_Lm4EEclES7_RKS3_SE_
FN:720,723,_ZNK7testing8internal26TransformTupleValuesHelperISt5tupleIJiEENS0_22CastAndAppendTransformIRKiEESt20back_insert_iteratorISt6vectorINS_7MatcherIS6_EESaISB_EEEE16IterateOverTupleIS3_Lm1EEclES7_RKS3_SE_
FN:720,723,_ZNK7testing8internal26TransformTupleValuesHelperISt5tupleIJiiEENS0_22CastAndAppendTransformIRKiEESt20back_insert_iteratorISt6vectorINS_7MatcherIS6_EESaISB_EEEE16IterateOverTupleIS3_Lm1EEclES7_RKS3_SE_
FN:720,723,_ZNK7testing8internal26TransformTupleValuesHelperISt5tupleIJiiEENS0_22CastAndAppendTransformIRKiEESt20back_insert_iteratorISt6vectorINS_7MatcherIS6_EESaISB_EEEE16IterateOverTupleIS3_Lm2EEclES7_RKS3_SE_
FN:720,723,_ZNK7testing8internal26TransformTupleValuesHelperISt5tupleIJiiEENS0_22CastAndAppendTransformIRKlEESt20back_insert_iteratorISt6vectorINS_7MatcherIS6_EESaISB_EEEE16IterateOverTupleIS3_Lm1EEclES7_RKS3_SE_
FN:720,723,_ZNK7testing8internal26TransformTupleValuesHelperISt5tupleIJiiEENS0_22CastAndAppendTransformIRKlEESt20back_insert_iteratorISt6vectorINS_7MatcherIS6_EESaISB_EEEE16IterateOverTupleIS3_Lm2EEclES7_RKS3_SE_
FN:720,723,_ZNK7testing8internal26TransformTupleValuesHelperISt5tupleIJiiiEENS0_22CastAndAppendTransformIRKiEESt20back_insert_iteratorISt6vectorINS_7MatcherIS6_EESaISB_EEEE16IterateOverTupleIS3_Lm1EEclES7_RKS3_SE_
FN:720,723,_ZNK7testing8internal26TransformTupleValuesHelperISt5tupleIJiiiEENS0_22CastAndAppendTransformIRKiEESt20back_insert_iteratorISt6vectorINS_7MatcherIS6_EESaISB_EEEE16IterateOverTupleIS3_Lm2EEclES7_RKS3_SE_
FN:720,723,_ZNK7testing8internal26TransformTupleValuesHelperISt5tupleIJiiiEENS0_22CastAndAppendTransformIRKiEESt20back_insert_iteratorISt6vectorINS_7MatcherIS6_EESaISB_EEEE16IterateOverTupleIS3_Lm3EEclES7_RKS3_SE_
FN:720,723,_ZNK7testing8internal26TransformTupleValuesHelperISt5tupleIJiiiEENS0_22CastAndAppendTransformIRKlEESt20back_insert_iteratorISt6vectorINS_7MatcherIS6_EESaISB_EEEE16IterateOverTupleIS3_Lm1EEclES7_RKS3_SE_
FN:720,723,_ZNK7testing8internal26TransformTupleValuesHelperISt5tupleIJiiiEENS0_22CastAndAppendTransformIRKlEESt20back_insert_iteratorISt6vectorINS_7MatcherIS6_EESaISB_EEEE16IterateOverTupleIS3_Lm2EEclES7_RKS3_SE_
FN:720,723,_ZNK7testing8internal26TransformTupleValuesHelperISt5tupleIJiiiEENS0_22CastAndAppendTransformIRKlEESt20back_insert_iteratorISt6vectorINS_7MatcherIS6_EESaISB_EEEE16IterateOverTupleIS3_Lm3EEclES7_RKS3_SE_
FN:720,723,_ZNK7testing8internal26TransformTupleValuesHelperISt5tupleIJiiiiEENS0_22CastAndAppendTransformIRKiEESt20back_insert_iteratorISt6vectorINS_7MatcherIS6_EESaISB_EEEE16IterateOverTupleIS3_Lm1EEclES7_RKS3_SE_
FN:720,723,_ZNK7testing8internal26TransformTupleValuesHelperISt5tupleIJiiiiEENS0_22CastAndAppendTransformIRKiEESt20back_insert_iteratorISt6vectorINS_7MatcherIS6_EESaISB_EEEE16IterateOverTupleIS3_Lm2EEclES7_RKS3_SE_
FN:720,723,_ZNK7testing8internal26TransformTupleValuesHelperISt5tupleIJiiiiEENS0_22CastAndAppendTransformIRKiEESt20back_insert_iteratorISt6vectorINS_7MatcherIS6_EESaISB_EEEE16IterateOverTupleIS3_Lm3EEclES7_RKS3_SE_
FN:720,723,_ZNK7testing8internal26TransformTupleValuesHelperISt5tupleIJiiiiEENS0_22CastAndAppendTransformIRKiEESt20back_insert_iteratorISt6vectorINS_7MatcherIS6_EESaISB_EEEE16IterateOverTupleIS3_Lm4EEclES7_RKS3_SE_
FN:720,723,_ZNK7testing8internal26TransformTupleValuesHelperISt5tupleIJiiiiiEENS0_22CastAndAppendTransformIRKiEESt20back_insert_iteratorISt6vectorINS_7MatcherIS6_EESaISB_EEEE16IterateOverTupleIS3_Lm1EEclES7_RKS3_SE_
FN:720,723,_ZNK7testing8internal26TransformTupleValuesHelperISt5tupleIJiiiiiEENS0_22CastAndAppendTransformIRKiEESt20back_insert_iteratorISt6vectorINS_7MatcherIS6_EESaISB_EEEE16IterateOverTupleIS3_Lm2EEclES7_RKS3_SE_
FN:720,723,_ZNK7testing8internal26TransformTupleValuesHelperISt5tupleIJiiiiiEENS0_22CastAndAppendTransformIRKiEESt20back_insert_iteratorISt6vectorINS_7MatcherIS6_EESaISB_EEEE16IterateOverTupleIS3_Lm3EEclES7_RKS3_SE_
FN:720,723,_ZNK7testing8internal26TransformTupleValuesHelperISt5tupleIJiiiiiEENS0_22CastAndAppendTransformIRKiEESt20back_insert_iteratorISt6vectorINS_7MatcherIS6_EESaISB_EEEE16IterateOverTupleIS3_Lm4EEclES7_RKS3_SE_
FN:720,723,_ZNK7testing8internal26TransformTupleValuesHelperISt5tupleIJiiiiiEENS0_22CastAndAppendTransformIRKiEESt20back_insert_iteratorISt6vectorINS_7MatcherIS6_EESaISB_EEEE16IterateOverTupleIS3_Lm5EEclES7_RKS3_SE_
FN:720,723,_ZNK7testing8internal26TransformTupleValuesHelperISt5tupleIJiiiiiiiEENS0_22CastAndAppendTransformIRKlEESt20back_insert_iteratorISt6vectorINS_7MatcherIS6_EESaISB_EEEE16IterateOverTupleIS3_Lm1EEclES7_RKS3_SE_
FN:720,723,_ZNK7testing8internal26TransformTupleValuesHelperISt5tupleIJiiiiiiiEENS0_22CastAndAppendTransformIRKlEESt20back_insert_iteratorISt6vectorINS_7MatcherIS6_EESaISB_EEEE16IterateOverTupleIS3_Lm2EEclES7_RKS3_SE_
FN:720,723,_ZNK7testing8internal26TransformTupleValuesHelperISt5tupleIJiiiiiiiEENS0_22CastAndAppendTransformIRKlEESt20back_insert_iteratorISt6vectorINS_7MatcherIS6_EESaISB_EEEE16IterateOverTupleIS3_Lm3EEclES7_RKS3_SE_
FN:720,723,_ZNK7testing8internal26TransformTupleValuesHelperISt5tupleIJiiiiiiiEENS0_22CastAndAppendTransformIRKlEESt20back_insert_iteratorISt6vectorINS_7MatcherIS6_EESaISB_EEEE16IterateOverTupleIS3_Lm4EEclES7_RKS3_SE_
FN:720,723,_ZNK7testing8internal26TransformTupleValuesHelperISt5tupleIJiiiiiiiEENS0_22CastAndAppendTransformIRKlEESt20back_insert_iteratorISt6vectorINS_7MatcherIS6_EESaISB_EEEE16IterateOverTupleIS3_Lm5EEclES7_RKS3_SE_
FN:720,723,_ZNK7testing8internal26TransformTupleValuesHelperISt5tupleIJiiiiiiiEENS0_22CastAndAppendTransformIRKlEESt20back_insert_iteratorISt6vectorINS_7MatcherIS6_EESaISB_EEEE16IterateOverTupleIS3_Lm6EEclES7_RKS3_SE_
FN:720,723,_ZNK7testing8internal26TransformTupleValuesHelperISt5tupleIJiiiiiiiEENS0_22CastAndAppendTransformIRKlEESt20back_insert_iteratorISt6vectorINS_7MatcherIS6_EESaISB_EEEE16IterateOverTupleIS3_Lm7EEclES7_RKS3_SE_
FN:720,723,_ZNK7testing8internal26TransformTupleValuesHelperISt5tupleIJiiiiiiiiEENS0_22CastAndAppendTransformIRKiEESt20back_insert_iteratorISt6vectorINS_7MatcherIS6_EESaISB_EEEE16IterateOverTupleIS3_Lm1EEclES7_RKS3_SE_
FN:720,723,_ZNK7testing8internal26TransformTupleValuesHelperISt5tupleIJiiiiiiiiEENS0_22CastAndAppendTransformIRKiEESt20back_insert_iteratorISt6vectorINS_7MatcherIS6_EESaISB_EEEE16IterateOverTupleIS3_Lm2EEclES7_RKS3_SE_
FN:720,723,_ZNK7testing8internal26TransformTupleValuesHelperISt5tupleIJiiiiiiiiEENS0_22CastAndAppendTransformIRKiEESt20back_insert_iteratorISt6vectorINS_7MatcherIS6_EESaISB_EEEE16IterateOverTupleIS3_Lm3EEclES7_RKS3_SE_
FN:720,723,_ZNK7testing8internal26TransformTupleValuesHelperISt5tupleIJiiiiiiiiEENS0_22CastAndAppendTransformIRKiEESt20back_insert_iteratorISt6vectorINS_7MatcherIS6_EESaISB_EEEE16IterateOverTupleIS3_Lm4EEclES7_RKS3_SE_
FN:720,723,_ZNK7testing8internal26TransformTupleValuesHelperISt5tupleIJiiiiiiiiEENS0_22CastAndAppendTransformIRKiEESt20back_insert_iteratorISt6vectorINS_7MatcherIS6_EESaISB_EEEE16IterateOverTupleIS3_Lm5EEclES7_RKS3_SE_
FN:720,723,_ZNK7testing8internal26TransformTupleValuesHelperISt5tupleIJiiiiiiiiEENS0_22CastAndAppendTransformIRKiEESt20back_insert_iteratorISt6vectorINS_7MatcherIS6_EESaISB_EEEE16IterateOverTupleIS3_Lm6EEclES7_RKS3_SE_
FN:720,723,_ZNK7testing8internal26TransformTupleValuesHelperISt5tupleIJiiiiiiiiEENS0_22CastAndAppendTransformIRKiEESt20back_insert_iteratorISt6vectorINS_7MatcherIS6_EESaISB_EEEE16IterateOverTupleIS3_Lm7EEclES7_RKS3_SE_
FN:720,723,_ZNK7testing8internal26TransformTupleValuesHelperISt5tupleIJiiiiiiiiEENS0_22CastAndAppendTransformIRKiEESt20back_insert_iteratorISt6vectorINS_7MatcherIS6_EESaISB_EEEE16IterateOverTupleIS3_Lm8EEclES7_RKS3_SE_
FN:720,723,_ZNK7testing8internal26TransformTupleValuesHelperISt5tupleIJiiiiiiiiEENS0_22CastAndAppendTransformIRKlEESt20back_insert_iteratorISt6vectorINS_7MatcherIS6_EESaISB_EEEE16IterateOverTupleIS3_Lm1EEclES7_RKS3_SE_
FN:720,723,_ZNK7testing8internal26TransformTupleValuesHelperISt5tupleIJiiiiiiiiEENS0_22CastAndAppendTransformIRKlEESt20back_insert_iteratorISt6vectorINS_7MatcherIS6_EESaISB_EEEE16IterateOverTupleIS3_Lm2EEclES7_RKS3_SE_
FN:720,723,_ZNK7testing8internal26TransformTupleValuesHelperISt5tupleIJiiiiiiiiEENS0_22CastAndAppendTransformIRKlEESt20back_insert_iteratorISt6vectorINS_7MatcherIS6_EESaISB_EEEE16IterateOverTupleIS3_Lm3EEclES7_RKS3_SE_
FN:720,723,_ZNK7testing8internal26TransformTupleValuesHelperISt5tupleIJiiiiiiiiEENS0_22CastAndAppendTransformIRKlEESt20back_insert_iteratorISt6vectorINS_7MatcherIS6_EESaISB_EEEE16IterateOverTupleIS3_Lm4EEclES7_RKS3_SE_
FN:720,723,_ZNK7testing8internal26TransformTupleValuesHelperISt5tupleIJiiiiiiiiEENS0_22CastAndAppendTransformIRKlEESt20back_insert_iteratorISt6vectorINS_7MatcherIS6_EESaISB_EEEE16IterateOverTupleIS3_Lm5EEclES7_RKS3_SE_
FN:720,723,_ZNK7testing8internal26TransformTupleValuesHelperISt5tupleIJiiiiiiiiEENS0_22CastAndAppendTransformIRKlEESt20back_insert_iteratorISt6vectorINS_7MatcherIS6_EESaISB_EEEE16IterateOverTupleIS3_Lm6EEclES7_RKS3_SE_
FN:720,723,_ZNK7testing8internal26TransformTupleValuesHelperISt5tupleIJiiiiiiiiEENS0_22CastAndAppendTransformIRKlEESt20back_insert_iteratorISt6vectorINS_7MatcherIS6_EESaISB_EEEE16IterateOverTupleIS3_Lm7EEclES7_RKS3_SE_
FN:720,723,_ZNK7testing8internal26TransformTupleValuesHelperISt5tupleIJiiiiiiiiEENS0_22CastAndAppendTransformIRKlEESt20back_insert_iteratorISt6vectorINS_7MatcherIS6_EESaISB_EEEE16IterateOverTupleIS3_Lm8EEclES7_RKS3_SE_
FN:720,723,_ZNK7testing8internal26TransformTupleValuesHelperISt5tupleIJiiiiiiiiiEENS0_22CastAndAppendTransformIRKiEESt20back_insert_iteratorISt6vectorINS_7MatcherIS6_EESaISB_EEEE16IterateOverTupleIS3_Lm1EEclES7_RKS3_SE_
FN:720,723,_ZNK7testing8internal26TransformTupleValuesHelperISt5tupleIJiiiiiiiiiEENS0_22CastAndAppendTransformIRKiEESt20back_insert_iteratorISt6vectorINS_7MatcherIS6_EESaISB_EEEE16IterateOverTupleIS3_Lm2EEclES7_RKS3_SE_
FN:720,723,_ZNK7testing8internal26TransformTupleValuesHelperISt5tupleIJiiiiiiiiiEENS0_22CastAndAppendTransformIRKiEESt20back_insert_iteratorISt6vectorINS_7MatcherIS6_EESaISB_EEEE16IterateOverTupleIS3_Lm3EEclES7_RKS3_SE_
FN:720,723,_ZNK7testing8internal26TransformTupleValuesHelperISt5tupleIJiiiiiiiiiEENS0_22CastAndAppendTransformIRKiEESt20back_insert_iteratorISt6vectorINS_7MatcherIS6_EESaISB_EEEE16IterateOverTupleIS3_Lm4EEclES7_RKS3_SE_
FN:720,723,_ZNK7testing8internal26TransformTupleValuesHelperISt5tupleIJiiiiiiiiiEENS0_22CastAndAppendTransformIRKiEESt20back_insert_iteratorISt6vectorINS_7MatcherIS6_EESaISB_EEEE16IterateOverTupleIS3_Lm5EEclES7_RKS3_SE_
FN:720,723,_ZNK7testing8internal26TransformTupleValuesHelperISt5tupleIJiiiiiiiiiEENS0_22CastAndAppendTransformIRKiEESt20back_insert_iteratorISt6vectorINS_7MatcherIS6_EESaISB_EEEE16IterateOverTupleIS3_Lm6EEclES7_RKS3_SE_
FN:720,723,_ZNK7testing8internal26TransformTupleValuesHelperISt5tupleIJiiiiiiiiiEENS0_22CastAndAppendTransformIRKiEESt20back_insert_iteratorISt6vectorINS_7MatcherIS6_EESaISB_EEEE16IterateOverTupleIS3_Lm7EEclES7_RKS3_SE_
FN:720,723,_ZNK7testing8internal26TransformTupleValuesHelperISt5tupleIJiiiiiiiiiEENS0_22CastAndAppendTransformIRKiEESt20back_insert_iteratorISt6vectorINS_7MatcherIS6_EESaISB_EEEE16IterateOverTupleIS3_Lm8EEclES7_RKS3_SE_
FN:720,723,_ZNK7testing8internal26TransformTupleValuesHelperISt5tupleIJiiiiiiiiiEENS0_22CastAndAppendTransformIRKiEESt20back_insert_iteratorISt6vectorINS_7MatcherIS6_EESaISB_EEEE16IterateOverTupleIS3_Lm9EEclES7_RKS3_SE_
FN:720,723,_ZNK7testing8internal26TransformTupleValuesHelperISt5tupleIJxxxxxxxxEENS0_22CastAndAppendTransformIRKlEESt20back_insert_iteratorISt6vectorINS_7MatcherIS6_EESaISB_EEEE16IterateOverTupleIS3_Lm1EEclES7_RKS3_SE_
FN:720,723,_ZNK7testing8internal26TransformTupleValuesHelperISt5tupleIJxxxxxxxxEENS0_22CastAndAppendTransformIRKlEESt20back_insert_iteratorISt6vectorINS_7MatcherIS6_EESaISB_EEEE16IterateOverTupleIS3_Lm2EEclES7_RKS3_SE_
FN:720,723,_ZNK7testing8internal26TransformTupleValuesHelperISt5tupleIJxxxxxxxxEENS0_22CastAndAppendTransformIRKlEESt20back_insert_iteratorISt6vectorINS_7MatcherIS6_EESaISB_EEEE16IterateOverTupleIS3_Lm3EEclES7_RKS3_SE_
FN:720,723,_ZNK7testing8internal26TransformTupleValuesHelperISt5tupleIJxxxxxxxxEENS0_22CastAndAppendTransformIRKlEESt20back_insert_iteratorISt6vectorINS_7MatcherIS6_EESaISB_EEEE16IterateOverTupleIS3_Lm4EEclES7_RKS3_SE_
FN:720,723,_ZNK7testing8internal26TransformTupleValuesHelperISt5tupleIJxxxxxxxxEENS0_22CastAndAppendTransformIRKlEESt20back_insert_iteratorISt6vectorINS_7MatcherIS6_EESaISB_EEEE16IterateOverTupleIS3_Lm5EEclES7_RKS3_SE_
FN:720,723,_ZNK7testing8internal26TransformTupleValuesHelperISt5tupleIJxxxxxxxxEENS0_22CastAndAppendTransformIRKlEESt20back_insert_iteratorISt6vectorINS_7MatcherIS6_EESaISB_EEEE16IterateOverTupleIS3_Lm6EEclES7_RKS3_SE_
FN:720,723,_ZNK7testing8internal26TransformTupleValuesHelperISt5tupleIJxxxxxxxxEENS0_22CastAndAppendTransformIRKlEESt20back_insert_iteratorISt6vectorINS_7MatcherIS6_EESaISB_EEEE16IterateOverTupleIS3_Lm7EEclES7_RKS3_SE_
FN:720,723,_ZNK7testing8internal26TransformTupleValuesHelperISt5tupleIJxxxxxxxxEENS0_22CastAndAppendTransformIRKlEESt20back_insert_iteratorISt6vectorINS_7MatcherIS6_EESaISB_EEEE16IterateOverTupleIS3_Lm8EEclES7_RKS3_SE_
FN:727,729,_ZNK7testing8internal26TransformTupleValuesHelperISt5tupleIJNS0_11PairMatcherIPKcS5_EEEENS0_22CastAndAppendTransformIRKSt4pairIKNSt7__cxx1112basic_stringIcSt11char_traitsIcESaIcEEESF_EEESt20back_insert_iteratorISt6vectorINS_7MatcherISJ_EESaISO_EEEE16IterateOverTupleIS7_Lm0EEclESK_RKS7_SR_
FN:727,729,_ZNK7testing8internal26TransformTupleValuesHelperISt5tupleIJNS0_11PairMatcherIPKcS5_EES6_EENS0_22CastAndAppendTransformIRKSt4pairIKNSt7__cxx1112basic_stringIcSt11char_traitsIcESaIcEEESF_EEESt20back_insert_iteratorISt6vectorINS_7MatcherISJ_EESaISO_EEEE16IterateOverTupleIS7_Lm0EEclESK_RKS7_SR_
FN:727,729,_ZNK7testing8internal26TransformTupleValuesHelperISt5tupleIJaaaaEENS0_22CastAndAppendTransformIRKaEESt20back_insert_iteratorISt6vectorINS_7MatcherIS6_EESaISB_EEEE16IterateOverTupleIS3_Lm0EEclES7_RKS3_SE_
FN:727,729,_ZNK7testing8internal26TransformTupleValuesHelperISt5tupleIJiEENS0_22CastAndAppendTransformIRKiEESt20back_insert_iteratorISt6vectorINS_7MatcherIS6_EESaISB_EEEE16IterateOverTupleIS3_Lm0EEclES7_RKS3_SE_
FN:727,729,_ZNK7testing8internal26TransformTupleValuesHelperISt5tupleIJiiEENS0_22CastAndAppendTransformIRKiEESt20back_insert_iteratorISt6vectorINS_7MatcherIS6_EESaISB_EEEE16IterateOverTupleIS3_Lm0EEclES7_RKS3_SE_
FN:727,729,_ZNK7testing8internal26TransformTupleValuesHelperISt5tupleIJiiEENS0_22CastAndAppendTransformIRKlEESt20back_insert_iteratorISt6vectorINS_7MatcherIS6_EESaISB_EEEE16IterateOverTupleIS3_Lm0EEclES7_RKS3_SE_
FN:727,729,_ZNK7testing8internal26TransformTupleValuesHelperISt5tupleIJiiiEENS0_22CastAndAppendTransformIRKiEESt20back_insert_iteratorISt6vectorINS_7MatcherIS6_EESaISB_EEEE16IterateOverTupleIS3_Lm0EEclES7_RKS3_SE_
FN:727,729,_ZNK7testing8internal26TransformTupleValuesHelperISt5tupleIJiiiEENS0_22CastAndAppendTransformIRKlEESt20back_insert_iteratorISt6vectorINS_7MatcherIS6_EESaISB_EEEE16IterateOverTupleIS3_Lm0EEclES7_RKS3_SE_
FN:727,729,_ZNK7testing8internal26TransformTupleValuesHelperISt5tupleIJiiiiEENS0_22CastAndAppendTransformIRKiEESt20back_insert_iteratorISt6vectorINS_7MatcherIS6_EESaISB_EEEE16IterateOverTupleIS3_Lm0EEclES7_RKS3_SE_
FN:727,729,_ZNK7testing8internal26TransformTupleValuesHelperISt5tupleIJiiiiiEENS0_22CastAndAppendTransformIRKiEESt20back_insert_iteratorISt6vectorINS_7MatcherIS6_EESaISB_EEEE16IterateOverTupleIS3_Lm0EEclES7_RKS3_SE_
FN:727,729,_ZNK7testing8internal26TransformTupleValuesHelperISt5tupleIJiiiiiiiEENS0_22CastAndAppendTransformIRKlEESt20back_insert_iteratorISt6vectorINS_7MatcherIS6_EESaISB_EEEE16IterateOverTupleIS3_Lm0EEclES7_RKS3_SE_
FN:727,729,_ZNK7testing8internal26TransformTupleValuesHelperISt5tupleIJiiiiiiiiEENS0_22CastAndAppendTransformIRKiEESt20back_insert_iteratorISt6vectorINS_7MatcherIS6_EESaISB_EEEE16IterateOverTupleIS3_Lm0EEclES7_RKS3_SE_
FN:727,729,_ZNK7testing8internal26TransformTupleValuesHelperISt5tupleIJiiiiiiiiEENS0_22CastAndAppendTransformIRKlEESt20back_insert_iteratorISt6vectorINS_7MatcherIS6_EESaISB_EEEE16IterateOverTupleIS3_Lm0EEclES7_RKS3_SE_
FN:727,729,_ZNK7testing8internal26TransformTupleValuesHelperISt5tupleIJiiiiiiiiiEENS0_22CastAndAppendTransformIRKiEESt20back_insert_iteratorISt6vectorINS_7MatcherIS6_EESaISB_EEEE16IterateOverTupleIS3_Lm0EEclES7_RKS3_SE_
FN:727,729,_ZNK7testing8internal26TransformTupleValuesHelperISt5tupleIJxxxxxxxxEENS0_22CastAndAppendTransformIRKlEESt20back_insert_iteratorISt6vectorINS_7MatcherIS6_EESaISB_EEEE16IterateOverTupleIS3_Lm0EEclES7_RKS3_SE_
FN:737,739,_ZN7testing8internal20TransformTupleValuesISt5tupleIJNS0_11PairMatcherIPKcS5_EEEENS0_22CastAndAppendTransformIRKSt4pairIKNSt7__cxx1112basic_stringIcSt11char_traitsIcESaIcEEESF_EEESt20back_insert_iteratorISt6vectorINS_7MatcherISJ_EESaISO_EEEEET1_T0_RKT_SS_
FN:737,739,_ZN7testing8internal20TransformTupleValuesISt5tupleIJNS0_11PairMatcherIPKcS5_EES6_EENS0_22CastAndAppendTransformIRKSt4pairIKNSt7__cxx1112basic_stringIcSt11char_traitsIcESaIcEEESF_EEESt20back_insert_iteratorISt6vectorINS_7MatcherISJ_EESaISO_EEEEET1_T0_RKT_SS_
FN:737,739,_ZN7testing8internal20TransformTupleValuesISt5tupleIJaaaaEENS0_22CastAndAppendTransformIRKaEESt20back_insert_iteratorISt6vectorINS_7MatcherIS6_EESaISB_EEEEET1_T0_RKT_SF_
FN:737,739,_ZN7testing8internal20TransformTupleValuesISt5tupleIJiEENS0_22CastAndAppendTransformIRKiEESt20back_insert_iteratorISt6vectorINS_7MatcherIS6_EESaISB_EEEEET1_T0_RKT_SF_
FN:737,739,_ZN7testing8internal20TransformTupleValuesISt5tupleIJiiEENS0_22CastAndAppendTransformIRKiEESt20back_insert_iteratorISt6vectorINS_7MatcherIS6_EESaISB_EEEEET1_T0_RKT_SF_
FN:737,739,_ZN7testing8internal20TransformTupleValuesISt5tupleIJiiEENS0_22CastAndAppendTransformIRKlEESt20back_insert_iteratorISt6vectorINS_7MatcherIS6_EESaISB_EEEEET1_T0_RKT_SF_
FN:737,739,_ZN7testing8internal20TransformTupleValuesISt5tupleIJiiiEENS0_22CastAndAppendTransformIRKiEESt20back_insert_iteratorISt6vectorINS_7MatcherIS6_EESaISB_EEEEET1_T0_RKT_SF_
FN:737,739,_ZN7testing8internal20TransformTupleValuesISt5tupleIJiiiEENS0_22CastAndAppendTransformIRKlEESt20back_insert_iteratorISt6vectorINS_7MatcherIS6_EESaISB_EEEEET1_T0_RKT_SF_
FN:737,739,_ZN7testing8internal20TransformTupleValuesISt5tupleIJiiiiEENS0_22CastAndAppendTransformIRKiEESt20back_insert_iteratorISt6vectorINS_7MatcherIS6_EESaISB_EEEEET1_T0_RKT_SF_
FN:737,739,_ZN7testing8internal20TransformTupleValuesISt5tupleIJiiiiiEENS0_22CastAndAppendTransformIRKiEESt20back_insert_iteratorISt6vectorINS_7MatcherIS6_EESaISB_EEEEET1_T0_RKT_SF_
FN:737,739,_ZN7testing8internal20TransformTupleValuesISt5tupleIJiiiiiiiEENS0_22CastAndAppendTransformIRKlEESt20back_insert_iteratorISt6vectorINS_7MatcherIS6_EESaISB_EEEEET1_T0_RKT_SF_
FN:737,739,_ZN7testing8internal20TransformTupleValuesISt5tupleIJiiiiiiiiEENS0_22CastAndAppendTransformIRKiEESt20back_insert_iteratorISt6vectorINS_7MatcherIS6_EESaISB_EEEEET1_T0_RKT_SF_
FN:737,739,_ZN7testing8internal20TransformTupleValuesISt5tupleIJiiiiiiiiEENS0_22CastAndAppendTransformIRKlEESt20back_insert_iteratorISt6vectorINS_7MatcherIS6_EESaISB_EEEEET1_T0_RKT_SF_
FN:737,739,_ZN7testing8internal20TransformTupleValuesISt5tupleIJiiiiiiiiiEENS0_22CastAndAppendTransformIRKiEESt20back_insert_iteratorISt6vectorINS_7MatcherIS6_EESaISB_EEEEET1_T0_RKT_SF_
FN:737,739,_ZN7testing8internal20TransformTupleValuesISt5tupleIJxxxxxxxxEENS0_22CastAndAppendTransformIRKlEESt20back_insert_iteratorISt6vectorINS_7MatcherIS6_EESaISB_EEEEET1_T0_RKT_SF_
FNDA:0,_ZN7testing8internal16AllOfMatcherImplIRKdEC2ESt6vectorINS_7MatcherIS3_EESaIS7_EE
FNDA:0,_ZNK7testing8internal16AllOfMatcherImplIRKdE10DescribeToEPSo
FNDA:0,_ZNK7testing8internal16AllOfMatcherImplIRKdE18DescribeNegationToEPSo
FNDA:0,_ZNK7testing8internal16AllOfMatcherImplIRKdE15MatchAndExplainES3_PNS_19MatchResultListenerE
FNDA:0,_ZN7testing8internal15VariadicMatcherINS0_16AllOfMatcherImplEJNS0_9GtMatcherIdEENS0_9LtMatcherIiEEEEC2ERKS4_RKS6_
FNDA:0,_ZNK7testing8internal15VariadicMatcherINS0_16AllOfMatcherImplEJNS0_9GtMatcherIdEENS0_9LtMatcherIiEEEEcvNS_7MatcherIT_EEIRKdEEv
FNDA:0,_ZNK7testing8internal15VariadicMatcherINS0_16AllOfMatcherImplEJNS0_9GtMatcherIdEENS0_9LtMatcherIiEEEE21CreateVariadicMatcherIRKdLm0EEEvPSt6vectorINS_7MatcherIT_EESaISE_EESt17integral_constantImXT0_EE
FNDA:0,_ZNK7testing8internal15VariadicMatcherINS0_16AllOfMatcherImplEJNS0_9GtMatcherIdEENS0_9LtMatcherIiEEEE21CreateVariadicMatcherIRKdLm1EEEvPSt6vectorINS_7MatcherIT_EESaISE_EESt17integral_constantImXT0_EE
FNDA:0,_ZNK7testing8internal15VariadicMatcherINS0_16AllOfMatcherImplEJNS0_9GtMatcherIdEENS0_9LtMatcherIiEEEE21CreateVariadicMatcherIRKdEEvPSt6vectorINS_7MatcherIT_EESaISE_EESt17integral_constantImLm2EE
FNDA:2,_ZN7testing8internal29PredicateFormatterFromMatcherIDnEC2EDn
FNDA:0,_ZN7testing8internal29PredicateFormatterFromMatcherINS0_15VariadicMatcherINS0_16AllOfMatcherImplEJNS0_9GtMatcherIdEENS0_9LtMatcherIiEEEEEEC2ES8_
FNDA:3,_ZN7testing8internal29PredicateFormatterFromMatcherINS0_18ElementsAreMatcherISt5tupleIJNS0_11PairMatcherIPKcS6_EEEEEEEC2ES9_
FNDA:2,_ZN7testing8internal29PredicateFormatterFromMatcherINS0_18ElementsAreMatcherISt5tupleIJaaaaEEEEEC2ES5_
FNDA:1,_ZN7testing8internal29PredicateFormatterFromMatcherINS0_18ElementsAreMatcherISt5tupleIJiEEEEEC2ES5_
FNDA:2,_ZN7testing8internal29PredicateFormatterFromMatcherINS0_18ElementsAreMatcherISt5tupleIJiiEEEEEC2ES5_
FNDA:3,_ZN7testing8internal29PredicateFormatterFromMatcherINS0_18ElementsAreMatcherISt5tupleIJiiiEEEEEC2ES5_
FNDA:1,_ZN7testing8internal29PredicateFormatterFromMatcherINS0_18ElementsAreMatcherISt5tupleIJiiiiEEEEEC2ES5_
FNDA:2,_ZN7testing8internal29PredicateFormatterFromMatcherINS0_18ElementsAreMatcherISt5tupleIJiiiiiEEEEEC2ES5_
FNDA:1,_ZN7testing8internal29PredicateFormatterFromMatcherINS0_18ElementsAreMatcherISt5tupleIJiiiiiiiEEEEEC2ES5_
FNDA:2,_ZN7testing8internal29PredicateFormatterFromMatcherINS0_18ElementsAreMatcherISt5tupleIJiiiiiiiiEEEEEC2ES5_
FNDA:2,_ZN7testing8internal29PredicateFormatterFromMatcherINS0_18ElementsAreMatcherISt5tupleIJiiiiiiiiiEEEEEC2ES5_
FNDA:1,_ZN7testing8internal29PredicateFormatterFromMatcherINS0_18ElementsAreMatcherISt5tupleIJxxxxxxxxEEEEEC2ES5_
FNDA:1,_ZN7testing8internal29PredicateFormatterFromMatcherINS0_23ElementsAreArrayMatcherIlEEEC2ES3_
FNDA:1,_ZN7testing8internal29PredicateFormatterFromMatcherINS0_27UnorderedElementsAreMatcherISt5tupleIJNS0_11PairMatcherIPKcS6_EEEEEEEC2ES9_
FNDA:2,_ZN7testing8internal29PredicateFormatterFromMatcherINS0_27UnorderedElementsAreMatcherISt5tupleIJNS0_11PairMatcherIPKcS6_EES7_EEEEEC2ES9_
FNDA:16,_ZN7testing8internal29PredicateFormatterFromMatcherINS_18PolymorphicMatcherINS0_19MatchesRegexMatcherEEEEC2ES4_
FNDA:2,_ZNK7testing8internal29PredicateFormatterFromMatcherIDnEclIPSt3mapINSt7__cxx1112basic_stringIcSt11char_traitsIcESaIcEEESA_St4lessISA_ESaISt4pairIKSA_SA_EEEEENS_15AssertionResultEPKcRKT_
FNDA:0,_ZNK7testing8internal29PredicateFormatterFromMatcherINS0_15VariadicMatcherINS0_16AllOfMatcherImplEJNS0_9GtMatcherIdEENS0_9LtMatcherIiEEEEEEclIdEENS_15AssertionResultEPKcRKT_
FNDA:3,_ZNK7testing8internal29PredicateFormatterFromMatcherINS0_18ElementsAreMatcherISt5tupleIJNS0_11PairMatcherIPKcS6_EEEEEEEclISt3mapINSt7__cxx1112basic_stringIcSt11char_traitsIcESaIcEEESI_St4lessISI_ESaISt4pairIKSI_SI_EEEEENS_15AssertionResultES6_RKT_
FNDA:2,_ZNK7testing8internal29PredicateFormatterFromMatcherINS0_18ElementsAreMatcherISt5tupleIJaaaaEEEEEclISt6vectorIaSaIaEEEENS_15AssertionResultEPKcRKT_
FNDA:1,_ZNK7testing8internal29PredicateFormatterFromMatcherINS0_18ElementsAreMatcherISt5tupleIJiEEEEEclISt6vectorIiSaIiEEEENS_15AssertionResultEPKcRKT_
FNDA:1,_ZNK7testing8internal29PredicateFormatterFromMatcherINS0_18ElementsAreMatcherISt5tupleIJiiEEEEEclISt6vectorIiSaIiEEEENS_15AssertionResultEPKcRKT_
FNDA:1,_ZNK7testing8internal29PredicateFormatterFromMatcherINS0_18ElementsAreMatcherISt5tupleIJiiEEEEEclISt6vectorIlSaIlEEEENS_15AssertionResultEPKcRKT_
FNDA:2,_ZNK7testing8internal29PredicateFormatterFromMatcherINS0_18ElementsAreMatcherISt5tupleIJiiiEEEEEclISt6vectorIiSaIiEEEENS_15AssertionResultEPKcRKT_
FNDA:1,_ZNK7testing8internal29PredicateFormatterFromMatcherINS0_18ElementsAreMatcherISt5tupleIJiiiEEEEEclISt6vectorIlSaIlEEEENS_15AssertionResultEPKcRKT_
FNDA:1,_ZNK7testing8internal29PredicateFormatterFromMatcherINS0_18ElementsAreMatcherISt5tupleIJiiiiEEEEEclISt6vectorIiSaIiEEEENS_15AssertionResultEPKcRKT_
FNDA:2,_ZNK7testing8internal29PredicateFormatterFromMatcherINS0_18ElementsAreMatcherISt5tupleIJiiiiiEEEEEclISt6vectorIiSaIiEEEENS_15AssertionResultEPKcRKT_
FNDA:1,_ZNK7testing8internal29PredicateFormatterFromMatcherINS0_18ElementsAreMatcherISt5tupleIJiiiiiiiEEEEEclISt6vectorIlSaIlEEEENS_15AssertionResultEPKcRKT_
FNDA:1,_ZNK7testing8internal29PredicateFormatterFromMatcherINS0_18ElementsAreMatcherISt5tupleIJiiiiiiiiEEEEEclISt6vectorIiSaIiEEEENS_15AssertionResultEPKcRKT_
FNDA:1,_ZNK7testing8internal29PredicateFormatterFromMatcherINS0_18ElementsAreMatcherISt5tupleIJiiiiiiiiEEEEEclISt6vectorIlSaIlEEEENS_15AssertionResultEPKcRKT_
FNDA:2,_ZNK7testing8internal29PredicateFormatterFromMatcherINS0_18ElementsAreMatcherISt5tupleIJiiiiiiiiiEEEEEclISt6vectorIiSaIiEEEENS_15AssertionResultEPKcRKT_
FNDA:1,_ZNK7testing8internal29PredicateFormatterFromMatcherINS0_18ElementsAreMatcherISt5tupleIJxxxxxxxxEEEEEclISt6vectorIlSaIlEEEENS_15AssertionResultEPKcRKT_
FNDA:1,_ZNK7testing8internal29PredicateFormatterFromMatcherINS0_23ElementsAreArrayMatcherIlEEEclISt6vectorIlSaIlEEEENS_15AssertionResultEPKcRKT_
FNDA:1,_ZNK7testing8internal29PredicateFormatterFromMatcherINS0_27UnorderedElementsAreMatcherISt5tupleIJNS0_11PairMatcherIPKcS6_EEEEEEEclISt3mapINSt7__cxx1112basic_stringIcSt11char_traitsIcESaIcEEESI_St4lessISI_ESaISt4pairIKSI_SI_EEEEENS_15AssertionResultES6_RKT_
FNDA:2,_ZNK7testing8internal29PredicateFormatterFromMatcherINS0_27UnorderedElementsAreMatcherISt5tupleIJNS0_11PairMatcherIPKcS6_EES7_EEEEEclISt3mapINSt7__cxx1112basic_stringIcSt11char_traitsIcESaIcEEESI_St4lessISI_ESaISt4pairIKSI_SI_EEEEENS_15AssertionResultES6_RKT_
FNDA:16,_ZNK7testing8internal29PredicateFormatterFromMatcherINS_18PolymorphicMatcherINS0_19MatchesRegexMatcherEEEEclINSt7__cxx1112basic_stringIcSt11char_traitsIcESaIcEEEEENS_15AssertionResultEPKcRKT_
FNDA:2,_ZN7testing8internal33MakePredicateFormatterFromMatcherIDnEENS0_29PredicateFormatterFromMatcherIT_EES3_
FNDA:0,_ZN7testing8internal33MakePredicateFormatterFromMatcherINS0_15VariadicMatcherINS0_16AllOfMatcherImplEJNS0_9GtMatcherIdEENS0_9LtMatcherIiEEEEEEENS0_29PredicateFormatterFromMatcherIT_EESA_
FNDA:3,_ZN7testing8internal33MakePredicateFormatterFromMatcherINS0_18ElementsAreMatcherISt5tupleIJNS0_11PairMatcherIPKcS6_EEEEEEEENS0_29PredicateFormatterFromMatcherIT_EESB_
FNDA:2,_ZN7testing8internal33MakePredicateFormatterFromMatcherINS0_18ElementsAreMatcherISt5tupleIJaaaaEEEEEENS0_29PredicateFormatterFromMatcherIT_EES7_
FNDA:1,_ZN7testing8internal33MakePredicateFormatterFromMatcherINS0_18ElementsAreMatcherISt5tupleIJiEEEEEENS0_29PredicateFormatterFromMatcherIT_EES7_
FNDA:2,_ZN7testing8internal33MakePredicateFormatterFromMatcherINS0_18ElementsAreMatcherISt5tupleIJiiEEEEEENS0_29PredicateFormatterFromMatcherIT_EES7_
FNDA:3,_ZN7testing8internal33MakePredicateFormatterFromMatcherINS0_18ElementsAreMatcherISt5tupleIJiiiEEEEEENS0_29PredicateFormatterFromMatcherIT_EES7_
FNDA:1,_ZN7testing8internal33MakePredicateFormatterFromMatcherINS0_18ElementsAreMatcherISt5tupleIJiiiiEEEEEENS0_29PredicateFormatterFromMatcherIT_EES7_
FNDA:2,_ZN7testing8internal33MakePredicateFormatterFromMatcherINS0_18ElementsAreMatcherISt5tupleIJiiiiiEEEEEENS0_29PredicateFormatterFromMatcherIT_EES7_
FNDA:1,_ZN7testing8internal33MakePredicateFormatterFromMatcherINS0_18ElementsAreMatcherISt5tupleIJiiiiiiiEEEEEENS0_29PredicateFormatterFromMatcherIT_EES7_
FNDA:2,_ZN7testing8internal33MakePredicateFormatterFromMatcherINS0_18ElementsAreMatcherISt5tupleIJiiiiiiiiEEEEEENS0_29PredicateFormatterFromMatcherIT_EES7_
FNDA:2,_ZN7testing8internal33MakePredicateFormatterFromMatcherINS0_18ElementsAreMatcherISt5tupleIJiiiiiiiiiEEEEEENS0_29PredicateFormatterFromMatcherIT_EES7_
FNDA:1,_ZN7testing8internal33MakePredicateFormatterFromMatcherINS0_18ElementsAreMatcherISt5tupleIJxxxxxxxxEEEEEENS0_29PredicateFormatterFromMatcherIT_EES7_
FNDA:1,_ZN7testing8internal33MakePredicateFormatterFromMatcherINS0_23ElementsAreArrayMatcherIlEEEENS0_29PredicateFormatterFromMatcherIT_EES5_
FNDA:1,_ZN7testing8internal33MakePredicateFormatterFromMatcherINS0_27UnorderedElementsAreMatcherISt5tupleIJNS0_11PairMatcherIPKcS6_EEEEEEEENS0_29PredicateFormatterFromMatcherIT_EESB_
FNDA:2,_ZN7testing8internal33MakePredicateFormatterFromMatcherINS0_27UnorderedElementsAreMatcherISt5tupleIJNS0_11PairMatcherIPKcS6_EES7_EEEEEENS0_29PredicateFormatterFromMatcherIT_EESB_
FNDA:16,_ZN7testing8internal33MakePredicateFormatterFromMatcherINS_18PolymorphicMatcherINS0_19MatchesRegexMatcherEEEEENS0_29PredicateFormatterFromMatcherIT_EES6_
FNDA:12,_ZN7testing8internal12pair_getters5FirstIKSt4pairIKNSt7__cxx1112basic_stringIcSt11char_traitsIcESaIcEEES9_EEEDTdtfp_5firstERT_NS0_5Rank0E
FNDA:8,_ZN7testing8internal12pair_getters6SecondIKSt4pairIKNSt7__cxx1112basic_stringIcSt11char_traitsIcESaIcEEES9_EEEDTdtfp_6secondERT_NS0_5Rank0E
FNDA:8,_ZN7testing8internal15PairMatcherImplIRKSt4pairIKNSt7__cxx1112basic_stringIcSt11char_traitsIcESaIcEEES8_EEC2IPKcSG_EET_T0_
FNDA:0,_ZNK7testing8internal15PairMatcherImplIRKSt4pairIKNSt7__cxx1112basic_stringIcSt11char_traitsIcESaIcEEES8_EE10DescribeToEPSo
FNDA:0,_ZNK7testing8internal15PairMatcherImplIRKSt4pairIKNSt7__cxx1112basic_stringIcSt11char_traitsIcESaIcEEES8_EE18DescribeNegationToEPSo
FNDA:0,_ZN7testing25StringMatchResultListenerC2Ev
FNDA:12,_ZNK7testing8internal15PairMatcherImplIRKSt4pairIKNSt7__cxx1112basic_stringIcSt11char_traitsIcESaIcEEES8_EE15MatchAndExplainESC_PNS_19MatchResultListenerE
FNDA:0,_ZNK7testing25StringMatchResultListener3strB5cxx11Ev
FNDA:0,_ZNK7testing8internal15PairMatcherImplIRKSt4pairIKNSt7__cxx1112basic_stringIcSt11char_traitsIcESaIcEEES8_EE14ExplainSuccessERS9_SE_PNS_19MatchResultListenerE
FNDA:8,_ZN7testing8internal11PairMatcherIPKcS3_EC2ES3_S3_
FNDA:8,_ZNK7testing8internal11PairMatcherIPKcS3_EcvNS_7MatcherIT_EEIRKSt4pairIKNSt7__cxx1112basic_stringIcSt11char_traitsIcESaIcEEESF_EEEv
FNDA:3,_ZN7testing8internal22ElementsAreMatcherImplIRKSt3mapINSt7__cxx1112basic_stringIcSt11char_traitsIcESaIcEEES8_St4lessIS8_ESaISt4pairIKS8_S8_EEEEC2IN9__gnu_cxx17__normal_iteratorIPNS_7MatcherIRKSD_EESt6vectorISP_SaISP_EEEEEET_SV_
FNDA:2,_ZN7testing8internal22ElementsAreMatcherImplIRKSt6vectorIaSaIaEEEC2IN9__gnu_cxx17__normal_iteratorIPNS_7MatcherIRKaEES2_ISE_SaISE_EEEEEET_SJ_
FNDA:10,_ZN7testing8internal22ElementsAreMatcherImplIRKSt6vectorIiSaIiEEEC2IN9__gnu_cxx17__normal_iteratorIPNS_7MatcherIRKiEES2_ISE_SaISE_EEEEEET_SJ_
FNDA:1,_ZN7testing8internal22ElementsAreMatcherImplIRKSt6vectorIlSaIlEEEC2IN9__gnu_cxx17__normal_iteratorIPKlS4_EEEET_SE_
FNDA:5,_ZN7testing8internal22ElementsAreMatcherImplIRKSt6vectorIlSaIlEEEC2IN9__gnu_cxx17__normal_iteratorIPNS_7MatcherIRKlEES2_ISE_SaISE_EEEEEET_SJ_
FNDA:0,_ZNK7testing8internal22ElementsAreMatcherImplIRKSt3mapINSt7__cxx1112basic_stringIcSt11char_traitsIcESaIcEEES8_St4lessIS8_ESaISt4pairIKS8_S8_EEEE10DescribeToEPSo
FNDA:0,_ZNK7testing8internal22ElementsAreMatcherImplIRKSt6vectorIaSaIaEEE10DescribeToEPSo
FNDA:0,_ZNK7testing8internal22ElementsAreMatcherImplIRKSt6vectorIiSaIiEEE10DescribeToEPSo
FNDA:0,_ZNK7testing8internal22ElementsAreMatcherImplIRKSt6vectorIlSaIlEEE10DescribeToEPSo
FNDA:0,_ZNK7testing8internal22ElementsAreMatcherImplIRKSt3mapINSt7__cxx1112basic_stringIcSt11char_traitsIcESaIcEEES8_St4lessIS8_ESaISt4pairIKS8_S8_EEEE18DescribeNegationToEPSo
FNDA:0,_ZNK7testing8internal22ElementsAreMatcherImplIRKSt6vectorIaSaIaEEE18DescribeNegationToEPSo
FNDA:0,_ZNK7testing8internal22ElementsAreMatcherImplIRKSt6vectorIiSaIiEEE18DescribeNegationToEPSo
FNDA:0,_ZNK7testing8internal22ElementsAreMatcherImplIRKSt6vectorIlSaIlEEE18DescribeNegationToEPSo
FNDA:16,_ZN7testing8internal15MatcherCastImplIRKNSt7__cxx1112basic_stringIcSt11char_traitsIcESaIcEEENS_18PolymorphicMatcherINS0_19MatchesRegexMatcherEEEE4CastERKSC_
FNDA:16,_ZN7testing8internal15MatcherCastImplIRKNSt7__cxx1112basic_stringIcSt11char_traitsIcESaIcEEEPKcE4CastERKSB_
FNDA:2,_ZN7testing8internal15MatcherCastImplIRKPSt3mapINSt7__cxx1112basic_stringIcSt11char_traitsIcESaIcEEES8_St4lessIS8_ESaISt4pairIKS8_S8_EEEDnE4CastERKDn
FNDA:3,_ZN7testing8internal15MatcherCastImplIRKSt3mapINSt7__cxx1112basic_stringIcSt11char_traitsIcESaIcEEES8_St4lessIS8_ESaISt4pairIKS8_S8_EEENS0_18ElementsAreMatcherISt5tupleIJNS0_11PairMatcherIPKcSM_EEEEEEE4CastERKSP_
FNDA:1,_ZN7testing8internal15MatcherCastImplIRKSt3mapINSt7__cxx1112basic_stringIcSt11char_traitsIcESaIcEEES8_St4lessIS8_ESaISt4pairIKS8_S8_EEENS0_27UnorderedElementsAreMatcherISt5tupleIJNS0_11PairMatcherIPKcSM_EEEEEEE4CastERKSP_
FNDA:2,_ZN7testing8internal15MatcherCastImplIRKSt3mapINSt7__cxx1112basic_stringIcSt11char_traitsIcESaIcEEES8_St4lessIS8_ESaISt4pairIKS8_S8_EEENS0_27UnorderedElementsAreMatcherISt5tupleIJNS0_11PairMatcherIPKcSM_EESN_EEEEE4CastERKSP_
FNDA:8,_ZN7testing8internal15MatcherCastImplIRKSt4pairIKNSt7__cxx1112basic_stringIcSt11char_traitsIcESaIcEEES8_ENS0_11PairMatcherIPKcSF_EEE4CastERKSG_
FNDA:2,_ZN7testing8internal15MatcherCastImplIRKSt6vectorIaSaIaEENS0_18ElementsAreMatcherISt5tupleIJaaaaEEEEE4CastERKSA_
FNDA:1,_ZN7testing8internal15MatcherCastImplIRKSt6vectorIiSaIiEENS0_18ElementsAreMatcherISt5tupleIJiEEEEE4CastERKSA_
FNDA:1,_ZN7testing8internal15MatcherCastImplIRKSt6vectorIiSaIiEENS0_18ElementsAreMatcherISt5tupleIJiiEEEEE4CastERKSA_
FNDA:2,_ZN7testing8internal15MatcherCastImplIRKSt6vectorIiSaIiEENS0_18ElementsAreMatcherISt5tupleIJiiiEEEEE4CastERKSA_
FNDA:1,_ZN7testing8internal15MatcherCastImplIRKSt6vectorIiSaIiEENS0_18ElementsAreMatcherISt5tupleIJiiiiEEEEE4CastERKSA_
FNDA:2,_ZN7testing8internal15MatcherCastImplIRKSt6vectorIiSaIiEENS0_18ElementsAreMatcherISt5tupleIJiiiiiEEEEE4CastERKSA_
FNDA:1,_ZN7testing8internal15MatcherCastImplIRKSt6vectorIiSaIiEENS0_18ElementsAreMatcherISt5tupleIJiiiiiiiiEEEEE4CastERKSA_
FNDA:2,_ZN7testing8internal15MatcherCastImplIRKSt6vectorIiSaIiEENS0_18ElementsAreMatcherISt5tupleIJiiiiiiiiiEEEEE4CastERKSA_
FNDA:1,_ZN7testing8internal15MatcherCastImplIRKSt6vectorIlSaIlEENS0_18ElementsAreMatcherISt5tupleIJiiEEEEE4CastERKSA_
FNDA:1,_ZN7testing8internal15MatcherCastImplIRKSt6vectorIlSaIlEENS0_18ElementsAreMatcherISt5tupleIJiiiEEEEE4CastERKSA_
FNDA:1,_ZN7testing8internal15MatcherCastImplIRKSt6vectorIlSaIlEENS0_18ElementsAreMatcherISt5tupleIJiiiiiiiEEEEE4CastERKSA_
FNDA:1,_ZN7testing8internal15MatcherCastImplIRKSt6vectorIlSaIlEENS0_18ElementsAreMatcherISt5tupleIJiiiiiiiiEEEEE4CastERKSA_
FNDA:1,_ZN7testing8internal15MatcherCastImplIRKSt6vectorIlSaIlEENS0_18ElementsAreMatcherISt5tupleIJxxxxxxxxEEEEE4CastERKSA_
FNDA:1,_ZN7testing8internal15MatcherCastImplIRKSt6vectorIlSaIlEENS0_23ElementsAreArrayMatcherIlEEE4CastERKS8_
FNDA:8,_ZN7testing8internal15MatcherCastImplIRKaaE4CastES3_
FNDA:0,_ZN7testing8internal15MatcherCastImplIRKdNS0_15VariadicMatcherINS0_16AllOfMatcherImplEJNS0_9GtMatcherIdEENS0_9LtMatcherIiEEEEEE4CastERKSA_
FNDA:0,_ZN7testing8internal15MatcherCastImplIRKdNS0_9GtMatcherIdEEE4CastERKS5_
FNDA:0,_ZN7testing8internal15MatcherCastImplIRKdNS0_9LtMatcherIiEEE4CastERKS5_
FNDA:49,_ZN7testing8internal15MatcherCastImplIRKiiE4CastES3_
FNDA:20,_ZN7testing8internal15MatcherCastImplIRKliE4CastERKi
FNDA:17,_ZN7testing8internal15MatcherCastImplIRKllE4CastES3_
FNDA:8,_ZN7testing8internal15MatcherCastImplIRKlxE4CastERKx
FNDA:3,_ZNK7testing8internal22ElementsAreMatcherImplIRKSt3mapINSt7__cxx1112basic_stringIcSt11char_traitsIcESaIcEEES8_St4lessIS8_ESaISt4pairIKS8_S8_EEEE15MatchAndExplainESH_PNS_19MatchResultListenerE
FNDA:2,_ZNK7testing8internal22ElementsAreMatcherImplIRKSt6vectorIaSaIaEEE15MatchAndExplainES6_PNS_19MatchResultListenerE
FNDA:10,_ZNK7testing8internal22ElementsAreMatcherImplIRKSt6vectorIiSaIiEEE15MatchAndExplainES6_PNS_19MatchResultListenerE
FNDA:6,_ZNK7testing8internal22ElementsAreMatcherImplIRKSt6vectorIlSaIlEEE15MatchAndExplainES6_PNS_19MatchResultListenerE
FNDA:0,_ZN7testing8internal22ElementsAreMatcherImplIRKSt3mapINSt7__cxx1112basic_stringIcSt11char_traitsIcESaIcEEES8_St4lessIS8_ESaISt4pairIKS8_S8_EEEE8ElementsEm
FNDA:0,_ZN7testing8internal22ElementsAreMatcherImplIRKSt6vectorIaSaIaEEE8ElementsEm
FNDA:0,_ZN7testing8internal22ElementsAreMatcherImplIRKSt6vectorIiSaIiEEE8ElementsEm
FNDA:0,_ZN7testing8internal22ElementsAreMatcherImplIRKSt6vectorIlSaIlEEE8ElementsEm
FNDA:9,_ZNK7testing8internal22ElementsAreMatcherImplIRKSt3mapINSt7__cxx1112basic_stringIcSt11char_traitsIcESaIcEEES8_St4lessIS8_ESaISt4pairIKS8_S8_EEEE5countEv
FNDA:12,_ZNK7testing8internal22ElementsAreMatcherImplIRKSt6vectorIaSaIaEEE5countEv
FNDA:69,_ZNK7testing8internal22ElementsAreMatcherImplIRKSt6vectorIiSaIiEEE5countEv
FNDA:57,_ZNK7testing8internal22ElementsAreMatcherImplIRKSt6vectorIlSaIlEEE5countEv
FNDA:3,_ZN7testing8internal11MatchMatrixC2Emm
FNDA:31,_ZNK7testing8internal11MatchMatrix7LhsSizeEv
FNDA:38,_ZNK7testing8internal11MatchMatrix7RhsSizeEv
FNDA:16,_ZNK7testing8internal11MatchMatrix7HasEdgeEmm
FNDA:9,_ZN7testing8internal11MatchMatrix7SetEdgeEmmb
FNDA:25,_ZNK7testing8internal11MatchMatrix10SpaceIndexEmm
FNDA:3,_ZN7testing8internal35UnorderedElementsAreMatcherImplBaseC2ENS0_23UnorderedMatcherRequire5FlagsE
FNDA:5,_ZN7testing8internal35UnorderedElementsAreMatcherImplBase18matcher_describersEv
FNDA:0,_ZN7testing8internal35UnorderedElementsAreMatcherImplBase8ElementsEm
FNDA:15,_ZNK7testing8internal35UnorderedElementsAreMatcherImplBase11match_flagsEv
FNDA:16,_ZN7testing8internal15MatcherCastImplIRKNSt7__cxx1112basic_stringIcSt11char_traitsIcESaIcEEENS_18PolymorphicMatcherINS0_19MatchesRegexMatcherEEEE8CastImplILb0EEENS_7MatcherIS9_EERKSC_St17integral_constantIbLb1EESJ_IbXT_EE
FNDA:16,_ZN7testing8internal15MatcherCastImplIRKNSt7__cxx1112basic_stringIcSt11char_traitsIcESaIcEEEPKcE8CastImplILb1EEENS_7MatcherIS9_EERKSB_St17integral_constantIbLb1EESI_IbXT_EE
FNDA:2,_ZN7testing8internal15MatcherCastImplIRKPSt3mapINSt7__cxx1112basic_stringIcSt11char_traitsIcESaIcEEES8_St4lessIS8_ESaISt4pairIKS8_S8_EEEDnE8CastImplILb1EEENS_7MatcherISI_EERKDnSt17integral_constantIbLb1EESP_IbXT_EE
FNDA:3,_ZN7testing8internal15MatcherCastImplIRKSt3mapINSt7__cxx1112basic_stringIcSt11char_traitsIcESaIcEEES8_St4lessIS8_ESaISt4pairIKS8_S8_EEENS0_18ElementsAreMatcherISt5tupleIJNS0_11PairMatcherIPKcSM_EEEEEEE8CastImplILb0EEENS_7MatcherISH_EERKSP_St17integral_constantIbLb1EESW_IbXT_EE
FNDA:1,_ZN7testing8internal15MatcherCastImplIRKSt3mapINSt7__cxx1112basic_stringIcSt11char_traitsIcESaIcEEES8_St4lessIS8_ESaISt4pairIKS8_S8_EEENS0_27UnorderedElementsAreMatcherISt5tupleIJNS0_11PairMatcherIPKcSM_EEEEEEE8CastImplILb0EEENS_7MatcherISH_EERKSP_St17integral_constantIbLb1EESW_IbXT_EE
FNDA:2,_ZN7testing8internal15MatcherCastImplIRKSt3mapINSt7__cxx1112basic_stringIcSt11char_traitsIcESaIcEEES8_St4lessIS8_ESaISt4pairIKS8_S8_EEENS0_27UnorderedElementsAreMatcherISt5tupleIJNS0_11PairMatcherIPKcSM_EESN_EEEEE8CastImplILb0EEENS_7MatcherISH_EERKSP_St17integral_constantIbLb1EESW_IbXT_EE
FNDA:8,_ZN7testing8internal15MatcherCastImplIRKSt4pairIKNSt7__cxx1112basic_stringIcSt11char_traitsIcESaIcEEES8_ENS0_11PairMatcherIPKcSF_EEE8CastImplILb0EEENS_7MatcherISC_EERKSG_St17integral_constantIbLb1EESN_IbXT_EE
FNDA:2,_ZN7testing8internal15MatcherCastImplIRKSt6vectorIaSaIaEENS0_18ElementsAreMatcherISt5tupleIJaaaaEEEEE8CastImplILb0EEENS_7MatcherIS6_EERKSA_St17integral_constantIbLb1EESH_IbXT_EE
FNDA:1,_ZN7testing8internal15MatcherCastImplIRKSt6vectorIiSaIiEENS0_18ElementsAreMatcherISt5tupleIJiEEEEE8CastImplILb0EEENS_7MatcherIS6_EERKSA_St17integral_constantIbLb1EESH_IbXT_EE
FNDA:1,_ZN7testing8internal15MatcherCastImplIRKSt6vectorIiSaIiEENS0_18ElementsAreMatcherISt5tupleIJiiEEEEE8CastImplILb0EEENS_7MatcherIS6_EERKSA_St17integral_constantIbLb1EESH_IbXT_EE
FNDA:2,_ZN7testing8internal15MatcherCastImplIRKSt6vectorIiSaIiEENS0_18ElementsAreMatcherISt5tupleIJiiiEEEEE8CastImplILb0EEENS_7MatcherIS6_EERKSA_St17integral_constantIbLb1EESH_IbXT_EE
FNDA:1,_ZN7testing8internal15MatcherCastImplIRKSt6vectorIiSaIiEENS0_18ElementsAreMatcherISt5tupleIJiiiiEEEEE8CastImplILb0EEENS_7MatcherIS6_EERKSA_St17integral_constantIbLb1EESH_IbXT_EE
FNDA:2,_ZN7testing8internal15MatcherCastImplIRKSt6vectorIiSaIiEENS0_18ElementsAreMatcherISt5tupleIJiiiiiEEEEE8CastImplILb0EEENS_7MatcherIS6_EERKSA_St17integral_constantIbLb1EESH_IbXT_EE
FNDA:1,_ZN7testing8internal15MatcherCastImplIRKSt6vectorIiSaIiEENS0_18ElementsAreMatcherISt5tupleIJiiiiiiiiEEEEE8CastImplILb0EEENS_7MatcherIS6_EERKSA_St17integral_constantIbLb1EESH_IbXT_EE
FNDA:2,_ZN7testing8internal15MatcherCastImplIRKSt6vectorIiSaIiEENS0_18ElementsAreMatcherISt5tupleIJiiiiiiiiiEEEEE8CastImplILb0EEENS_7MatcherIS6_EERKSA_St17integral_constantIbLb1EESH_IbXT_EE
FNDA:1,_ZN7testing8internal15MatcherCastImplIRKSt6vectorIlSaIlEENS0_18ElementsAreMatcherISt5tupleIJiiEEEEE8CastImplILb0EEENS_7MatcherIS6_EERKSA_St17integral_constantIbLb1EESH_IbXT_EE
FNDA:1,_ZN7testing8internal15MatcherCastImplIRKSt6vectorIlSaIlEENS0_18ElementsAreMatcherISt5tupleIJiiiEEEEE8CastImplILb0EEENS_7MatcherIS6_EERKSA_St17integral_constantIbLb1EESH_IbXT_EE
FNDA:1,_ZN7testing8internal15MatcherCastImplIRKSt6vectorIlSaIlEENS0_18ElementsAreMatcherISt5tupleIJiiiiiiiEEEEE8CastImplILb0EEENS_7MatcherIS6_EERKSA_St17integral_constantIbLb1EESH_IbXT_EE
FNDA:1,_ZN7testing8internal15MatcherCastImplIRKSt6vectorIlSaIlEENS0_18ElementsAreMatcherISt5tupleIJiiiiiiiiEEEEE8CastImplILb0EEENS_7MatcherIS6_EERKSA_St17integral_constantIbLb1EESH_IbXT_EE
FNDA:1,_ZN7testing8internal15MatcherCastImplIRKSt6vectorIlSaIlEENS0_18ElementsAreMatcherISt5tupleIJxxxxxxxxEEEEE8CastImplILb0EEENS_7MatcherIS6_EERKSA_St17integral_constantIbLb1EESH_IbXT_EE
FNDA:1,_ZN7testing8internal15MatcherCastImplIRKSt6vectorIlSaIlEENS0_23ElementsAreArrayMatcherIlEEE8CastImplILb0EEENS_7MatcherIS6_EERKS8_St17integral_constantIbLb1EESF_IbXT_EE
FNDA:8,_ZN7testing8internal15MatcherCastImplIRKaaE8CastImplILb1EEENS_7MatcherIS3_EES3_St17integral_constantIbLb1EES8_IbXT_EE
FNDA:0,_ZN7testing8internal15MatcherCastImplIRKdNS0_15VariadicMatcherINS0_16AllOfMatcherImplEJNS0_9GtMatcherIdEENS0_9LtMatcherIiEEEEEE8CastImplILb0EEENS_7MatcherIS3_EERKSA_St17integral_constantIbLb1EESH_IbXT_EE
FNDA:0,_ZN7testing8internal15MatcherCastImplIRKdNS0_9GtMatcherIdEEE8CastImplILb0EEENS_7MatcherIS3_EERKS5_St17integral_constantIbLb1EESC_IbXT_EE
FNDA:0,_ZN7testing8internal15MatcherCastImplIRKdNS0_9LtMatcherIiEEE8CastImplILb0EEENS_7MatcherIS3_EERKS5_St17integral_constantIbLb1EESC_IbXT_EE
FNDA:49,_ZN7testing8internal15MatcherCastImplIRKiiE8CastImplILb1EEENS_7MatcherIS3_EES3_St17integral_constantIbLb1EES8_IbXT_EE
FNDA:20,_ZN7testing8internal15MatcherCastImplIRKliE8CastImplILb1EEENS_7MatcherIS3_EERKiSt17integral_constantIbLb1EESA_IbXT_EE
FNDA:17,_ZN7testing8internal15MatcherCastImplIRKllE8CastImplILb1EEENS_7MatcherIS3_EES3_St17integral_constantIbLb1EES8_IbXT_EE
FNDA:8,_ZN7testing8internal15MatcherCastImplIRKlxE8CastImplILb1EEENS_7MatcherIS3_EERKxSt17integral_constantIbLb1EESA_IbXT_EE
FNDA:3,_ZN7testing8internal31UnorderedElementsAreMatcherImplIRKSt3mapINSt7__cxx1112basic_stringIcSt11char_traitsIcESaIcEEES8_St4lessIS8_ESaISt4pairIKS8_S8_EEEEC2IN9__gnu_cxx17__normal_iteratorIPNS_7MatcherIRKSD_EESt6vectorISP_SaISP_EEEEEENS0_23UnorderedMatcherRequire5FlagsET_SX_
FNDA:0,_ZNK7testing8internal31UnorderedElementsAreMatcherImplIRKSt3mapINSt7__cxx1112basic_stringIcSt11char_traitsIcESaIcEEES8_St4lessIS8_ESaISt4pairIKS8_S8_EEEE10DescribeToEPSo
FNDA:0,_ZNK7testing8internal31UnorderedElementsAreMatcherImplIRKSt3mapINSt7__cxx1112basic_stringIcSt11char_traitsIcESaIcEEES8_St4lessIS8_ESaISt4pairIKS8_S8_EEEE18DescribeNegationToEPSo
FNDA:3,_ZNK7testing8internal31UnorderedElementsAreMatcherImplIRKSt3mapINSt7__cxx1112basic_stringIcSt11char_traitsIcESaIcEEES8_St4lessIS8_ESaISt4pairIKS8_S8_EEEE15MatchAndExplainESH_PNS_19MatchResultListenerE
FNDA:3,_ZNK7testing8internal31UnorderedElementsAreMatcherImplIRKSt3mapINSt7__cxx1112basic_stringIcSt11char_traitsIcESaIcEEES8_St4lessIS8_ESaISt4pairIKS8_S8_EEEE15AnalyzeElementsISt23_Rb_tree_const_iteratorISD_EEENS0_11MatchMatrixET_SN_PSt6vectorIS8_SaIS8_EEPNS_19MatchResultListenerE
FNDA:8,_ZNK7testing8internal22CastAndAppendTransformIRKSt4pairIKNSt7__cxx1112basic_stringIcSt11char_traitsIcESaIcEEES8_EEclINS0_11PairMatcherIPKcSH_EEEENS_7MatcherISC_EERKT_
FNDA:8,_ZNK7testing8internal22CastAndAppendTransformIRKaEclIaEENS_7MatcherIS3_EERKT_
FNDA:49,_ZNK7testing8internal22CastAndAppendTransformIRKiEclIiEENS_7MatcherIS3_EERKT_
FNDA:20,_ZNK7testing8internal22CastAndAppendTransformIRKlEclIiEENS_7MatcherIS3_EERKT_
FNDA:8,_ZNK7testing8internal22CastAndAppendTransformIRKlEclIxEENS_7MatcherIS3_EERKT_
FNDA:1,_ZN7testing8internal27UnorderedElementsAreMatcherISt5tupleIJNS0_11PairMatcherIPKcS5_EEEEEC2ERKS7_
FNDA:2,_ZN7testing8internal27UnorderedElementsAreMatcherISt5tupleIJNS0_11PairMatcherIPKcS5_EES6_EEEC2ERKS7_
FNDA:1,_ZNK7testing8internal27UnorderedElementsAreMatcherISt5tupleIJNS0_11PairMatcherIPKcS5_EEEEEcvNS_7MatcherIT_EEIRKSt3mapINSt7__cxx1112basic_stringIcSt11char_traitsIcESaIcEEESJ_St4lessISJ_ESaISt4pairIKSJ_SJ_EEEEEv
FNDA:2,_ZNK7testing8internal27UnorderedElementsAreMatcherISt5tupleIJNS0_11PairMatcherIPKcS5_EES6_EEEcvNS_7MatcherIT_EEIRKSt3mapINSt7__cxx1112basic_stringIcSt11char_traitsIcESaIcEEESJ_St4lessISJ_ESaISt4pairIKSJ_SJ_EEEEEv
FNDA:3,_ZN7testing8internal18ElementsAreMatcherISt5tupleIJNS0_11PairMatcherIPKcS5_EEEEEC2ERKS7_
FNDA:2,_ZN7testing8internal18ElementsAreMatcherISt5tupleIJaaaaEEEC2ERKS3_
FNDA:1,_ZN7testing8internal18ElementsAreMatcherISt5tupleIJiEEEC2ERKS3_
FNDA:2,_ZN7testing8internal18ElementsAreMatcherISt5tupleIJiiEEEC2ERKS3_
FNDA:3,_ZN7testing8internal18ElementsAreMatcherISt5tupleIJiiiEEEC2ERKS3_
FNDA:1,_ZN7testing8internal18ElementsAreMatcherISt5tupleIJiiiiEEEC2ERKS3_
FNDA:2,_ZN7testing8internal18ElementsAreMatcherISt5tupleIJiiiiiEEEC2ERKS3_
FNDA:1,_ZN7testing8internal18ElementsAreMatcherISt5tupleIJiiiiiiiEEEC2ERKS3_
FNDA:2,_ZN7testing8internal18ElementsAreMatcherISt5tupleIJiiiiiiiiEEEC2ERKS3_
FNDA:2,_ZN7testing8internal18ElementsAreMatcherISt5tupleIJiiiiiiiiiEEEC2ERKS3_
FNDA:1,_ZN7testing8internal18ElementsAreMatcherISt5tupleIJxxxxxxxxEEEC2ERKS3_
FNDA:3,_ZNK7testing8internal18ElementsAreMatcherISt5tupleIJNS0_11PairMatcherIPKcS5_EEEEEcvNS_7MatcherIT_EEIRKSt3mapINSt7__cxx1112basic_stringIcSt11char_traitsIcESaIcEEESJ_St4lessISJ_ESaISt4pairIKSJ_SJ_EEEEEv
FNDA:2,_ZNK7testing8internal18ElementsAreMatcherISt5tupleIJaaaaEEEcvNS_7MatcherIT_EEIRKSt6vectorIaSaIaEEEEv
FNDA:1,_ZNK7testing8internal18ElementsAreMatcherISt5tupleIJiEEEcvNS_7MatcherIT_EEIRKSt6vectorIiSaIiEEEEv
FNDA:1,_ZNK7testing8internal18ElementsAreMatcherISt5tupleIJiiEEEcvNS_7MatcherIT_EEIRKSt6vectorIiSaIiEEEEv
FNDA:1,_ZNK7testing8internal18ElementsAreMatcherISt5tupleIJiiEEEcvNS_7MatcherIT_EEIRKSt6vectorIlSaIlEEEEv
FNDA:2,_ZNK7testing8internal18ElementsAreMatcherISt5tupleIJiiiEEEcvNS_7MatcherIT_EEIRKSt6vectorIiSaIiEEEEv
FNDA:1,_ZNK7testing8internal18ElementsAreMatcherISt5tupleIJiiiEEEcvNS_7MatcherIT_EEIRKSt6vectorIlSaIlEEEEv
FNDA:1,_ZNK7testing8internal18ElementsAreMatcherISt5tupleIJiiiiEEEcvNS_7MatcherIT_EEIRKSt6vectorIiSaIiEEEEv
FNDA:2,_ZNK7testing8internal18ElementsAreMatcherISt5tupleIJiiiiiEEEcvNS_7MatcherIT_EEIRKSt6vectorIiSaIiEEEEv
FNDA:1,_ZNK7testing8internal18ElementsAreMatcherISt5tupleIJiiiiiiiEEEcvNS_7MatcherIT_EEIRKSt6vectorIlSaIlEEEEv
FNDA:1,_ZNK7testing8internal18ElementsAreMatcherISt5tupleIJiiiiiiiiEEEcvNS_7MatcherIT_EEIRKSt6vectorIiSaIiEEEEv
FNDA:1,_ZNK7testing8internal18ElementsAreMatcherISt5tupleIJiiiiiiiiEEEcvNS_7MatcherIT_EEIRKSt6vectorIlSaIlEEEEv
FNDA:2,_ZNK7testing8internal18ElementsAreMatcherISt5tupleIJiiiiiiiiiEEEcvNS_7MatcherIT_EEIRKSt6vectorIiSaIiEEEEv
FNDA:1,_ZNK7testing8internal18ElementsAreMatcherISt5tupleIJxxxxxxxxEEEcvNS_7MatcherIT_EEIRKSt6vectorIlSaIlEEEEv
FNDA:1,_ZN7testing8internal23ElementsAreArrayMatcherIlEC2IN9__gnu_cxx17__normal_iteratorIPKlSt6vectorIlSaIlEEEEEET_SC_
FNDA:1,_ZNK7testing8internal23ElementsAreArrayMatcherIlEcvNS_7MatcherIT_EEIRKSt6vectorIlSaIlEEEEv
FNDA:1,_ZN7testing16ElementsAreArrayIN9__gnu_cxx17__normal_iteratorIPKlSt6vectorIlSaIlEEEEEENS_8internal23ElementsAreArrayMatcherINSt15iterator_traitsIT_E10value_typeEEESC_SC_
FNDA:1,_ZN7testing16ElementsAreArrayISt6vectorIlSaIlEEEEDTcl16ElementsAreArraycldtfp_5beginEcldtfp_3endEEERKT_
FNDA:8,_ZN7testing8internal15MatcherCastImplIRKSt4pairIKNSt7__cxx1112basic_stringIcSt11char_traitsIcESaIcEEES8_ENS_7MatcherISC_EEE4CastERKSE_
FNDA:8,_ZN7testing8internal15MatcherCastImplIRKaNS_7MatcherIS3_EEE4CastERKS5_
FNDA:49,_ZN7testing8internal15MatcherCastImplIRKiNS_7MatcherIS3_EEE4CastERKS5_
FNDA:28,_ZN7testing8internal15MatcherCastImplIRKlNS_7MatcherIS3_EEE4CastERKS5_
FNDA:8,_ZN7testing4PairIPKcS2_EENS_8internal11PairMatcherIT_T0_EES5_S6_
FNDA:3,_ZN7testing11ElementsAreIJNS_8internal11PairMatcherIPKcS4_EEEEENS1_18ElementsAreMatcherISt5tupleIJDpNSt5decayIRKT_E4typeEEEEEDpSB_
FNDA:2,_ZN7testing11ElementsAreIJaaaaEEENS_8internal18ElementsAreMatcherISt5tupleIJDpNSt5decayIRKT_E4typeEEEEEDpS7_
FNDA:1,_ZN7testing11ElementsAreIJiEEENS_8internal18ElementsAreMatcherISt5tupleIJDpNSt5decayIRKT_E4typeEEEEEDpS7_
FNDA:2,_ZN7testing11ElementsAreIJiiEEENS_8internal18ElementsAreMatcherISt5tupleIJDpNSt5decayIRKT_E4typeEEEEEDpS7_
FNDA:3,_ZN7testing11ElementsAreIJiiiEEENS_8internal18ElementsAreMatcherISt5tupleIJDpNSt5decayIRKT_E4typeEEEEEDpS7_
FNDA:1,_ZN7testing11ElementsAreIJiiiiEEENS_8internal18ElementsAreMatcherISt5tupleIJDpNSt5decayIRKT_E4typeEEEEEDpS7_
FNDA:2,_ZN7testing11ElementsAreIJiiiiiEEENS_8internal18ElementsAreMatcherISt5tupleIJDpNSt5decayIRKT_E4typeEEEEEDpS7_
FNDA:1,_ZN7testing11ElementsAreIJiiiiiiiEEENS_8internal18ElementsAreMatcherISt5tupleIJDpNSt5decayIRKT_E4typeEEEEEDpS7_
FNDA:2,_ZN7testing11ElementsAreIJiiiiiiiiEEENS_8internal18ElementsAreMatcherISt5tupleIJDpNSt5decayIRKT_E4typeEEEEEDpS7_
FNDA:2,_ZN7testing11ElementsAreIJiiiiiiiiiEEENS_8internal18ElementsAreMatcherISt5tupleIJDpNSt5decayIRKT_E4typeEEEEEDpS7_
FNDA:1,_ZN7testing11ElementsAreIJxxxxxxxxEEENS_8internal18ElementsAreMatcherISt5tupleIJDpNSt5decayIRKT_E4typeEEEEEDpS7_
FNDA:1,_ZN7testing20UnorderedElementsAreIJNS_8internal11PairMatcherIPKcS4_EEEEENS1_27UnorderedElementsAreMatcherISt5tupleIJDpNSt5decayIRKT_E4typeEEEEEDpSB_
FNDA:2,_ZN7testing20UnorderedElementsAreIJNS_8internal11PairMatcherIPKcS4_EES5_EEENS1_27UnorderedElementsAreMatcherISt5tupleIJDpNSt5decayIRKT_E4typeEEEEEDpSB_
FNDA:0,_ZN7testing5AllOfIJNS_8internal9GtMatcherIdEENS1_9LtMatcherIiEEEEENS1_15VariadicMatcherINS1_16AllOfMatcherImplEJDpNSt5decayIRKT_E4typeEEEEDpSB_
FNDA:16,_ZN7testing11MatcherCastIRKNSt7__cxx1112basic_stringIcSt11char_traitsIcESaIcEEENS_18PolymorphicMatcherINS_8internal19MatchesRegexMatcherEEEEENS_7MatcherIT_EERKT0_
FNDA:16,_ZN7testing11MatcherCastIRKNSt7__cxx1112basic_stringIcSt11char_traitsIcESaIcEEEPKcEENS_7MatcherIT_EERKT0_
FNDA:2,_ZN7testing11MatcherCastIRKPSt3mapINSt7__cxx1112basic_stringIcSt11char_traitsIcESaIcEEES7_St4lessIS7_ESaISt4pairIKS7_S7_EEEDnEENS_7MatcherIT_EERKT0_
FNDA:3,_ZN7testing11MatcherCastIRKSt3mapINSt7__cxx1112basic_stringIcSt11char_traitsIcESaIcEEES7_St4lessIS7_ESaISt4pairIKS7_S7_EEENS_8internal18ElementsAreMatcherISt5tupleIJNSH_11PairMatcherIPKcSM_EEEEEEEENS_7MatcherIT_EERKT0_
FNDA:1,_ZN7testing11MatcherCastIRKSt3mapINSt7__cxx1112basic_stringIcSt11char_traitsIcESaIcEEES7_St4lessIS7_ESaISt4pairIKS7_S7_EEENS_8internal27UnorderedElementsAreMatcherISt5tupleIJNSH_11PairMatcherIPKcSM_EEEEEEEENS_7MatcherIT_EERKT0_
FNDA:2,_ZN7testing11MatcherCastIRKSt3mapINSt7__cxx1112basic_stringIcSt11char_traitsIcESaIcEEES7_St4lessIS7_ESaISt4pairIKS7_S7_EEENS_8internal27UnorderedElementsAreMatcherISt5tupleIJNSH_11PairMatcherIPKcSM_EESN_EEEEEENS_7MatcherIT_EERKT0_
FNDA:8,_ZN7testing11MatcherCastIRKSt4pairIKNSt7__cxx1112basic_stringIcSt11char_traitsIcESaIcEEES7_ENS_7MatcherISB_EEEENSC_IT_EERKT0_
FNDA:8,_ZN7testing11MatcherCastIRKSt4pairIKNSt7__cxx1112basic_stringIcSt11char_traitsIcESaIcEEES7_ENS_8internal11PairMatcherIPKcSF_EEEENS_7MatcherIT_EERKT0_
FNDA:2,_ZN7testing11MatcherCastIRKSt6vectorIaSaIaEENS_8internal18ElementsAreMatcherISt5tupleIJaaaaEEEEEENS_7MatcherIT_EERKT0_
FNDA:1,_ZN7testing11MatcherCastIRKSt6vectorIiSaIiEENS_8internal18ElementsAreMatcherISt5tupleIJiEEEEEENS_7MatcherIT_EERKT0_
FNDA:1,_ZN7testing11MatcherCastIRKSt6vectorIiSaIiEENS_8internal18ElementsAreMatcherISt5tupleIJiiEEEEEENS_7MatcherIT_EERKT0_
FNDA:2,_ZN7testing11MatcherCastIRKSt6vectorIiSaIiEENS_8internal18ElementsAreMatcherISt5tupleIJiiiEEEEEENS_7MatcherIT_EERKT0_
FNDA:1,_ZN7testing11MatcherCastIRKSt6vectorIiSaIiEENS_8internal18ElementsAreMatcherISt5tupleIJiiiiEEEEEENS_7MatcherIT_EERKT0_
FNDA:2,_ZN7testing11MatcherCastIRKSt6vectorIiSaIiEENS_8internal18ElementsAreMatcherISt5tupleIJiiiiiEEEEEENS_7MatcherIT_EERKT0_
FNDA:1,_ZN7testing11MatcherCastIRKSt6vectorIiSaIiEENS_8internal18ElementsAreMatcherISt5tupleIJiiiiiiiiEEEEEENS_7MatcherIT_EERKT0_
FNDA:2,_ZN7testing11MatcherCastIRKSt6vectorIiSaIiEENS_8internal18ElementsAreMatcherISt5tupleIJiiiiiiiiiEEEEEENS_7MatcherIT_EERKT0_
FNDA:1,_ZN7testing11MatcherCastIRKSt6vectorIlSaIlEENS_8internal18ElementsAreMatcherISt5tupleIJiiEEEEEENS_7MatcherIT_EERKT0_
FNDA:1,_ZN7testing11MatcherCastIRKSt6vectorIlSaIlEENS_8internal18ElementsAreMatcherISt5tupleIJiiiEEEEEENS_7MatcherIT_EERKT0_
FNDA:1,_ZN7testing11MatcherCastIRKSt6vectorIlSaIlEENS_8internal18ElementsAreMatcherISt5tupleIJiiiiiiiEEEEEENS_7MatcherIT_EERKT0_
FNDA:1,_ZN7testing11MatcherCastIRKSt6vectorIlSaIlEENS_8internal18ElementsAreMatcherISt5tupleIJiiiiiiiiEEEEEENS_7MatcherIT_EERKT0_
FNDA:1,_ZN7testing11MatcherCastIRKSt6vectorIlSaIlEENS_8internal18ElementsAreMatcherISt5tupleIJxxxxxxxxEEEEEENS_7MatcherIT_EERKT0_
FNDA:1,_ZN7testing11MatcherCastIRKSt6vectorIlSaIlEENS_8internal23ElementsAreArrayMatcherIlEEEENS_7MatcherIT_EERKT0_
FNDA:8,_ZN7testing11MatcherCastIRKaNS_7MatcherIS2_EEEENS3_IT_EERKT0_
FNDA:8,_ZN7testing11MatcherCastIRKaaEENS_7MatcherIT_EERKT0_
FNDA:0,_ZN7testing11MatcherCastIRKdNS_8internal15VariadicMatcherINS3_16AllOfMatcherImplEJNS3_9GtMatcherIdEENS3_9LtMatcherIiEEEEEEENS_7MatcherIT_EERKT0_
FNDA:0,_ZN7testing11MatcherCastIRKdNS_8internal9GtMatcherIdEEEENS_7MatcherIT_EERKT0_
FNDA:0,_ZN7testing11MatcherCastIRKdNS_8internal9LtMatcherIiEEEENS_7MatcherIT_EERKT0_
FNDA:49,_ZN7testing11MatcherCastIRKiNS_7MatcherIS2_EEEENS3_IT_EERKT0_
FNDA:49,_ZN7testing11MatcherCastIRKiiEENS_7MatcherIT_EERKT0_
FNDA:28,_ZN7testing11MatcherCastIRKlNS_7MatcherIS2_EEEENS3_IT_EERKT0_
FNDA:20,_ZN7testing11MatcherCastIRKliEENS_7MatcherIT_EERKT0_
FNDA:17,_ZN7testing11MatcherCastIRKllEENS_7MatcherIT_EERKT0_
FNDA:8,_ZN7testing11MatcherCastIRKlxEENS_7MatcherIT_EERKT0_
FNDA:16,_ZN7testing15SafeMatcherCastIRKNSt7__cxx1112basic_stringIcSt11char_traitsIcESaIcEEENS_18PolymorphicMatcherINS_8internal19MatchesRegexMatcherEEEEENS_7MatcherIT_EERKT0_
FNDA:16,_ZN7testing15SafeMatcherCastIRKNSt7__cxx1112basic_stringIcSt11char_traitsIcESaIcEEEPKcEENS_7MatcherIT_EERKT0_
FNDA:2,_ZN7testing15SafeMatcherCastIRKPSt3mapINSt7__cxx1112basic_stringIcSt11char_traitsIcESaIcEEES7_St4lessIS7_ESaISt4pairIKS7_S7_EEEDnEENS_7MatcherIT_EERKT0_
FNDA:3,_ZN7testing15SafeMatcherCastIRKSt3mapINSt7__cxx1112basic_stringIcSt11char_traitsIcESaIcEEES7_St4lessIS7_ESaISt4pairIKS7_S7_EEENS_8internal18ElementsAreMatcherISt5tupleIJNSH_11PairMatcherIPKcSM_EEEEEEEENS_7MatcherIT_EERKT0_
FNDA:1,_ZN7testing15SafeMatcherCastIRKSt3mapINSt7__cxx1112basic_stringIcSt11char_traitsIcESaIcEEES7_St4lessIS7_ESaISt4pairIKS7_S7_EEENS_8internal27UnorderedElementsAreMatcherISt5tupleIJNSH_11PairMatcherIPKcSM_EEEEEEEENS_7MatcherIT_EERKT0_
FNDA:2,_ZN7testing15SafeMatcherCastIRKSt3mapINSt7__cxx1112basic_stringIcSt11char_traitsIcESaIcEEES7_St4lessIS7_ESaISt4pairIKS7_S7_EEENS_8internal27UnorderedElementsAreMatcherISt5tupleIJNSH_11PairMatcherIPKcSM_EESN_EEEEEENS_7MatcherIT_EERKT0_
FNDA:2,_ZN7testing15SafeMatcherCastIRKSt6vectorIaSaIaEENS_8internal18ElementsAreMatcherISt5tupleIJaaaaEEEEEENS_7MatcherIT_EERKT0_
FNDA:1,_ZN7testing15SafeMatcherCastIRKSt6vectorIiSaIiEENS_8internal18ElementsAreMatcherISt5tupleIJiEEEEEENS_7MatcherIT_EERKT0_
FNDA:1,_ZN7testing15SafeMatcherCastIRKSt6vectorIiSaIiEENS_8internal18ElementsAreMatcherISt5tupleIJiiEEEEEENS_7MatcherIT_EERKT0_
FNDA:2,_ZN7testing15SafeMatcherCastIRKSt6vectorIiSaIiEENS_8internal18ElementsAreMatcherISt5tupleIJiiiEEEEEENS_7MatcherIT_EERKT0_
FNDA:1,_ZN7testing15SafeMatcherCastIRKSt6vectorIiSaIiEENS_8internal18ElementsAreMatcherISt5tupleIJiiiiEEEEEENS_7MatcherIT_EERKT0_
FNDA:2,_ZN7testing15SafeMatcherCastIRKSt6vectorIiSaIiEENS_8internal18ElementsAreMatcherISt5tupleIJiiiiiEEEEEENS_7MatcherIT_EERKT0_
FNDA:1,_ZN7testing15SafeMatcherCastIRKSt6vectorIiSaIiEENS_8internal18ElementsAreMatcherISt5tupleIJiiiiiiiiEEEEEENS_7MatcherIT_EERKT0_
FNDA:2,_ZN7testing15SafeMatcherCastIRKSt6vectorIiSaIiEENS_8internal18ElementsAreMatcherISt5tupleIJiiiiiiiiiEEEEEENS_7MatcherIT_EERKT0_
FNDA:1,_ZN7testing15SafeMatcherCastIRKSt6vectorIlSaIlEENS_8internal18ElementsAreMatcherISt5tupleIJiiEEEEEENS_7MatcherIT_EERKT0_
FNDA:1,_ZN7testing15SafeMatcherCastIRKSt6vectorIlSaIlEENS_8internal18ElementsAreMatcherISt5tupleIJiiiEEEEEENS_7MatcherIT_EERKT0_
FNDA:1,_ZN7testing15SafeMatcherCastIRKSt6vectorIlSaIlEENS_8internal18ElementsAreMatcherISt5tupleIJiiiiiiiEEEEEENS_7MatcherIT_EERKT0_
FNDA:1,_ZN7testing15SafeMatcherCastIRKSt6vectorIlSaIlEENS_8internal18ElementsAreMatcherISt5tupleIJiiiiiiiiEEEEEENS_7MatcherIT_EERKT0_
FNDA:1,_ZN7testing15SafeMatcherCastIRKSt6vectorIlSaIlEENS_8internal18ElementsAreMatcherISt5tupleIJxxxxxxxxEEEEEENS_7MatcherIT_EERKT0_
FNDA:1,_ZN7testing15SafeMatcherCastIRKSt6vectorIlSaIlEENS_8internal23ElementsAreArrayMatcherIlEEEENS_7MatcherIT_EERKT0_
FNDA:0,_ZN7testing15SafeMatcherCastIRKdNS_8internal15VariadicMatcherINS3_16AllOfMatcherImplEJNS3_9GtMatcherIdEENS3_9LtMatcherIiEEEEEEENS_7MatcherIT_EERKT0_
FNDA:0,_ZN7testing15SafeMatcherCastIRKdNS_8internal9GtMatcherIdEEEENS_7MatcherIT_EERKT0_
FNDA:0,_ZN7testing15SafeMatcherCastIRKdNS_8internal9LtMatcherIiEEEENS_7MatcherIT_EERKT0_
FNDA:0,_ZN7testing8internal15PrintIfNotEmptyERKNSt7__cxx1112basic_stringIcSt11char_traitsIcESaIcEEEPSo
FNDA:0,_ZN7testing8internal18IsReadableTypeNameERKNSt7__cxx1112basic_stringIcSt11char_traitsIcESaIcEEE
FNDA:0,_ZN7testing8internal20MatchPrintAndExplainIKNSt7__cxx1112basic_stringIcSt11char_traitsIcESaIcEEERS8_EEbRT_RKNS_7MatcherIT0_EEPNS_19MatchResultListenerE
FNDA:0,_ZN7testing8internal20MatchPrintAndExplainIKPSt3mapINSt7__cxx1112basic_stringIcSt11char_traitsIcESaIcEEES8_St4lessIS8_ESaISt4pairIKS8_S8_EEERSH_EEbRT_RKNS_7MatcherIT0_EEPNS_19MatchResultListenerE
FNDA:0,_ZN7testing8internal20MatchPrintAndExplainIKSt3mapINSt7__cxx1112basic_stringIcSt11char_traitsIcESaIcEEES8_St4lessIS8_ESaISt4pairIKS8_S8_EEERSG_EEbRT_RKNS_7MatcherIT0_EEPNS_19MatchResultListenerE
FNDA:0,_ZN7testing8internal20MatchPrintAndExplainIKSt6vectorIaSaIaEERS5_EEbRT_RKNS_7MatcherIT0_EEPNS_19MatchResultListenerE
FNDA:0,_ZN7testing8internal20MatchPrintAndExplainIKSt6vectorIiSaIiEERS5_EEbRT_RKNS_7MatcherIT0_EEPNS_19MatchResultListenerE
FNDA:0,_ZN7testing8internal20MatchPrintAndExplainIKSt6vectorIlSaIlEERS5_EEbRT_RKNS_7MatcherIT0_EEPNS_19MatchResultListenerE
FNDA:0,_ZN7testing8internal20MatchPrintAndExplainIKdRS2_EEbRT_RKNS_7MatcherIT0_EEPNS_19MatchResultListenerE
FNDA:4,_ZN7testing8internal26TransformTupleValuesHelperISt5tupleIJNS0_11PairMatcherIPKcS5_EEEENS0_22CastAndAppendTransformIRKSt4pairIKNSt7__cxx1112basic_stringIcSt11char_traitsIcESaIcEEESF_EEESt20back_insert_iteratorISt6vectorINS_7MatcherISJ_EESaISO_EEEE3RunESK_RKS7_SR_
FNDA:2,_ZN7testing8internal26TransformTupleValuesHelperISt5tupleIJNS0_11PairMatcherIPKcS5_EES6_EENS0_22CastAndAppendTransformIRKSt4pairIKNSt7__cxx1112basic_stringIcSt11char_traitsIcESaIcEEESF_EEESt20back_insert_iteratorISt6vectorINS_7MatcherISJ_EESaISO_EEEE3RunESK_RKS7_SR_
FNDA:2,_ZN7testing8internal26TransformTupleValuesHelperISt5tupleIJaaaaEENS0_22CastAndAppendTransformIRKaEESt20back_insert_iteratorISt6vectorINS_7MatcherIS6_EESaISB_EEEE3RunES7_RKS3_SE_
FNDA:1,_ZN7testing8internal26TransformTupleValuesHelperISt5tupleIJiEENS0_22CastAndAppendTransformIRKiEESt20back_insert_iteratorISt6vectorINS_7MatcherIS6_EESaISB_EEEE3RunES7_RKS3_SE_
FNDA:1,_ZN7testing8internal26TransformTupleValuesHelperISt5tupleIJiiEENS0_22CastAndAppendTransformIRKiEESt20back_insert_iteratorISt6vectorINS_7MatcherIS6_EESaISB_EEEE3RunES7_RKS3_SE_
FNDA:1,_ZN7testing8internal26TransformTupleValuesHelperISt5tupleIJiiEENS0_22CastAndAppendTransformIRKlEESt20back_insert_iteratorISt6vectorINS_7MatcherIS6_EESaISB_EEEE3RunES7_RKS3_SE_
FNDA:2,_ZN7testing8internal26TransformTupleValuesHelperISt5tupleIJiiiEENS0_22CastAndAppendTransformIRKiEESt20back_insert_iteratorISt6vectorINS_7MatcherIS6_EESaISB_EEEE3RunES7_RKS3_SE_
FNDA:1,_ZN7testing8internal26TransformTupleValuesHelperISt5tupleIJiiiEENS0_22CastAndAppendTransformIRKlEESt20back_insert_iteratorISt6vectorINS_7MatcherIS6_EESaISB_EEEE3RunES7_RKS3_SE_
FNDA:1,_ZN7testing8internal26TransformTupleValuesHelperISt5tupleIJiiiiEENS0_22CastAndAppendTransformIRKiEESt20back_insert_iteratorISt6vectorINS_7MatcherIS6_EESaISB_EEEE3RunES7_RKS3_SE_
FNDA:2,_ZN7testing8internal26TransformTupleValuesHelperISt5tupleIJiiiiiEENS0_22CastAndAppendTransformIRKiEESt20back_insert_iteratorISt6vectorINS_7MatcherIS6_EESaISB_EEEE3RunES7_RKS3_SE_
FNDA:1,_ZN7testing8internal26TransformTupleValuesHelperISt5tupleIJiiiiiiiEENS0_22CastAndAppendTransformIRKlEESt20back_insert_iteratorISt6vectorINS_7MatcherIS6_EESaISB_EEEE3RunES7_RKS3_SE_
FNDA:1,_ZN7testing8internal26TransformTupleValuesHelperISt5tupleIJiiiiiiiiEENS0_22CastAndAppendTransformIRKiEESt20back_insert_iteratorISt6vectorINS_7MatcherIS6_EESaISB_EEEE3RunES7_RKS3_SE_
FNDA:1,_ZN7testing8internal26TransformTupleValuesHelperISt5tupleIJiiiiiiiiEENS0_22CastAndAppendTransformIRKlEESt20back_insert_iteratorISt6vectorINS_7MatcherIS6_EESaISB_EEEE3RunES7_RKS3_SE_
FNDA:2,_ZN7testing8internal26TransformTupleValuesHelperISt5tupleIJiiiiiiiiiEENS0_22CastAndAppendTransformIRKiEESt20back_insert_iteratorISt6vectorINS_7MatcherIS6_EESaISB_EEEE3RunES7_RKS3_SE_
FNDA:1,_ZN7testing8internal26TransformTupleValuesHelperISt5tupleIJxxxxxxxxEENS0_22CastAndAppendTransformIRKlEESt20back_insert_iteratorISt6vectorINS_7MatcherIS6_EESaISB_EEEE3RunES7_RKS3_SE_
FNDA:4,_ZNK7testing8internal26TransformTupleValuesHelperISt5tupleIJNS0_11PairMatcherIPKcS5_EEEENS0_22CastAndAppendTransformIRKSt4pairIKNSt7__cxx1112basic_stringIcSt11char_traitsIcESaIcEEESF_EEESt20back_insert_iteratorISt6vectorINS_7MatcherISJ_EESaISO_EEEE16IterateOverTupleIS7_Lm1EEclESK_RKS7_SR_
FNDA:2,_ZNK7testing8internal26TransformTupleValuesHelperISt5tupleIJNS0_11PairMatcherIPKcS5_EES6_EENS0_22CastAndAppendTransformIRKSt4pairIKNSt7__cxx1112basic_stringIcSt11char_traitsIcESaIcEEESF_EEESt20back_insert_iteratorISt6vectorINS_7MatcherISJ_EESaISO_EEEE16IterateOverTupleIS7_Lm1EEclESK_RKS7_SR_
FNDA:2,_ZNK7testing8internal26TransformTupleValuesHelperISt5tupleIJNS0_11PairMatcherIPKcS5_EES6_EENS0_22CastAndAppendTransformIRKSt4pairIKNSt7__cxx1112basic_stringIcSt11char_traitsIcESaIcEEESF_EEESt20back_insert_iteratorISt6vectorINS_7MatcherISJ_EESaISO_EEEE16IterateOverTupleIS7_Lm2EEclESK_RKS7_SR_
FNDA:2,_ZNK7testing8internal26TransformTupleValuesHelperISt5tupleIJaaaaEENS0_22CastAndAppendTransformIRKaEESt20back_insert_iteratorISt6vectorINS_7MatcherIS6_EESaISB_EEEE16IterateOverTupleIS3_Lm1EEclES7_RKS3_SE_
FNDA:2,_ZNK7testing8internal26TransformTupleValuesHelperISt5tupleIJaaaaEENS0_22CastAndAppendTransformIRKaEESt20back_insert_iteratorISt6vectorINS_7MatcherIS6_EESaISB_EEEE16IterateOverTupleIS3_Lm2EEclES7_RKS3_SE_
FNDA:2,_ZNK7testing8internal26TransformTupleValuesHelperISt5tupleIJaaaaEENS0_22CastAndAppendTransformIRKaEESt20back_insert_iteratorISt6vectorINS_7MatcherIS6_EESaISB_EEEE16IterateOverTupleIS3_Lm3EEclES7_RKS3_SE_
FNDA:2,_ZNK7testing8internal26TransformTupleValuesHelperISt5tupleIJaaaaEENS0_22CastAndAppendTransformIRKaEESt20back_insert_iteratorISt6vectorINS_7MatcherIS6_EESaISB_EEEE16IterateOverTupleIS3_Lm4EEclES7_RKS3_SE_
FNDA:1,_ZNK7testing8internal26TransformTupleValuesHelperISt5tupleIJiEENS0_22CastAndAppendTransformIRKiEESt20back_insert_iteratorISt6vectorINS_7MatcherIS6_EESaISB_EEEE16IterateOverTupleIS3_Lm1EEclES7_RKS3_SE_
FNDA:1,_ZNK7testing8internal26TransformTupleValuesHelperISt5tupleIJiiEENS0_22CastAndAppendTransformIRKiEESt20back_insert_iteratorISt6vectorINS_7MatcherIS6_EESaISB_EEEE16IterateOverTupleIS3_Lm1EEclES7_RKS3_SE_
FNDA:1,_ZNK7testing8internal26TransformTupleValuesHelperISt5tupleIJiiEENS0_22CastAndAppendTransformIRKiEESt20back_insert_iteratorISt6vectorINS_7MatcherIS6_EESaISB_EEEE16IterateOverTupleIS3_Lm2EEclES7_RKS3_SE_
FNDA:1,_ZNK7testing8internal26TransformTupleValuesHelperISt5tupleIJiiEENS0_22CastAndAppendTransformIRKlEESt20back_insert_iteratorISt6vectorINS_7MatcherIS6_EESaISB_EEEE16IterateOverTupleIS3_Lm1EEclES7_RKS3_SE_
FNDA:1,_ZNK7testing8internal26TransformTupleValuesHelperISt5tupleIJiiEENS0_22CastAndAppendTransformIRKlEESt20back_insert_iteratorISt6vectorINS_7MatcherIS6_EESaISB_EEEE16IterateOverTupleIS3_Lm2EEclES7_RKS3_SE_
FNDA:2,_ZNK7testing8internal26TransformTupleValuesHelperISt5tupleIJiiiEENS0_22CastAndAppendTransformIRKiEESt20back_insert_iteratorISt6vectorINS_7MatcherIS6_EESaISB_EEEE16IterateOverTupleIS3_Lm1EEclES7_RKS3_SE_
FNDA:2,_ZNK7testing8internal26TransformTupleValuesHelperISt5tupleIJiiiEENS0_22CastAndAppendTransformIRKiEESt20back_insert_iteratorISt6vectorINS_7MatcherIS6_EESaISB_EEEE16IterateOverTupleIS3_Lm2EEclES7_RKS3_SE_
FNDA:2,_ZNK7testing8internal26TransformTupleValuesHelperISt5tupleIJiiiEENS0_22CastAndAppendTransformIRKiEESt20back_insert_iteratorISt6vectorINS_7MatcherIS6_EESaISB_EEEE16IterateOverTupleIS3_Lm3EEclES7_RKS3_SE_
FNDA:1,_ZNK7testing8internal26TransformTupleValuesHelperISt5tupleIJiiiEENS0_22CastAndAppendTransformIRKlEESt20back_insert_iteratorISt6vectorINS_7MatcherIS6_EESaISB_EEEE16IterateOverTupleIS3_Lm1EEclES7_RKS3_SE_
FNDA:1,_ZNK7testing8internal26TransformTupleValuesHelperISt5tupleIJiiiEENS0_22CastAndAppendTransformIRKlEESt20back_insert_iteratorISt6vectorINS_7MatcherIS6_EESaISB_EEEE16IterateOverTupleIS3_Lm2EEclES7_RKS3_SE_
FNDA:1,_ZNK7testing8internal26TransformTupleValuesHelperISt5tupleIJiiiEENS0_22CastAndAppendTransformIRKlEESt20back_insert_iteratorISt6vectorINS_7MatcherIS6_EESaISB_EEEE16IterateOverTupleIS3_Lm3EEclES7_RKS3_SE_
FNDA:1,_ZNK7testing8internal26TransformTupleValuesHelperISt5tupleIJiiiiEENS0_22CastAndAppendTransformIRKiEESt20back_insert_iteratorISt6vectorINS_7MatcherIS6_EESaISB_EEEE16IterateOverTupleIS3_Lm1EEclES7_RKS3_SE_
FNDA:1,_ZNK7testing8internal26TransformTupleValuesHelperISt5tupleIJiiiiEENS0_22CastAndAppendTransformIRKiEESt20back_insert_iteratorISt6vectorINS_7MatcherIS6_EESaISB_EEEE16IterateOverTupleIS3_Lm2EEclES7_RKS3_SE_
FNDA:1,_ZNK7testing8internal26TransformTupleValuesHelperISt5tupleIJiiiiEENS0_22CastAndAppendTransformIRKiEESt20back_insert_iteratorISt6vectorINS_7MatcherIS6_EESaISB_EEEE16IterateOverTupleIS3_Lm3EEclES7_RKS3_SE_
FNDA:1,_ZNK7testing8internal26TransformTupleValuesHelperISt5tupleIJiiiiEENS0_22CastAndAppendTransformIRKiEESt20back_insert_iteratorISt6vectorINS_7MatcherIS6_EESaISB_EEEE16IterateOverTupleIS3_Lm4EEclES7_RKS3_SE_
FNDA:2,_ZNK7testing8internal26TransformTupleValuesHelperISt5tupleIJiiiiiEENS0_22CastAndAppendTransformIRKiEESt20back_insert_iteratorISt6vectorINS_7MatcherIS6_EESaISB_EEEE16IterateOverTupleIS3_Lm1EEclES7_RKS3_SE_
FNDA:2,_ZNK7testing8internal26TransformTupleValuesHelperISt5tupleIJiiiiiEENS0_22CastAndAppendTransformIRKiEESt20back_insert_iteratorISt6vectorINS_7MatcherIS6_EESaISB_EEEE16IterateOverTupleIS3_Lm2EEclES7_RKS3_SE_
FNDA:2,_ZNK7testing8internal26TransformTupleValuesHelperISt5tupleIJiiiiiEENS0_22CastAndAppendTransformIRKiEESt20back_insert_iteratorISt6vectorINS_7MatcherIS6_EESaISB_EEEE16IterateOverTupleIS3_Lm3EEclES7_RKS3_SE_
FNDA:2,_ZNK7testing8internal26TransformTupleValuesHelperISt5tupleIJiiiiiEENS0_22CastAndAppendTransformIRKiEESt20back_insert_iteratorISt6vectorINS_7MatcherIS6_EESaISB_EEEE16IterateOverTupleIS3_Lm4EEclES7_RKS3_SE_
FNDA:2,_ZNK7testing8internal26TransformTupleValuesHelperISt5tupleIJiiiiiEENS0_22CastAndAppendTransformIRKiEESt20back_insert_iteratorISt6vectorINS_7MatcherIS6_EESaISB_EEEE16IterateOverTupleIS3_Lm5EEclES7_RKS3_SE_
FNDA:1,_ZNK7testing8internal26TransformTupleValuesHelperISt5tupleIJiiiiiiiEENS0_22CastAndAppendTransformIRKlEESt20back_insert_iteratorISt6vectorINS_7MatcherIS6_EESaISB_EEEE16IterateOverTupleIS3_Lm1EEclES7_RKS3_SE_
FNDA:1,_ZNK7testing8internal26TransformTupleValuesHelperISt5tupleIJiiiiiiiEENS0_22CastAndAppendTransformIRKlEESt20back_insert_iteratorISt6vectorINS_7MatcherIS6_EESaISB_EEEE16IterateOverTupleIS3_Lm2EEclES7_RKS3_SE_
FNDA:1,_ZNK7testing8internal26TransformTupleValuesHelperISt5tupleIJiiiiiiiEENS0_22CastAndAppendTransformIRKlEESt20back_insert_iteratorISt6vectorINS_7MatcherIS6_EESaISB_EEEE16IterateOverTupleIS3_Lm3EEclES7_RKS3_SE_
FNDA:1,_ZNK7testing8internal26TransformTupleValuesHelperISt5tupleIJiiiiiiiEENS0_22CastAndAppendTransformIRKlEESt20back_insert_iteratorISt6vectorINS_7MatcherIS6_EESaISB_EEEE16IterateOverTupleIS3_Lm4EEclES7_RKS3_SE_
FNDA:1,_ZNK7testing8internal26TransformTupleValuesHelperISt5tupleIJiiiiiiiEENS0_22CastAndAppendTransformIRKlEESt20back_insert_iteratorISt6vectorINS_7MatcherIS6_EESaISB_EEEE16IterateOverTupleIS3_Lm5EEclES7_RKS3_SE_
FNDA:1,_ZNK7testing8internal26TransformTupleValuesHelperISt5tupleIJiiiiiiiEENS0_22CastAndAppendTransformIRKlEESt20back_insert_iteratorISt6vectorINS_7MatcherIS6_EESaISB_EEEE16IterateOverTupleIS3_Lm6EEclES7_RKS3_SE_
FNDA:1,_ZNK7testing8internal26TransformTupleValuesHelperISt5tupleIJiiiiiiiEENS0_22CastAndAppendTransformIRKlEESt20back_insert_iteratorISt6vectorINS_7MatcherIS6_EESaISB_EEEE16IterateOverTupleIS3_Lm7EEclES7_RKS3_SE_
FNDA:1,_ZNK7testing8internal26TransformTupleValuesHelperISt5tupleIJiiiiiiiiEENS0_22CastAndAppendTransformIRKiEESt20back_insert_iteratorISt6vectorINS_7MatcherIS6_EESaISB_EEEE16IterateOverTupleIS3_Lm1EEclES7_RKS3_SE_
FNDA:1,_ZNK7testing8internal26TransformTupleValuesHelperISt5tupleIJiiiiiiiiEENS0_22CastAndAppendTransformIRKiEESt20back_insert_iteratorISt6vectorINS_7MatcherIS6_EESaISB_EEEE16IterateOverTupleIS3_Lm2EEclES7_RKS3_SE_
FNDA:1,_ZNK7testing8internal26TransformTupleValuesHelperISt5tupleIJiiiiiiiiEENS0_22CastAndAppendTransformIRKiEESt20back_insert_iteratorISt6vectorINS_7MatcherIS6_EESaISB_EEEE16IterateOverTupleIS3_Lm3EEclES7_RKS3_SE_
FNDA:1,_ZNK7testing8internal26TransformTupleValuesHelperISt5tupleIJiiiiiiiiEENS0_22CastAndAppendTransformIRKiEESt20back_insert_iteratorISt6vectorINS_7MatcherIS6_EESaISB_EEEE16IterateOverTupleIS3_Lm4EEclES7_RKS3_SE_
FNDA:1,_ZNK7testing8internal26TransformTupleValuesHelperISt5tupleIJiiiiiiiiEENS0_22CastAndAppendTransformIRKiEESt20back_insert_iteratorISt6vectorINS_7MatcherIS6_EESaISB_EEEE16IterateOverTupleIS3_Lm5EEclES7_RKS3_SE_
FNDA:1,_ZNK7testing8internal26TransformTupleValuesHelperISt5tupleIJiiiiiiiiEENS0_22CastAndAppendTransformIRKiEESt20back_insert_iteratorISt6vectorINS_7MatcherIS6_EESaISB_EEEE16IterateOverTupleIS3_Lm6EEclES7_RKS3_SE_
FNDA:1,_ZNK7testing8internal26TransformTupleValuesHelperISt5tupleIJiiiiiiiiEENS0_22CastAndAppendTransformIRKiEESt20back_insert_iteratorISt6vectorINS_7MatcherIS6_EESaISB_EEEE16IterateOverTupleIS3_Lm7EEclES7_RKS3_SE_
FNDA:1,_ZNK7testing8internal26TransformTupleValuesHelperISt5tupleIJiiiiiiiiEENS0_22CastAndAppendTransformIRKiEESt20back_insert_iteratorISt6vectorINS_7MatcherIS6_EESaISB_EEEE16IterateOverTupleIS3_Lm8EEclES7_RKS3_SE_
FNDA:1,_ZNK7testing8internal26TransformTupleValuesHelperISt5tupleIJiiiiiiiiEENS0_22CastAndAppendTransformIRKlEESt20back_insert_iteratorISt6vectorINS_7MatcherIS6_EESaISB_EEEE16IterateOverTupleIS3_Lm1EEclES7_RKS3_SE_
FNDA:1,_ZNK7testing8internal26TransformTupleValuesHelperISt5tupleIJiiiiiiiiEENS0_22CastAndAppendTransformIRKlEESt20back_insert_iteratorISt6vectorINS_7MatcherIS6_EESaISB_EEEE16IterateOverTupleIS3_Lm2EEclES7_RKS3_SE_
FNDA:1,_ZNK7testing8internal26TransformTupleValuesHelperISt5tupleIJiiiiiiiiEENS0_22CastAndAppendTransformIRKlEESt20back_insert_iteratorISt6vectorINS_7MatcherIS6_EESaISB_EEEE16IterateOverTupleIS3_Lm3EEclES7_RKS3_SE_
FNDA:1,_ZNK7testing8internal26TransformTupleValuesHelperISt5tupleIJiiiiiiiiEENS0_22CastAndAppendTransformIRKlEESt20back_insert_iteratorISt6vectorINS_7MatcherIS6_EESaISB_EEEE16IterateOverTupleIS3_Lm4EEclES7_RKS3_SE_
FNDA:1,_ZNK7testing8internal26TransformTupleValuesHelperISt5tupleIJiiiiiiiiEENS0_22CastAndAppendTransformIRKlEESt20back_insert_iteratorISt6vectorINS_7MatcherIS6_EESaISB_EEEE16IterateOverTupleIS3_Lm5EEclES7_RKS3_SE_
FNDA:1,_ZNK7testing8internal26TransformTupleValuesHelperISt5tupleIJiiiiiiiiEENS0_22CastAndAppendTransformIRKlEESt20back_insert_iteratorISt6vectorINS_7MatcherIS6_EESaISB_EEEE16IterateOverTupleIS3_Lm6EEclES7_RKS3_SE_
FNDA:1,_ZNK7testing8internal26TransformTupleValuesHelperISt5tupleIJiiiiiiiiEENS0_22CastAndAppendTransformIRKlEESt20back_insert_iteratorISt6vectorINS_7MatcherIS6_EESaISB_EEEE16IterateOverTupleIS3_Lm7EEclES7_RKS3_SE_
FNDA:1,_ZNK7testing8internal26TransformTupleValuesHelperISt5tupleIJiiiiiiiiEENS0_22CastAndAppendTransformIRKlEESt20back_insert_iteratorISt6vectorINS_7MatcherIS6_EESaISB_EEEE16IterateOverTupleIS3_Lm8EEclES7_RKS3_SE_
FNDA:2,_ZNK7testing8internal26TransformTupleValuesHelperISt5tupleIJiiiiiiiiiEENS0_22CastAndAppendTransformIRKiEESt20back_insert_iteratorISt6vectorINS_7MatcherIS6_EESaISB_EEEE16IterateOverTupleIS3_Lm1EEclES7_RKS3_SE_
FNDA:2,_ZNK7testing8internal26TransformTupleValuesHelperISt5tupleIJiiiiiiiiiEENS0_22CastAndAppendTransformIRKiEESt20back_insert_iteratorISt6vectorINS_7MatcherIS6_EESaISB_EEEE16IterateOverTupleIS3_Lm2EEclES7_RKS3_SE_
FNDA:2,_ZNK7testing8internal26TransformTupleValuesHelperISt5tupleIJiiiiiiiiiEENS0_22CastAndAppendTransformIRKiEESt20back_insert_iteratorISt6vectorINS_7MatcherIS6_EESaISB_EEEE16IterateOverTupleIS3_Lm3EEclES7_RKS3_SE_
FNDA:2,_ZNK7testing8internal26TransformTupleValuesHelperISt5tupleIJiiiiiiiiiEENS0_22CastAndAppendTransformIRKiEESt20back_insert_iteratorISt6vectorINS_7MatcherIS6_EESaISB_EEEE16IterateOverTupleIS3_Lm4EEclES7_RKS3_SE_
FNDA:2,_ZNK7testing8internal26TransformTupleValuesHelperISt5tupleIJiiiiiiiiiEENS0_22CastAndAppendTransformIRKiEESt20back_insert_iteratorISt6vectorINS_7MatcherIS6_EESaISB_EEEE16IterateOverTupleIS3_Lm5EEclES7_RKS3_SE_
FNDA:2,_ZNK7testing8internal26TransformTupleValuesHelperISt5tupleIJiiiiiiiiiEENS0_22CastAndAppendTransformIRKiEESt20back_insert_iteratorISt6vectorINS_7MatcherIS6_EESaISB_EEEE16IterateOverTupleIS3_Lm6EEclES7_RKS3_SE_
FNDA:2,_ZNK7testing8internal26TransformTupleValuesHelperISt5tupleIJiiiiiiiiiEENS0_22CastAndAppendTransformIRKiEESt20back_insert_iteratorISt6vectorINS_7MatcherIS6_EESaISB_EEEE16IterateOverTupleIS3_Lm7EEclES7_RKS3_SE_
FNDA:2,_ZNK7testing8internal26TransformTupleValuesHelperISt5tupleIJiiiiiiiiiEENS0_22CastAndAppendTransformIRKiEESt20back_insert_iteratorISt6vectorINS_7MatcherIS6_EESaISB_EEEE16IterateOverTupleIS3_Lm8EEclES7_RKS3_SE_
FNDA:2,_ZNK7testing8internal26TransformTupleValuesHelperISt5tupleIJiiiiiiiiiEENS0_22CastAndAppendTransformIRKiEESt20back_insert_iteratorISt6vectorINS_7MatcherIS6_EESaISB_EEEE16IterateOverTupleIS3_Lm9EEclES7_RKS3_SE_
FNDA:1,_ZNK7testing8internal26TransformTupleValuesHelperISt5tupleIJxxxxxxxxEENS0_22CastAndAppendTransformIRKlEESt20back_insert_iteratorISt6vectorINS_7MatcherIS6_EESaISB_EEEE16IterateOverTupleIS3_Lm1EEclES7_RKS3_SE_
FNDA:1,_ZNK7testing8internal26TransformTupleValuesHelperISt5tupleIJxxxxxxxxEENS0_22CastAndAppendTransformIRKlEESt20back_insert_iteratorISt6vectorINS_7MatcherIS6_EESaISB_EEEE16IterateOverTupleIS3_Lm2EEclES7_RKS3_SE_
FNDA:1,_ZNK7testing8internal26TransformTupleValuesHelperISt5tupleIJxxxxxxxxEENS0_22CastAndAppendTransformIRKlEESt20back_insert_iteratorISt6vectorINS_7MatcherIS6_EESaISB_EEEE16IterateOverTupleIS3_Lm3EEclES7_RKS3_SE_
FNDA:1,_ZNK7testing8internal26TransformTupleValuesHelperISt5tupleIJxxxxxxxxEENS0_22CastAndAppendTransformIRKlEESt20back_insert_iteratorISt6vectorINS_7MatcherIS6_EESaISB_EEEE16IterateOverTupleIS3_Lm4EEclES7_RKS3_SE_
FNDA:1,_ZNK7testing8internal26TransformTupleValuesHelperISt5tupleIJxxxxxxxxEENS0_22CastAndAppendTransformIRKlEESt20back_insert_iteratorISt6vectorINS_7MatcherIS6_EESaISB_EEEE16IterateOverTupleIS3_Lm5EEclES7_RKS3_SE_
FNDA:1,_ZNK7testing8internal26TransformTupleValuesHelperISt5tupleIJxxxxxxxxEENS0_22CastAndAppendTransformIRKlEESt20back_insert_iteratorISt6vectorINS_7MatcherIS6_EESaISB_EEEE16IterateOverTupleIS3_Lm6EEclES7_RKS3_SE_
FNDA:1,_ZNK7testing8internal26TransformTupleValuesHelperISt5tupleIJxxxxxxxxEENS0_22CastAndAppendTransformIRKlEESt20back_insert_iteratorISt6vectorINS_7MatcherIS6_EESaISB_EEEE16IterateOverTupleIS3_Lm7EEclES7_RKS3_SE_
FNDA:1,_ZNK7testing8internal26TransformTupleValuesHelperISt5tupleIJxxxxxxxxEENS0_22CastAndAppendTransformIRKlEESt20back_insert_iteratorISt6vectorINS_7MatcherIS6_EESaISB_EEEE16IterateOverTupleIS3_Lm8EEclES7_RKS3_SE_
FNDA:4,_ZNK7testing8internal26TransformTupleValuesHelperISt5tupleIJNS0_11PairMatcherIPKcS5_EEEENS0_22CastAndAppendTransformIRKSt4pairIKNSt7__cxx1112basic_stringIcSt11char_traitsIcESaIcEEESF_EEESt20back_insert_iteratorISt6vectorINS_7MatcherISJ_EESaISO_EEEE16IterateOverTupleIS7_Lm0EEclESK_RKS7_SR_
FNDA:2,_ZNK7testing8internal26TransformTupleValuesHelperISt5tupleIJNS0_11PairMatcherIPKcS5_EES6_EENS0_22CastAndAppendTransformIRKSt4pairIKNSt7__cxx1112basic_stringIcSt11char_traitsIcESaIcEEESF_EEESt20back_insert_iteratorISt6vectorINS_7MatcherISJ_EESaISO_EEEE16IterateOverTupleIS7_Lm0EEclESK_RKS7_SR_
FNDA:2,_ZNK7testing8internal26TransformTupleValuesHelperISt5tupleIJaaaaEENS0_22CastAndAppendTransformIRKaEESt20back_insert_iteratorISt6vectorINS_7MatcherIS6_EESaISB_EEEE16IterateOverTupleIS3_Lm0EEclES7_RKS3_SE_
FNDA:1,_ZNK7testing8internal26TransformTupleValuesHelperISt5tupleIJiEENS0_22CastAndAppendTransformIRKiEESt20back_insert_iteratorISt6vectorINS_7MatcherIS6_EESaISB_EEEE16IterateOverTupleIS3_Lm0EEclES7_RKS3_SE_
FNDA:1,_ZNK7testing8internal26TransformTupleValuesHelperISt5tupleIJiiEENS0_22CastAndAppendTransformIRKiEESt20back_insert_iteratorISt6vectorINS_7MatcherIS6_EESaISB_EEEE16IterateOverTupleIS3_Lm0EEclES7_RKS3_SE_
FNDA:1,_ZNK7testing8internal26TransformTupleValuesHelperISt5tupleIJiiEENS0_22CastAndAppendTransformIRKlEESt20back_insert_iteratorISt6vectorINS_7MatcherIS6_EESaISB_EEEE16IterateOverTupleIS3_Lm0EEclES7_RKS3_SE_
FNDA:2,_ZNK7testing8internal26TransformTupleValuesHelperISt5tupleIJiiiEENS0_22CastAndAppendTransformIRKiEESt20back_insert_iteratorISt6vectorINS_7MatcherIS6_EESaISB_EEEE16IterateOverTupleIS3_Lm0EEclES7_RKS3_SE_
FNDA:1,_ZNK7testing8internal26TransformTupleValuesHelperISt5tupleIJiiiEENS0_22CastAndAppendTransformIRKlEESt20back_insert_iteratorISt6vectorINS_7MatcherIS6_EESaISB_EEEE16IterateOverTupleIS3_Lm0EEclES7_RKS3_SE_
FNDA:1,_ZNK7testing8internal26TransformTupleValuesHelperISt5tupleIJiiiiEENS0_22CastAndAppendTransformIRKiEESt20back_insert_iteratorISt6vectorINS_7MatcherIS6_EESaISB_EEEE16IterateOverTupleIS3_Lm0EEclES7_RKS3_SE_
FNDA:2,_ZNK7testing8internal26TransformTupleValuesHelperISt5tupleIJiiiiiEENS0_22CastAndAppendTransformIRKiEESt20back_insert_iteratorISt6vectorINS_7MatcherIS6_EESaISB_EEEE16IterateOverTupleIS3_Lm0EEclES7_RKS3_SE_
FNDA:1,_ZNK7testing8internal26TransformTupleValuesHelperISt5tupleIJiiiiiiiEENS0_22CastAndAppendTransformIRKlEESt20back_insert_iteratorISt6vectorINS_7MatcherIS6_EESaISB_EEEE16IterateOverTupleIS3_Lm0EEclES7_RKS3_SE_
FNDA:1,_ZNK7testing8internal26TransformTupleValuesHelperISt5tupleIJiiiiiiiiEENS0_22CastAndAppendTransformIRKiEESt20back_insert_iteratorISt6vectorINS_7MatcherIS6_EESaISB_EEEE16IterateOverTupleIS3_Lm0EEclES7_RKS3_SE_
FNDA:1,_ZNK7testing8internal26TransformTupleValuesHelperISt5tupleIJiiiiiiiiEENS0_22CastAndAppendTransformIRKlEESt20back_insert_iteratorISt6vectorINS_7MatcherIS6_EESaISB_EEEE16IterateOverTupleIS3_Lm0EEclES7_RKS3_SE_
FNDA:2,_ZNK7testing8internal26TransformTupleValuesHelperISt5tupleIJiiiiiiiiiEENS0_22CastAndAppendTransformIRKiEESt20back_insert_iteratorISt6vectorINS_7MatcherIS6_EESaISB_EEEE16IterateOverTupleIS3_Lm0EEclES7_RKS3_SE_
FNDA:1,_ZNK7testing8internal26TransformTupleValuesHelperISt5tupleIJxxxxxxxxEENS0_22CastAndAppendTransformIRKlEESt20back_insert_iteratorISt6vectorINS_7MatcherIS6_EESaISB_EEEE16IterateOverTupleIS3_Lm0EEclES7_RKS3_SE_
FNDA:4,_ZN7testing8internal20TransformTupleValuesISt5tupleIJNS0_11PairMatcherIPKcS5_EEEENS0_22CastAndAppendTransformIRKSt4pairIKNSt7__cxx1112basic_stringIcSt11char_traitsIcESaIcEEESF_EEESt20back_insert_iteratorISt6vectorINS_7MatcherISJ_EESaISO_EEEEET1_T0_RKT_SS_
FNDA:2,_ZN7testing8internal20TransformTupleValuesISt5tupleIJNS0_11PairMatcherIPKcS5_EES6_EENS0_22CastAndAppendTransformIRKSt4pairIKNSt7__cxx1112basic_stringIcSt11char_traitsIcESaIcEEESF_EEESt20back_insert_iteratorISt6vectorINS_7MatcherISJ_EESaISO_EEEEET1_T0_RKT_SS_
FNDA:2,_ZN7testing8internal20TransformTupleValuesISt5tupleIJaaaaEENS0_22CastAndAppendTransformIRKaEESt20back_insert_iteratorISt6vectorINS_7MatcherIS6_EESaISB_EEEEET1_T0_RKT_SF_
FNDA:1,_ZN7testing8internal20TransformTupleValuesISt5tupleIJiEENS0_22CastAndAppendTransformIRKiEESt20back_insert_iteratorISt6vectorINS_7MatcherIS6_EESaISB_EEEEET1_T0_RKT_SF_
FNDA:1,_ZN7testing8internal20TransformTupleValuesISt5tupleIJiiEENS0_22CastAndAppendTransformIRKiEESt20back_insert_iteratorISt6vectorINS_7MatcherIS6_EESaISB_EEEEET1_T0_RKT_SF_
FNDA:1,_ZN7testing8internal20TransformTupleValuesISt5tupleIJiiEENS0_22CastAndAppendTransformIRKlEESt20back_insert_iteratorISt6vectorINS_7MatcherIS6_EESaISB_EEEEET1_T0_RKT_SF_
FNDA:2,_ZN7testing8internal20TransformTupleValuesISt5tupleIJiiiEENS0_22CastAndAppendTransformIRKiEESt20back_insert_iteratorISt6vectorINS_7MatcherIS6_EESaISB_EEEEET1_T0_RKT_SF_
FNDA:1,_ZN7testing8internal20TransformTupleValuesISt5tupleIJiiiEENS0_22CastAndAppendTransformIRKlEESt20back_insert_iteratorISt6vectorINS_7MatcherIS6_EESaISB_EEEEET1_T0_RKT_SF_
FNDA:1,_ZN7testing8internal20TransformTupleValuesISt5tupleIJiiiiEENS0_22CastAndAppendTransformIRKiEESt20back_insert_iteratorISt6vectorINS_7MatcherIS6_EESaISB_EEEEET1_T0_RKT_SF_
FNDA:2,_ZN7testing8internal20TransformTupleValuesISt5tupleIJiiiiiEENS0_22CastAndAppendTransformIRKiEESt20back_insert_iteratorISt6vectorINS_7MatcherIS6_EESaISB_EEEEET1_T0_RKT_SF_
FNDA:1,_ZN7testing8internal20TransformTupleValuesISt5tupleIJiiiiiiiEENS0_22CastAndAppendTransformIRKlEESt20back_insert_iteratorISt6vectorINS_7MatcherIS6_EESaISB_EEEEET1_T0_RKT_SF_
FNDA:1,_ZN7testing8internal20TransformTupleValuesISt5tupleIJiiiiiiiiEENS0_22CastAndAppendTransformIRKiEESt20back_insert_iteratorISt6vectorINS_7MatcherIS6_EESaISB_EEEEET1_T0_RKT_SF_
FNDA:1,_ZN7testing8internal20TransformTupleValuesISt5tupleIJiiiiiiiiEENS0_22CastAndAppendTransformIRKlEESt20back_insert_iteratorISt6vectorINS_7MatcherIS6_EESaISB_EEEEET1_T0_RKT_SF_
FNDA:2,_ZN7testing8internal20TransformTupleValuesISt5tupleIJiiiiiiiiiEENS0_22CastAndAppendTransformIRKiEESt20back_insert_iteratorISt6vectorINS_7MatcherIS6_EESaISB_EEEEET1_T0_RKT_SF_
FNDA:1,_ZN7testing8internal20TransformTupleValuesISt5tupleIJxxxxxxxxEENS0_22CastAndAppendTransformIRKlEESt20back_insert_iteratorISt6vectorINS_7MatcherIS6_EESaISB_EEEEET1_T0_RKT_SF_
FNF:406
FNH:352
DA:308,0
DA:311,0
DA:341,168
DA:355,168
DA:357,336
DA:362,168
DA:373,168
DA:460,93
DA:514,261
DA:515,261
DA:521,58
DA:522,58
DA:565,0
DA:567,0
DA:568,0
DA:570,0
DA:575,0
DA:578,0
DA:579,0
DA:588,0
DA:590,0
DA:593,0
DA:596,0
DA:597,0
DA:599,0
DA:601,0
DA:602,0
DA:603,0
DA:605,0
DA:607,0
DA:608,0
DA:713,23
DA:714,23
DA:720,93
DA:721,93
DA:722,93
DA:727,23
DA:728,23
DA:737,23
DA:738,23
DA:1280,0
DA:1281,0
DA:1283,0
DA:1284,0
DA:1285,0
DA:1286,0
DA:1287,0
DA:1289,0
DA:1290,0
DA:1292,0
DA:1293,0
DA:1294,0
DA:1295,0
DA:1296,0
DA:1298,0
DA:1299,0
DA:1301,0
DA:1305,0
DA:1307,0
DA:1308,0
DA:1309,0
DA:1310,0
DA:1311,0
DA:1313,0
DA:1314,0
DA:1315,0
DA:1316,0
DA:1318,0
DA:1320,0
DA:1321,0
DA:1326,0
DA:1327,0
DA:1328,0
DA:1341,0
DA:1342,0
DA:1344,0
DA:1353,0
DA:1354,0
DA:1355,0
DA:1356,0
DA:1357,0
DA:1361,0
DA:1363,0
DA:1364,0
DA:1365,0
DA:1368,0
DA:1370,0
DA:1573,42
DA:1579,42
DA:1591,42
DA:1595,42
DA:1596,42
DA:1599,0
DA:1601,0
DA:1602,0
DA:1605,0
DA:1606,0
DA:1607,0
DA:1610,0
DA:1611,0
DA:1612,42
DA:1623,42
DA:1625,42
DA:2933,12
DA:2934,12
DA:2942,8
DA:2943,8
DA:3061,8
DA:3062,8
DA:3064,8
DA:3065,16
DA:3068,0
DA:3069,0
DA:3070,0
DA:3071,0
DA:3072,0
DA:3073,0
DA:3076,0
DA:3077,0
DA:3078,0
DA:3079,0
DA:3080,0
DA:3081,0
DA:3085,12
DA:3087,12
DA:3090,20
DA:3091,20
DA:3093,0
DA:3094,0
DA:3096,0
DA:3097,0
DA:3098,0
DA:3100,0
DA:3101,0
DA:3103,0
DA:3104,0
DA:3105,0
DA:3107,0
DA:3109,0
DA:3110,0
DA:3113,0
DA:3116,0
DA:3117,0
DA:3118,0
DA:3120,0
DA:3121,0
DA:3122,0
DA:3123,0
DA:3125,0
DA:3127,0
DA:3129,0
DA:3139,8
DA:3140,8
DA:3143,8
DA:3145,8
DA:3378,21
DA:3379,126
DA:3380,105
DA:3382,21
DA:3385,0
DA:3386,0
DA:3387,0
DA:3388,0
DA:3389,0
DA:3390,0
DA:3392,0
DA:3393,0
DA:3394,0
DA:3395,0
DA:3396,0
DA:3397,0
DA:3401,0
DA:3404,0
DA:3405,0
DA:3406,0
DA:3407,0
DA:3410,0
DA:3411,0
DA:3412,0
DA:3413,0
DA:3414,0
DA:3415,0
DA:3420,21
DA:3425,21
DA:3428,21
DA:3429,21
DA:3430,21
DA:3431,21
DA:3432,21
DA:3437,126
DA:3439,105
DA:3440,0
DA:3441,0
DA:3442,0
DA:3443,0
DA:3444,105
DA:3447,105
DA:3448,0
DA:3449,0
DA:3457,21
DA:3458,21
DA:3459,0
DA:3462,21
DA:3467,0
DA:3468,0
DA:3470,0
DA:3473,21
DA:3475,0
DA:3476,0
DA:3477,0
DA:3479,0
DA:3484,21
DA:3485,0
DA:3486,0
DA:3487,0
DA:3488,0
DA:3489,0
DA:3490,0
DA:3492,0
DA:3493,0
DA:3497,21
DA:3498,21
DA:3501,0
DA:3502,0
DA:3505,147
DA:3516,3
DA:3517,3
DA:3518,3
DA:3519,6
DA:3521,31
DA:3522,38
DA:3523,16
DA:3524,16
DA:3526,9
DA:3527,9
DA:3528,9
DA:3540,25
DA:3541,25
DA:3573,3
DA:3575,3
DA:3595,5
DA:3597,0
DA:3598,0
DA:3601,15
DA:3622,3
DA:3624,3
DA:3625,8
DA:3626,5
DA:3628,8
DA:3629,5
DA:3631,3
DA:3634,0
DA:3635,0
DA:3639,0
DA:3640,0
DA:3643,3
DA:3645,3
DA:3646,3
DA:3647,3
DA:3651,6
DA:3652,6
DA:3653,3
DA:3657,3
DA:3660,3
DA:3661,3
DA:3662,3
DA:3663,3
DA:3664,8
DA:3665,5
DA:3666,0
DA:3668,14
DA:3669,9
DA:3670,9
DA:3674,3
DA:3675,3
DA:3676,8
DA:3677,14
DA:3678,9
DA:3681,6
DA:3682,3
DA:3692,93
DA:3693,93
DA:3701,3
DA:3702,3
DA:3705,3
DA:3710,3
DA:3711,3
DA:3712,3
DA:3715,6
DA:3717,9
DA:3718,3
DA:3728,20
DA:3731,20
DA:3741,20
DA:3742,20
DA:3743,20
DA:3745,40
DA:3746,60
DA:3747,20
DA:3779,3
DA:3782,1
DA:3787,2
DA:3788,3
DA:4153,1
DA:4155,1
DA:4171,1
DA:4173,1
DA:4996,8
DA:4998,8
DA:4999,8
DA:5098,20
DA:5101,20
DA:5107,3
DA:5110,3
DA:5115,0
DA:5118,0
LF:316
LH:148
end_of_record
TN:
SF:/home/alex/labs3/build/_deps/googletest-src/googlemock/include/gmock/gmock-spec-builders.h
FN:486,486,_ZN7testing11ExpectationC2ERKS0_
FN:488,488,_ZN7testing11ExpectationaSERKS0_
FN:507,509,_ZNK7testing11ExpectationeqERKS0_
FN:511,511,_ZNK7testing11ExpectationneERKS0_
FN:528,530,_ZNK7testing11Expectation4LessclERKS0_S3_
FN:539,541,_ZNK7testing11Expectation16expectation_baseEv
FN:569,569,_ZN7testing14ExpectationSetC2Ev
FN:598,601,_ZN7testing14ExpectationSetpLERKNS_11ExpectationE
FN:605,605,_ZNK7testing14ExpectationSet5beginEv
FN:606,606,_ZNK7testing14ExpectationSet3endEv
FN:618,618,_ZN7testing8SequenceC2Ev
FN:693,693,_ZNK7testing8internal15ExpectationBase4fileEv
FN:694,694,_ZNK7testing8internal15ExpectationBase4lineEv
FN:695,695,_ZNK7testing8internal15ExpectationBase11source_textEv
FN:697,697,_ZNK7testing8internal15ExpectationBase11cardinalityEv
FN:700,702,_ZNK7testing8internal15ExpectationBase18DescribeLocationToEPSo
FN:748,751,_ZNK7testing8internal15ExpectationBase18ExpectSpecPropertyEbRKNSt7__cxx1112basic_stringIcSt11char_traitsIcESaIcEEE
FN:774,777,_ZNK7testing8internal15ExpectationBase10is_retiredEv
FN:780,783,_ZN7testing8internal15ExpectationBase6RetireEv
FN:787,787,_ZNK7testing8internal15ExpectationBase14GetDescriptionB5cxx11Ev
FN:790,793,_ZNK7testing8internal15ExpectationBase11IsSatisfiedEv
FN:796,799,_ZNK7testing8internal15ExpectationBase11IsSaturatedEv
FN:802,805,_ZNK7testing8internal15ExpectationBase15IsOverSaturatedEv
FN:817,820,_ZNK7testing8internal15ExpectationBase10call_countEv
FNDA:0,_ZN7testing11ExpectationC2ERKS0_
FNDA:0,_ZN7testing11ExpectationaSERKS0_
FNDA:0,_ZNK7testing11ExpectationeqERKS0_
FNDA:0,_ZNK7testing11ExpectationneERKS0_
FNDA:0,_ZNK7testing11Expectation4LessclERKS0_S3_
FNDA:0,_ZNK7testing11Expectation16expectation_baseEv
FNDA:0,_ZN7testing14ExpectationSetC2Ev
FNDA:0,_ZN7testing14ExpectationSetpLERKNS_11ExpectationE
FNDA:0,_ZNK7testing14ExpectationSet5beginEv
FNDA:0,_ZNK7testing14ExpectationSet3endEv
FNDA:0,_ZN7testing8SequenceC2Ev
FNDA:0,_ZNK7testing8internal15ExpectationBase4fileEv
FNDA:0,_ZNK7testing8internal15ExpectationBase4lineEv
FNDA:0,_ZNK7testing8internal15ExpectationBase11source_textEv
FNDA:0,_ZNK7testing8internal15ExpectationBase11cardinalityEv
FNDA:0,_ZNK7testing8internal15ExpectationBase18DescribeLocationToEPSo
FNDA:0,_ZNK7testing8internal15ExpectationBase18ExpectSpecPropertyEbRKNSt7__cxx1112basic_stringIcSt11char_traitsIcESaIcEEE
FNDA:0,_ZNK7testing8internal15ExpectationBase10is_retiredEv
FNDA:0,_ZN7testing8internal15ExpectationBase6RetireEv
FNDA:0,_ZNK7testing8internal15ExpectationBase14GetDescriptionB5cxx11Ev
FNDA:0,_ZNK7testing8internal15ExpectationBase11IsSatisfiedEv
FNDA:0,_ZNK7testing8internal15ExpectationBase11IsSaturatedEv
FNDA:0,_ZNK7testing8internal15ExpectationBase15IsOverSaturatedEv
FNDA:0,_ZNK7testing8internal15ExpectationBase10call_countEv
FNF:24
FNH:0
DA:486,0
DA:488,0
DA:507,0
DA:508,0
DA:511,0
DA:528,0
DA:529,0
DA:539,0
DA:540,0
DA:569,0
DA:598,0
DA:599,0
DA:600,0
DA:605,0
DA:606,0
DA:618,0
DA:693,0
DA:694,0
DA:695,0
DA:697,0
DA:700,0
DA:701,0
DA:702,0
DA:748,0
DA:750,0
DA:751,0
DA:774,0
DA:775,0
DA:776,0
DA:780,0
DA:781,0
DA:782,0
DA:783,0
DA:787,0
DA:790,0
DA:791,0
DA:792,0
DA:796,0
DA:797,0
DA:798,0
DA:802,0
DA:803,0
DA:804,0
DA:817,0
DA:818,0
DA:819,0
LF:46
LH:0
end_of_record
TN:
SF:/home/alex/labs3/build/_deps/googletest-src/googlemock/include/gmock/internal/gmock-internal-utils.h
FN:227,227,_ZN7testing8internal24FailureReporterInterfaceD0Ev
FN:227,227,_ZN7testing8internal24FailureReporterInterfaceD2Ev
FN:242,248,_ZN7testing8internal6AssertEbPKciRKNSt7__cxx1112basic_stringIcSt11char_traitsIcESaIcEEE
FN:255,261,_ZN7testing8internal6ExpectEbPKciRKNSt7__cxx1112basic_stringIcSt11char_traitsIcESaIcEEE
FN:300,300,_ZN7testing8internal15WithoutMatchersC2Ev
FN:347,351,_ZN7testing8internal16StlContainerViewISt3mapINSt7__cxx1112basic_stringIcSt11char_traitsIcESaIcEEES8_St4lessIS8_ESaISt4pairIKS8_S8_EEEE14ConstReferenceERKSF_
FN:347,351,_ZN7testing8internal16StlContainerViewISt6vectorIaSaIaEEE14ConstReferenceERKS4_
FN:347,351,_ZN7testing8internal16StlContainerViewISt6vectorIiSaIiEEE14ConstReferenceERKS4_
FN:347,351,_ZN7testing8internal16StlContainerViewISt6vectorIlSaIlEEE14ConstReferenceERKS4_
FNDA:0,_ZN7testing8internal24FailureReporterInterfaceD0Ev
FNDA:0,_ZN7testing8internal24FailureReporterInterfaceD2Ev
FNDA:0,_ZN7testing8internal6AssertEbPKciRKNSt7__cxx1112basic_stringIcSt11char_traitsIcESaIcEEE
FNDA:0,_ZN7testing8internal6ExpectEbPKciRKNSt7__cxx1112basic_stringIcSt11char_traitsIcESaIcEEE
FNDA:0,_ZN7testing8internal15WithoutMatchersC2Ev
FNDA:6,_ZN7testing8internal16StlContainerViewISt3mapINSt7__cxx1112basic_stringIcSt11char_traitsIcESaIcEEES8_St4lessIS8_ESaISt4pairIKS8_S8_EEEE14ConstReferenceERKSF_
FNDA:2,_ZN7testing8internal16StlContainerViewISt6vectorIaSaIaEEE14ConstReferenceERKS4_
FNDA:10,_ZN7testing8internal16StlContainerViewISt6vectorIiSaIiEEE14ConstReferenceERKS4_
FNDA:6,_ZN7testing8internal16StlContainerViewISt6vectorIlSaIlEEE14ConstReferenceERKS4_
FNF:9
FNH:4
DA:227,0
DA:242,0
DA:244,0
DA:245,0
DA:248,0
DA:255,0
DA:257,0
DA:258,0
DA:261,0
DA:300,0
DA:347,24
DA:350,24
LF:12
LH:2
end_of_record
TN:
SF:/home/alex/labs3/build/_deps/googletest-src/googlemock/src/gmock-cardinalities.cc
FN:107,124,_ZNK7testing12_GLOBAL__N_122BetweenCardinalityImpl10DescribeToEPSo
FN:129,136,_ZN7testing11Cardinality25DescribeActualCallCountToEiPSo
FN:139,139,_ZN7testing7AtLeastEi
FN:142,142,_ZN7testing6AtMostEi
FN:145,145,_ZN7testing9AnyNumberEv
FN:148,150,_ZN7testing7BetweenEii
FN:153,153,_ZN7testing7ExactlyEi
FN:52,68,_ZN7testing12_GLOBAL__N_122BetweenCardinalityImplC2Eii
FN:72,72,_ZNK7testing12_GLOBAL__N_122BetweenCardinalityImpl22ConservativeLowerBoundEv
FN:73,73,_ZNK7testing12_GLOBAL__N_122BetweenCardinalityImpl22ConservativeUpperBoundEv
FN:75,77,_ZNK7testing12_GLOBAL__N_122BetweenCardinalityImpl22IsSatisfiedByCallCountEi
FN:79,81,_ZNK7testing12_GLOBAL__N_122BetweenCardinalityImpl22IsSaturatedByCallCountEi
FN:94,104,_ZN7testing12_GLOBAL__N_111FormatTimesEi
FNDA:0,_ZNK7testing12_GLOBAL__N_122BetweenCardinalityImpl10DescribeToEPSo
FNDA:0,_ZN7testing11Cardinality25DescribeActualCallCountToEiPSo
FNDA:0,_ZN7testing7AtLeastEi
FNDA:0,_ZN7testing6AtMostEi
FNDA:0,_ZN7testing9AnyNumberEv
FNDA:0,_ZN7testing7BetweenEii
FNDA:0,_ZN7testing7ExactlyEi
FNDA:0,_ZN7testing12_GLOBAL__N_122BetweenCardinalityImplC2Eii
FNDA:0,_ZNK7testing12_GLOBAL__N_122BetweenCardinalityImpl22ConservativeLowerBoundEv
FNDA:0,_ZNK7testing12_GLOBAL__N_122BetweenCardinalityImpl22ConservativeUpperBoundEv
FNDA:0,_ZNK7testing12_GLOBAL__N_122BetweenCardinalityImpl22IsSatisfiedByCallCountEi
FNDA:0,_ZNK7testing12_GLOBAL__N_122BetweenCardinalityImpl22IsSaturatedByCallCountEi
FNDA:0,_ZN7testing12_GLOBAL__N_111FormatTimesEi
FNF:13
FNH:0
DA:52,0
DA:53,0
DA:54,0
DA:55,0
DA:57,0
DA:58,0
DA:59,0
DA:61,0
DA:62,0
DA:63,0
DA:64,0
DA:65,0
DA:66,0
DA:68,0
DA:72,0
DA:73,0
DA:75,0
DA:76,0
DA:79,0
DA:80,0
DA:94,0
DA:95,0
DA:96,0
DA:97,0
DA:98,0
DA:100,0
DA:101,0
DA:102,0
DA:103,0
DA:107,0
DA:108,0
DA:109,0
DA:110,0
DA:111,0
DA:112,0
DA:114,0
DA:116,0
DA:117,0
DA:118,0
DA:119,0
DA:122,0
DA:124,0
DA:129,0
DA:131,0
DA:132,0
DA:134,0
DA:136,0
DA:139,0
DA:142,0
DA:145,0
DA:148,0
DA:149,0
DA:153,0
LF:53
LH:0
end_of_record
TN:
SF:/home/alex/labs3/build/_deps/googletest-src/googlemock/src/gmock-internal-utils.cc
FN:103,111,_ZN7testing8internal25GoogleTestFailureReporter13ReportFailureENS0_24FailureReporterInterface11FailureTypeEPKciRKNSt7__cxx1112basic_stringIcSt11char_traitsIcESaIcEEE
FN:116,125,_ZN7testing8internal18GetFailureReporterEv
FN:132,144,_ZN7testing8internal12LogIsVisibleENS0_11LogSeverityE
FN:153,188,_ZN7testing8internal3LogENS0_11LogSeverityERKNSt7__cxx1112basic_stringIcSt11char_traitsIcESaIcEEEi
FN:190,190,_ZN7testing8internal18GetWithoutMatchersEv
FN:192,200,_ZN7testing8internal16IllegalDoDefaultEPKci
FN:228,254,_ZN7testing8internal14Base64UnescapeERKNSt7__cxx1112basic_stringIcSt11char_traitsIcESaIcEEEPS6_
FN:58,74,_ZN7testing8internal19JoinAsKeyValueTupleERKSt6vectorIPKcSaIS3_EERKS1_INSt7__cxx1112basic_stringIcSt11char_traitsIcESaIcEEESaISD_EE
FN:64,66,_ZZN7testing8internal19JoinAsKeyValueTupleERKSt6vectorIPKcSaIS3_EERKS1_INSt7__cxx1112basic_stringIcSt11char_traitsIcESaIcEEESaISD_EEENKUlmE_clEm
FN:80,96,_ZN7testing8internal28ConvertIdentifierNameToWordsB5cxx11EPKc
FNDA:0,_ZN7testing8internal25GoogleTestFailureReporter13ReportFailureENS0_24FailureReporterInterface11FailureTypeEPKciRKNSt7__cxx1112basic_stringIcSt11char_traitsIcESaIcEEE
FNDA:0,_ZN7testing8internal18GetFailureReporterEv
FNDA:0,_ZN7testing8internal12LogIsVisibleENS0_11LogSeverityE
FNDA:0,_ZN7testing8internal3LogENS0_11LogSeverityERKNSt7__cxx1112basic_stringIcSt11char_traitsIcESaIcEEEi
FNDA:0,_ZN7testing8internal18GetWithoutMatchersEv
FNDA:0,_ZN7testing8internal16IllegalDoDefaultEPKci
FNDA:0,_ZN7testing8internal14Base64UnescapeERKNSt7__cxx1112basic_stringIcSt11char_traitsIcESaIcEEEPS6_
FNDA:0,_ZN7testing8internal19JoinAsKeyValueTupleERKSt6vectorIPKcSaIS3_EERKS1_INSt7__cxx1112basic_stringIcSt11char_traitsIcESaIcEEESaISD_EE
FNDA:0,_ZZN7testing8internal19JoinAsKeyValueTupleERKSt6vectorIPKcSaIS3_EERKS1_INSt7__cxx1112basic_stringIcSt11char_traitsIcESaIcEEESaISD_EEENKUlmE_clEm
FNDA:0,_ZN7testing8internal28ConvertIdentifierNameToWordsB5cxx11EPKc
FNF:10
FNH:0
DA:58,0
DA:60,0
DA:61,0
DA:62,0
DA:64,0
DA:65,0
DA:66,0
DA:67,0
DA:68,0
DA:69,0
DA:70,0
DA:72,0
DA:73,0
DA:80,0
DA:81,0
DA:82,0
DA:83,0
DA:86,0
DA:87,0
DA:88,0
DA:90,0
DA:91,0
DA:92,0
DA:95,0
DA:96,0
DA:103,0
DA:105,0
DA:107,0
DA:108,0
DA:109,0
DA:111,0
DA:116,0
DA:123,0
DA:124,0
DA:132,0
DA:133,0
DA:135,0
DA:136,0
DA:138,0
DA:142,0
DA:153,0
DA:155,0
DA:158,0
DA:160,0
DA:162,0
DA:165,0
DA:166,0
DA:168,0
DA:169,0
DA:176,0
DA:180,0
DA:181,0
DA:184,0
DA:185,0
DA:187,0
DA:188,0
DA:190,0
DA:192,0
DA:193,0
DA:200,0
DA:228,0
DA:229,0
DA:230,0
DA:231,0
DA:232,0
DA:233,0
DA:234,0
DA:235,0
DA:236,0
DA:238,0
DA:239,0
DA:240,0
DA:241,0
DA:243,0
DA:244,0
DA:245,0
DA:247,0
DA:248,0
DA:249,0
DA:250,0
DA:253,0
LF:81
LH:0
end_of_record
TN:
SF:/home/alex/labs3/build/_deps/googletest-src/googlemock/src/gmock-matchers.cc
FN:126,129,_ZN7testing8internal22MaxBipartiteMatchStateC2ERKNS0_11MatchMatrixE
FN:132,163,_ZN7testing8internal22MaxBipartiteMatchState7ComputeEv
FN:184,208,_ZN7testing8internal22MaxBipartiteMatchState10TryAugmentEmPSt6vectorIcSaIcEE
FN:228,230,_ZN7testing8internal24FindMaxBipartiteMatchingERKNS0_11MatchMatrixE
FN:232,245,_ZN7testing8internalL24LogElementMatcherPairVecERKSt6vectorISt4pairImmESaIS3_EEPSo
FN:247,259,_ZN7testing8internal11MatchMatrix9NextGraphEv
FN:261,268,_ZN7testing8internal11MatchMatrix9RandomizeEv
FN:270,281,_ZNK7testing8internal11MatchMatrix11DebugStringB5cxx11Ev
FN:283,322,_ZNK7testing8internal35UnorderedElementsAreMatcherImplBase14DescribeToImplEPSo
FN:324,363,_ZNK7testing8internal35UnorderedElementsAreMatcherImplBase22DescribeNegationToImplEPSo
FN:370,435,_ZNK7testing8internal35UnorderedElementsAreMatcherImplBase17VerifyMatchMatrixERKSt6vectorINSt7__cxx1112basic_stringIcSt11char_traitsIcESaIcEEESaIS8_EERKNS0_11MatchMatrixEPNS_19MatchResultListenerE
FN:437,476,_ZNK7testing8internal35UnorderedElementsAreMatcherImplBase11FindPairingERKNS0_11MatchMatrixEPNS_19MatchResultListenerE
FN:52,60,_ZN7testing8internal24FormatMatcherDescriptionEbPKcRKSt6vectorIS2_SaIS2_EERKS3_INSt7__cxx1112basic_stringIcSt11char_traitsIcESaIcEEESaISD_EE
FNDA:3,_ZN7testing8internal22MaxBipartiteMatchStateC2ERKNS0_11MatchMatrixE
FNDA:3,_ZN7testing8internal22MaxBipartiteMatchState7ComputeEv
FNDA:5,_ZN7testing8internal22MaxBipartiteMatchState10TryAugmentEmPSt6vectorIcSaIcEE
FNDA:3,_ZN7testing8internal24FindMaxBipartiteMatchingERKNS0_11MatchMatrixE
FNDA:0,_ZN7testing8internalL24LogElementMatcherPairVecERKSt6vectorISt4pairImmESaIS3_EEPSo
FNDA:0,_ZN7testing8internal11MatchMatrix9NextGraphEv
FNDA:0,_ZN7testing8internal11MatchMatrix9RandomizeEv
FNDA:0,_ZNK7testing8internal11MatchMatrix11DebugStringB5cxx11Ev
FNDA:0,_ZNK7testing8internal35UnorderedElementsAreMatcherImplBase14DescribeToImplEPSo
FNDA:0,_ZNK7testing8internal35UnorderedElementsAreMatcherImplBase22DescribeNegationToImplEPSo
FNDA:3,_ZNK7testing8internal35UnorderedElementsAreMatcherImplBase17VerifyMatchMatrixERKSt6vectorINSt7__cxx1112basic_stringIcSt11char_traitsIcESaIcEEESaIS8_EERKNS0_11MatchMatrixEPNS_19MatchResultListenerE
FNDA:3,_ZNK7testing8internal35UnorderedElementsAreMatcherImplBase11FindPairingERKNS0_11MatchMatrixEPNS_19MatchResultListenerE
FNDA:0,_ZN7testing8internal24FormatMatcherDescriptionEbPKcRKSt6vectorIS2_SaIS2_EERKS3_INSt7__cxx1112basic_stringIcSt11char_traitsIcESaIcEEESaISD_EE
FNF:13
FNH:6
DA:52,0
DA:55,0
DA:56,0
DA:57,0
DA:59,0
DA:60,0
DA:126,3
DA:127,3
DA:128,6
DA:129,9
DA:132,3
DA:134,3
DA:147,8
DA:150,5
DA:151,0
DA:153,5
DA:154,5
DA:156,3
DA:157,8
DA:158,5
DA:159,5
DA:160,5
DA:162,6
DA:163,3
DA:184,5
DA:185,7
DA:186,7
DA:187,7
DA:189,5
DA:200,5
DA:202,5
DA:203,5
DA:204,5
DA:207,0
DA:228,3
DA:229,3
DA:232,0
DA:235,0
DA:236,0
DA:237,0
DA:238,0
DA:240,0
DA:241,0
DA:242,0
DA:244,0
DA:245,0
DA:247,0
DA:248,0
DA:249,0
DA:250,0
DA:251,0
DA:252,0
DA:253,0
DA:255,0
DA:258,0
DA:261,0
DA:262,0
DA:263,0
DA:264,0
DA:265,0
DA:268,0
DA:270,0
DA:271,0
DA:272,0
DA:273,0
DA:274,0
DA:275,0
DA:276,0
DA:278,0
DA:280,0
DA:281,0
DA:283,0
DA:285,0
DA:286,0
DA:287,0
DA:288,0
DA:289,0
DA:291,0
DA:292,0
DA:293,0
DA:294,0
DA:296,0
DA:297,0
DA:298,0
DA:299,0
DA:300,0
DA:301,0
DA:302,0
DA:303,0
DA:304,0
DA:307,0
DA:308,0
DA:309,0
DA:310,0
DA:311,0
DA:313,0
DA:315,0
DA:316,0
DA:317,0
DA:319,0
DA:324,0
DA:326,0
DA:327,0
DA:328,0
DA:329,0
DA:330,0
DA:332,0
DA:333,0
DA:334,0
DA:335,0
DA:336,0
DA:338,0
DA:339,0
DA:340,0
DA:341,0
DA:342,0
DA:343,0
DA:344,0
DA:345,0
DA:346,0
DA:348,0
DA:349,0
DA:350,0
DA:351,0
DA:352,0
DA:354,0
DA:356,0
DA:357,0
DA:358,0
DA:360,0
DA:370,3
DA:373,3
DA:374,0
DA:377,3
DA:378,3
DA:383,0
DA:384,0
DA:386,0
DA:390,3
DA:391,3
DA:392,3
DA:394,8
DA:395,14
DA:396,9
DA:397,9
DA:398,9
DA:402,3
DA:403,3
DA:405,8
DA:406,5
DA:407,0
DA:408,0
DA:409,0
DA:410,0
DA:411,0
DA:416,3
DA:417,3
DA:419,3
DA:420,3
DA:421,0
DA:423,8
DA:424,5
DA:425,0
DA:426,0
DA:427,0
DA:428,0
DA:429,0
DA:430,0
DA:434,3
DA:435,3
DA:437,3
DA:439,3
DA:441,3
DA:442,6
DA:443,3
DA:444,0
DA:446,0
DA:447,0
DA:448,0
DA:449,0
DA:451,0
DA:453,6
DA:454,3
DA:455,0
DA:457,0
DA:458,0
DA:459,0
DA:460,0
DA:462,0
DA:465,3
DA:466,2
DA:467,0
DA:468,0
DA:469,0
DA:470,0
DA:471,0
DA:475,3
DA:476,3
LF:198
LH:63
end_of_record
TN:
SF:/home/alex/labs3/build/_deps/googletest-src/googlemock/src/gmock-spec-builders.cc
FN:103,106,_ZN7testing8internal15ExpectationBase18SpecifyCardinalityERKNS_11CardinalityE
FN:109,132,_ZN7testing8internal15ExpectationBase22RetireAllPreRequisitesEv
FN:136,153,_ZNK7testing8internal15ExpectationBase28AllPrerequisitesAreSatisfiedEv
FN:156,183,_ZNK7testing8internal15ExpectationBase28FindUnsatisfiedPrerequisitesEPNS_14ExpectationSetE
FN:187,205,_ZNK7testing8internal15ExpectationBase19DescribeCallCountToEPSo
FN:211,259,_ZNK7testing8internal15ExpectationBase25CheckActionCountIfNotDoneEv
FN:262,276,_ZN7testing8internal15ExpectationBase12UntypedTimesERKNS_11CardinalityE
FN:284,307,_ZN7testing8internal23ReportUninterestingCallENS0_12CallReactionERKNSt7__cxx1112basic_stringIcSt11char_traitsIcESaIcEEE
FN:309,310,_ZN7testing8internal25UntypedFunctionMockerBaseC2Ev
FN:312,312,_ZN7testing8internal25UntypedFunctionMockerBaseD0Ev
FN:312,312,_ZN7testing8internal25UntypedFunctionMockerBaseD2Ev
FN:318,325,_ZN7testing8internal25UntypedFunctionMockerBase13RegisterOwnerEPKv
FN:330,338,_ZN7testing8internal25UntypedFunctionMockerBase15SetOwnerAndNameEPKvPKc
FN:342,355,_ZNK7testing8internal25UntypedFunctionMockerBase10MockObjectEv
FN:359,372,_ZNK7testing8internal25UntypedFunctionMockerBase4NameEv
FN:376,390,_ZN7testing8internal25UntypedFunctionMockerBase11GetHandleOfEPNS0_15ExpectationBaseE
FN:395,444,_ZN7testing8internal25UntypedFunctionMockerBase32VerifyAndClearExpectationsLockedEv
FN:446,451,_ZN7testing8internalL17intToCallReactionEi
FN:465,466,_ZN7testing12_GLOBAL__N_115MockObjectStateC2Ev
FN:491,537,_ZN7testing12_GLOBAL__N_118MockObjectRegistryD2Ev
FN:539,539,_ZN7testing12_GLOBAL__N_118MockObjectRegistry6statesEv
FN:551,554,_ZN7testing12_GLOBAL__N_128UninterestingCallReactionMapEv
FN:558,563,_ZN7testing12_GLOBAL__N_131SetReactionOnUninterestingCallsEmNS_8internal12CallReactionE
FN:569,572,_ZN7testing4Mock23AllowUninterestingCallsEm
FN:576,579,_ZN7testing4Mock22WarnUninterestingCallsEm
FN:583,586,_ZN7testing4Mock22FailUninterestingCallsEm
FN:590,594,_ZN7testing4Mock22UnregisterCallReactionEm
FN:598,607,_ZN7testing4Mock31GetReactionOnUninterestingCallsEPKv
FN:611,615,_ZN7testing4Mock9AllowLeakEPKv
FN:620,624,_ZN7testing4Mock26VerifyAndClearExpectationsEPv
FN:629,634,_ZN7testing4Mock14VerifyAndClearEPv
FN:639,662,_ZN7testing4Mock32VerifyAndClearExpectationsLockedEPv
FN:664,667,_ZN7testing4Mock7IsNaggyEPv
FN:668,671,_ZN7testing4Mock6IsNiceEPv
FN:672,675,_ZN7testing4Mock8IsStrictEPv
FN:678,683,_ZN7testing4Mock8RegisterEPKvPNS_8internal25UntypedFunctionMockerBaseE
FN:688,703,_ZN7testing4Mock31RegisterUseByOnCallOrExpectCallEPKvPKci
FN:709,724,_ZN7testing4Mock16UnregisterLockedEPNS_8internal25UntypedFunctionMockerBaseE
FN:727,747,_ZN7testing4Mock25ClearDefaultActionsLockedEPv
FN:73,80,_ZN7testing8internal15LogWithLocationENS0_11LogSeverityEPKciRKNSt7__cxx1112basic_stringIcSt11char_traitsIcESaIcEEE
FN:749,749,_ZN7testing11ExpectationC2Ev
FN:751,753,_ZN7testing11ExpectationC2ERKSt10shared_ptrINS_8internal15ExpectationBaseEE
FN:755,755,_ZN7testing11ExpectationD2Ev
FN:758,766,_ZNK7testing8Sequence14AddExpectationERKNS_11ExpectationE
FN:769,776,_ZN7testing10InSequenceC2Ev
FN:780,785,_ZN7testing10InSequenceD2Ev
FN:83,96,_ZN7testing8internal15ExpectationBaseC2EPKciRKNSt7__cxx1112basic_stringIcSt11char_traitsIcESaIcEEE
FN:99,99,_ZN7testing8internal15ExpectationBaseD0Ev
FN:99,99,_ZN7testing8internal15ExpectationBaseD2Ev
FNDA:0,_ZN7testing8internal15ExpectationBase18SpecifyCardinalityERKNS_11CardinalityE
FNDA:0,_ZN7testing8internal15ExpectationBase22RetireAllPreRequisitesEv
FNDA:0,_ZNK7testing8internal15ExpectationBase28AllPrerequisitesAreSatisfiedEv
FNDA:0,_ZNK7testing8internal15ExpectationBase28FindUnsatisfiedPrerequisitesEPNS_14ExpectationSetE
FNDA:0,_ZNK7testing8internal15ExpectationBase19DescribeCallCountToEPSo
FNDA:0,_ZNK7testing8internal15ExpectationBase25CheckActionCountIfNotDoneEv
FNDA:0,_ZN7testing8internal15ExpectationBase12UntypedTimesERKNS_11CardinalityE
FNDA:0,_ZN7testing8internal23ReportUninterestingCallENS0_12CallReactionERKNSt7__cxx1112basic_stringIcSt11char_traitsIcESaIcEEE
FNDA:0,_ZN7testing8internal25UntypedFunctionMockerBaseC2Ev
FNDA:0,_ZN7testing8internal25UntypedFunctionMockerBaseD0Ev
FNDA:0,_ZN7testing8internal25UntypedFunctionMockerBaseD2Ev
FNDA:0,_ZN7testing8internal25UntypedFunctionMockerBase13RegisterOwnerEPKv
FNDA:0,_ZN7testing8internal25UntypedFunctionMockerBase15SetOwnerAndNameEPKvPKc
FNDA:0,_ZNK7testing8internal25UntypedFunctionMockerBase10MockObjectEv
FNDA:0,_ZNK7testing8internal25UntypedFunctionMockerBase4NameEv
FNDA:0,_ZN7testing8internal25UntypedFunctionMockerBase11GetHandleOfEPNS0_15ExpectationBaseE
FNDA:0,_ZN7testing8internal25UntypedFunctionMockerBase32VerifyAndClearExpectationsLockedEv
FNDA:0,_ZN7testing8internalL17intToCallReactionEi
FNDA:0,_ZN7testing12_GLOBAL__N_115MockObjectStateC2Ev
FNDA:9,_ZN7testing12_GLOBAL__N_118MockObjectRegistryD2Ev
FNDA:0,_ZN7testing12_GLOBAL__N_118MockObjectRegistry6statesEv
FNDA:0,_ZN7testing12_GLOBAL__N_128UninterestingCallReactionMapEv
FNDA:0,_ZN7testing12_GLOBAL__N_131SetReactionOnUninterestingCallsEmNS_8internal12CallReactionE
FNDA:0,_ZN7testing4Mock23AllowUninterestingCallsEm
FNDA:0,_ZN7testing4Mock22WarnUninterestingCallsEm
FNDA:0,_ZN7testing4Mock22FailUninterestingCallsEm
FNDA:0,_ZN7testing4Mock22UnregisterCallReactionEm
FNDA:0,_ZN7testing4Mock31GetReactionOnUninterestingCallsEPKv
FNDA:0,_ZN7testing4Mock9AllowLeakEPKv
FNDA:0,_ZN7testing4Mock26VerifyAndClearExpectationsEPv
FNDA:0,_ZN7testing4Mock14VerifyAndClearEPv
FNDA:0,_ZN7testing4Mock32VerifyAndClearExpectationsLockedEPv
FNDA:0,_ZN7testing4Mock7IsNaggyEPv
FNDA:0,_ZN7testing4Mock6IsNiceEPv
FNDA:0,_ZN7testing4Mock8IsStrictEPv
FNDA:0,_ZN7testing4Mock8RegisterEPKvPNS_8internal25UntypedFunctionMockerBaseE
FNDA:0,_ZN7testing4Mock31RegisterUseByOnCallOrExpectCallEPKvPKci
FNDA:0,_ZN7testing4Mock16UnregisterLockedEPNS_8internal25UntypedFunctionMockerBaseE
FNDA:0,_ZN7testing4Mock25ClearDefaultActionsLockedEPv
FNDA:0,_ZN7testing8internal15LogWithLocationENS0_11LogSeverityEPKciRKNSt7__cxx1112basic_stringIcSt11char_traitsIcESaIcEEE
FNDA:0,_ZN7testing11ExpectationC2Ev
FNDA:0,_ZN7testing11ExpectationC2ERKSt10shared_ptrINS_8internal15ExpectationBaseEE
FNDA:0,_ZN7testing11ExpectationD2Ev
FNDA:0,_ZNK7testing8Sequence14AddExpectationERKNS_11ExpectationE
FNDA:0,_ZN7testing10InSequenceC2Ev
FNDA:0,_ZN7testing10InSequenceD2Ev
FNDA:0,_ZN7testing8internal15ExpectationBaseC2EPKciRKNSt7__cxx1112basic_stringIcSt11char_traitsIcESaIcEEE
FNDA:0,_ZN7testing8internal15ExpectationBaseD0Ev
FNDA:0,_ZN7testing8internal15ExpectationBaseD2Ev
FNF:49
FNH:1
DA:73,0
DA:76,0
DA:77,0
DA:78,0
DA:79,0
DA:80,0
DA:83,0
DA:84,0
DA:85,0
DA:86,0
DA:87,0
DA:88,0
DA:89,0
DA:90,0
DA:91,0
DA:92,0
DA:93,0
DA:94,0
DA:95,0
DA:96,0
DA:99,0
DA:103,0
DA:104,0
DA:105,0
DA:106,0
DA:109,0
DA:111,0
DA:114,0
DA:117,0
DA:118,0
DA:119,0
DA:120,0
DA:122,0
DA:123,0
DA:124,0
DA:125,0
DA:126,0
DA:127,0
DA:128,0
DA:132,0
DA:136,0
DA:138,0
DA:139,0
DA:140,0
DA:141,0
DA:142,0
DA:144,0
DA:145,0
DA:146,0
DA:147,0
DA:148,0
DA:149,0
DA:152,0
DA:153,0
DA:156,0
DA:158,0
DA:159,0
DA:160,0
DA:161,0
DA:162,0
DA:164,0
DA:165,0
DA:166,0
DA:167,0
DA:169,0
DA:172,0
DA:173,0
DA:179,0
DA:183,0
DA:187,0
DA:189,0
DA:192,0
DA:193,0
DA:194,0
DA:195,0
DA:200,0
DA:201,0
DA:202,0
DA:204,0
DA:205,0
DA:211,0
DA:213,0
DA:215,0
DA:216,0
DA:217,0
DA:218,0
DA:220,0
DA:222,0
DA:223,0
DA:226,0
DA:230,0
DA:231,0
DA:232,0
DA:235,0
DA:236,0
DA:237,0
DA:238,0
DA:239,0
DA:240,0
DA:242,0
DA:245,0
DA:246,0
DA:249,0
DA:250,0
DA:251,0
DA:252,0
DA:253,0
DA:254,0
DA:256,0
DA:257,0
DA:258,0
DA:262,0
DA:263,0
DA:264,0
DA:268,0
DA:269,0
DA:273,0
DA:275,0
DA:276,0
DA:284,0
DA:287,0
DA:288,0
DA:289,0
DA:290,0
DA:291,0
DA:292,0
DA:293,0
DA:294,0
DA:303,0
DA:304,0
DA:305,0
DA:307,0
DA:309,0
DA:310,0
DA:312,0
DA:318,0
DA:321,0
DA:322,0
DA:323,0
DA:324,0
DA:325,0
DA:330,0
DA:335,0
DA:336,0
DA:337,0
DA:338,0
DA:342,0
DA:348,0
DA:349,0
DA:352,0
DA:353,0
DA:354,0
DA:359,0
DA:365,0
DA:366,0
DA:369,0
DA:370,0
DA:371,0
DA:376,0
DA:379,0
DA:380,0
DA:381,0
DA:382,0
DA:386,0
DA:387,0
DA:395,0
DA:397,0
DA:398,0
DA:399,0
DA:400,0
DA:401,0
DA:402,0
DA:406,0
DA:407,0
DA:408,0
DA:409,0
DA:412,0
DA:413,0
DA:414,0
DA:415,0
DA:418,0
DA:422,0
DA:423,0
DA:424,0
DA:425,0
DA:426,0
DA:436,0
DA:437,0
DA:439,0
DA:440,0
DA:441,0
DA:443,0
DA:444,0
DA:446,0
DA:447,0
DA:448,0
DA:450,0
DA:465,0
DA:466,0
DA:491,18
DA:492,9
DA:494,9
DA:495,9
DA:496,0
DA:497,0
DA:498,0
DA:502,0
DA:503,0
DA:504,0
DA:505,0
DA:506,0
DA:507,0
DA:508,0
DA:509,0
DA:511,0
DA:512,0
DA:513,0
DA:515,9
DA:516,0
DA:524,0
DA:525,0
DA:526,0
DA:533,0
DA:537,9
DA:539,0
DA:551,0
DA:552,0
DA:553,0
DA:558,0
DA:561,0
DA:562,0
DA:563,0
DA:569,0
DA:571,0
DA:572,0
DA:576,0
DA:578,0
DA:579,0
DA:583,0
DA:585,0
DA:586,0
DA:590,0
DA:592,0
DA:593,0
DA:594,0
DA:598,0
DA:600,0
DA:601,0
DA:602,0
DA:603,0
DA:605,0
DA:606,0
DA:607,0
DA:611,0
DA:613,0
DA:614,0
DA:615,0
DA:620,0
DA:622,0
DA:623,0
DA:624,0
DA:629,0
DA:631,0
DA:632,0
DA:633,0
DA:634,0
DA:639,0
DA:641,0
DA:642,0
DA:644,0
DA:649,0
DA:651,0
DA:652,0
DA:653,0
DA:654,0
DA:655,0
DA:661,0
DA:664,0
DA:666,0
DA:668,0
DA:670,0
DA:672,0
DA:674,0
DA:678,0
DA:681,0
DA:682,0
DA:683,0
DA:688,0
DA:691,0
DA:692,0
DA:693,0
DA:694,0
DA:695,0
DA:697,0
DA:698,0
DA:699,0
DA:700,0
DA:703,0
DA:709,0
DA:711,0
DA:712,0
DA:713,0
DA:714,0
DA:715,0
DA:716,0
DA:718,0
DA:719,0
DA:721,0
DA:727,0
DA:729,0
DA:731,0
DA:733,0
DA:739,0
DA:740,0
DA:741,0
DA:742,0
DA:749,0
DA:751,0
DA:752,0
DA:753,0
DA:755,0
DA:758,0
DA:759,0
DA:760,0
DA:761,0
DA:762,0
DA:764,0
DA:766,0
DA:769,0
DA:770,0
DA:771,0
DA:772,0
DA:774,0
DA:776,0
DA:780,0
DA:781,0
DA:782,0
DA:783,0
DA:785,0
LF:339
LH:6
end_of_record
TN:
SF:/home/alex/labs3/build/_deps/googletest-src/googlemock/src/gmock.cc
FN:114,125,_ZN7testing8internalL19ParseGoogleMockFlagINSt7__cxx1112basic_stringIcSt11char_traitsIcESaIcEEEEEbPKcS9_PT_
FN:127,138,_ZN7testing8internalL19ParseGoogleMockFlagEPKcS2_Pi
FN:145,188,_ZN7testing8internal18InitGoogleMockImplIcEEvPiPPT_
FN:145,188,_ZN7testing8internal18InitGoogleMockImplIwEEvPiPPT_
FN:203,205,_ZN7testing14InitGoogleMockEPiPPc
FN:209,211,_ZN7testing14InitGoogleMockEPiPPw
FN:215,223,_ZN7testing14InitGoogleMockEv
FN:62,88,_ZN7testing8internalL24ParseGoogleMockFlagValueEPKcS2_b
FN:95,106,_ZN7testing8internalL19ParseGoogleMockFlagEPKcS2_Pb
FNDA:0,_ZN7testing8internalL19ParseGoogleMockFlagINSt7__cxx1112basic_stringIcSt11char_traitsIcESaIcEEEEEbPKcS9_PT_
FNDA:0,_ZN7testing8internalL19ParseGoogleMockFlagEPKcS2_Pi
FNDA:9,_ZN7testing8internal18InitGoogleMockImplIcEEvPiPPT_
FNDA:0,_ZN7testing8internal18InitGoogleMockImplIwEEvPiPPT_
FNDA:9,_ZN7testing14InitGoogleMockEPiPPc
FNDA:0,_ZN7testing14InitGoogleMockEPiPPw
FNDA:0,_ZN7testing14InitGoogleMockEv
FNDA:0,_ZN7testing8internalL24ParseGoogleMockFlagValueEPKcS2_b
FNDA:0,_ZN7testing8internalL19ParseGoogleMockFlagEPKcS2_Pb
FNF:9
FNH:2
DA:62,0
DA:66,0
DA:69,0
DA:70,0
DA:71,0
DA:74,0
DA:77,0
DA:78,0
DA:84,0
DA:87,0
DA:88,0
DA:95,0
DA:98,0
DA:101,0
DA:104,0
DA:105,0
DA:114,0
DA:117,0
DA:120,0
DA:123,0
DA:124,0
DA:127,0
DA:130,0
DA:133,0
DA:136,0
DA:137,0
DA:145,9
DA:148,9
DA:149,9
DA:151,9
DA:152,0
DA:153,0
DA:156,0
DA:167,0
DA:168,0
DA:169,0
DA:171,0
DA:176,0
DA:177,0
DA:181,0
DA:185,0
DA:203,9
DA:204,9
DA:205,9
DA:209,0
DA:210,0
DA:211,0
DA:215,0
DA:217,0
DA:218,0
DA:219,0
DA:220,0
DA:222,0
DA:223,0
LF:54
LH:7
end_of_record
TN:
SF:/home/alex/labs3/build/_deps/googletest-src/googlemock/src/gmock_main.cc
FN:64,72,main
FNDA:9,main
FNF:1
FNH:1
DA:64,9
DA:66,9
DA:70,9
DA:71,9
LF:4
LH:4
end_of_record
TN:
SF:/home/alex/labs3/build/_deps/googletest-src/googletest/include/gtest/gtest-assertion-result.h
FN:155,161,_ZN7testing15AssertionResultC2IbEERKT_PNSt9enable_ifIXntsrSt14is_convertibleIS2_S0_E5valueEvE4typeE
FN:174,174,_ZNK7testing15AssertionResultcvbEv
FN:183,185,_ZNK7testing15AssertionResult7messageEv
FN:187,187,_ZNK7testing15AssertionResult15failure_messageEv
FN:191,194,_ZN7testing15AssertionResultlsIA100_cEERS0_RKT_
FN:191,194,_ZN7testing15AssertionResultlsIA106_cEERS0_RKT_
FN:191,194,_ZN7testing15AssertionResultlsIA11_cEERS0_RKT_
FN:191,194,_ZN7testing15AssertionResultlsIA12_cEERS0_RKT_
FN:191,194,_ZN7testing15AssertionResultlsIA13_cEERS0_RKT_
FN:191,194,_ZN7testing15AssertionResultlsIA14_cEERS0_RKT_
FN:191,194,_ZN7testing15AssertionResultlsIA15_cEERS0_RKT_
FN:191,194,_ZN7testing15AssertionResultlsIA16_cEERS0_RKT_
FN:191,194,_ZN7testing15AssertionResultlsIA17_cEERS0_RKT_
FN:191,194,_ZN7testing15AssertionResultlsIA24_cEERS0_RKT_
FN:191,194,_ZN7testing15AssertionResultlsIA27_cEERS0_RKT_
FN:191,194,_ZN7testing15AssertionResultlsIA29_cEERS0_RKT_
FN:191,194,_ZN7testing15AssertionResultlsIA2_cEERS0_RKT_
FN:191,194,_ZN7testing15AssertionResultlsIA3_cEERS0_RKT_
FN:191,194,_ZN7testing15AssertionResultlsIA5_cEERS0_RKT_
FN:191,194,_ZN7testing15AssertionResultlsIA6_cEERS0_RKT_
FN:191,194,_ZN7testing15AssertionResultlsIA7_cEERS0_RKT_
FN:191,194,_ZN7testing15AssertionResultlsIA9_cEERS0_RKT_
FN:191,194,_ZN7testing15AssertionResultlsINS_14TestPartResultEEERS0_RKT_
FN:191,194,_ZN7testing15AssertionResultlsINS_7MessageEEERS0_RKT_
FN:191,194,_ZN7testing15AssertionResultlsINSt7__cxx1112basic_stringIcSt11char_traitsIcESaIcEEEEERS0_RKT_
FN:191,194,_ZN7testing15AssertionResultlsINSt7__cxx1112basic_stringIwSt11char_traitsIwESaIwEEEEERS0_RKT_
FN:191,194,_ZN7testing15AssertionResultlsIPKcEERS0_RKT_
FN:191,194,_ZN7testing15AssertionResultlsIPKwEERS0_RKT_
FN:191,194,_ZN7testing15AssertionResultlsIdEERS0_RKT_
FN:206,209,_ZN7testing15AssertionResult13AppendMessageERKNS_7MessageE
FNDA:362,_ZN7testing15AssertionResultC2IbEERKT_PNSt9enable_ifIXntsrSt14is_convertibleIS2_S0_E5valueEvE4typeE
FNDA:362,_ZNK7testing15AssertionResultcvbEv
FNDA:0,_ZNK7testing15AssertionResult7messageEv
FNDA:0,_ZNK7testing15AssertionResult15failure_messageEv
FNDA:0,_ZN7testing15AssertionResultlsIA100_cEERS0_RKT_
FNDA:0,_ZN7testing15AssertionResultlsIA106_cEERS0_RKT_
FNDA:0,_ZN7testing15AssertionResultlsIA11_cEERS0_RKT_
FNDA:0,_ZN7testing15AssertionResultlsIA12_cEERS0_RKT_
FNDA:0,_ZN7testing15AssertionResultlsIA13_cEERS0_RKT_
FNDA:0,_ZN7testing15AssertionResultlsIA14_cEERS0_RKT_
FNDA:0,_ZN7testing15AssertionResultlsIA15_cEERS0_RKT_
FNDA:0,_ZN7testing15AssertionResultlsIA16_cEERS0_RKT_
FNDA:0,_ZN7testing15AssertionResultlsIA17_cEERS0_RKT_
FNDA:0,_ZN7testing15AssertionResultlsIA24_cEERS0_RKT_
FNDA:0,_ZN7testing15AssertionResultlsIA27_cEERS0_RKT_
FNDA:0,_ZN7testing15AssertionResultlsIA29_cEERS0_RKT_
FNDA:0,_ZN7testing15AssertionResultlsIA2_cEERS0_RKT_
FNDA:0,_ZN7testing15AssertionResultlsIA3_cEERS0_RKT_
FNDA:0,_ZN7testing15AssertionResultlsIA5_cEERS0_RKT_
FNDA:0,_ZN7testing15AssertionResultlsIA6_cEERS0_RKT_
FNDA:0,_ZN7testing15AssertionResultlsIA7_cEERS0_RKT_
FNDA:0,_ZN7testing15AssertionResultlsIA9_cEERS0_RKT_
FNDA:0,_ZN7testing15AssertionResultlsINS_14TestPartResultEEERS0_RKT_
FNDA:0,_ZN7testing15AssertionResultlsINS_7MessageEEERS0_RKT_
FNDA:0,_ZN7testing15AssertionResultlsINSt7__cxx1112basic_stringIcSt11char_traitsIcESaIcEEEEERS0_RKT_
FNDA:0,_ZN7testing15AssertionResultlsINSt7__cxx1112basic_stringIwSt11char_traitsIwESaIwEEEEERS0_RKT_
FNDA:0,_ZN7testing15AssertionResultlsIPKcEERS0_RKT_
FNDA:0,_ZN7testing15AssertionResultlsIPKwEERS0_RKT_
FNDA:0,_ZN7testing15AssertionResultlsIdEERS0_RKT_
FNDA:0,_ZN7testing15AssertionResult13AppendMessageERKNS_7MessageE
FNF:30
FNH:2
DA:155,362
DA:161,362
DA:174,362
DA:183,0
DA:184,0
DA:187,0
DA:191,0
DA:192,0
DA:193,0
DA:206,0
DA:207,0
DA:208,0
DA:209,0
LF:13
LH:3
end_of_record
TN:
SF:/home/alex/labs3/build/_deps/googletest-src/googletest/include/gtest/gtest-matchers.h
FN:101,101,_ZNK7testing19MatchResultListener12IsInterestedEv
FN:110,110,_ZN7testing19MatchResultListenerD0Ev
FN:110,110,_ZN7testing19MatchResultListenerD2Ev
FN:116,116,_ZN7testing25MatcherDescriberInterfaceD0Ev
FN:116,116,_ZN7testing25MatcherDescriberInterfaceD2Ev
FN:131,135,_ZNK7testing25MatcherDescriberInterface18DescribeNegationToEPSo
FN:185,185,_ZN7testing8internal24DummyMatchResultListenerC2Ev
FN:208,208,_ZN7testing8internal17SharedPayloadBase3RefEv
FN:209,209,_ZN7testing8internal17SharedPayloadBase5UnrefEv
FN:215,215,_ZN7testing8internal13SharedPayloadINS0_9EqMatcherINSt7__cxx1112basic_stringIcSt11char_traitsIcESaIcEEEEEEC2EOS9_
FN:215,215,_ZN7testing8internal13SharedPayloadISt10unique_ptrIKNS_16MatcherInterfaceIRKNSt7__cxx1112basic_stringIcSt11char_traitsIcESaIcEEEEESt14default_deleteISD_EEEC2EOSG_
FN:215,215,_ZN7testing8internal13SharedPayloadISt10unique_ptrIKNS_16MatcherInterfaceIRKSt3mapINSt7__cxx1112basic_stringIcSt11char_traitsIcESaIcEEESA_St4lessISA_ESaISt4pairIKSA_SA_EEEEESt14default_deleteISL_EEEC2EOSO_
FN:215,215,_ZN7testing8internal13SharedPayloadISt10unique_ptrIKNS_16MatcherInterfaceIRKSt4pairIKNSt7__cxx1112basic_stringIcSt11char_traitsIcESaIcEEESA_EEESt14default_deleteISG_EEEC2EOSJ_
FN:215,215,_ZN7testing8internal13SharedPayloadISt10unique_ptrIKNS_16MatcherInterfaceIRKSt6vectorIaSaIaEEEESt14default_deleteISA_EEEC2EOSD_
FN:215,215,_ZN7testing8internal13SharedPayloadISt10unique_ptrIKNS_16MatcherInterfaceIRKSt6vectorIiSaIiEEEESt14default_deleteISA_EEEC2EOSD_
FN:215,215,_ZN7testing8internal13SharedPayloadISt10unique_ptrIKNS_16MatcherInterfaceIRKSt6vectorIlSaIlEEEESt14default_deleteISA_EEEC2EOSD_
FN:215,215,_ZN7testing8internal13SharedPayloadISt10unique_ptrIKNS_16MatcherInterfaceIRKdEESt14default_deleteIS7_EEEC2EOSA_
FN:217,219,_ZN7testing8internal13SharedPayloadINS0_9EqMatcherINSt7__cxx1112basic_stringIcSt11char_traitsIcESaIcEEEEEE7DestroyEPNS0_17SharedPayloadBaseE
FN:217,219,_ZN7testing8internal13SharedPayloadISt10unique_ptrIKNS_16MatcherInterfaceIRKNSt7__cxx1112basic_stringIcSt11char_traitsIcESaIcEEEEESt14default_deleteISD_EEE7DestroyEPNS0_17SharedPayloadBaseE
FN:217,219,_ZN7testing8internal13SharedPayloadISt10unique_ptrIKNS_16MatcherInterfaceIRKSt3mapINSt7__cxx1112basic_stringIcSt11char_traitsIcESaIcEEESA_St4lessISA_ESaISt4pairIKSA_SA_EEEEESt14default_deleteISL_EEE7DestroyEPNS0_17SharedPayloadBaseE
FN:217,219,_ZN7testing8internal13SharedPayloadISt10unique_ptrIKNS_16MatcherInterfaceIRKSt4pairIKNSt7__cxx1112basic_stringIcSt11char_traitsIcESaIcEEESA_EEESt14default_deleteISG_EEE7DestroyEPNS0_17SharedPayloadBaseE
FN:217,219,_ZN7testing8internal13SharedPayloadISt10unique_ptrIKNS_16MatcherInterfaceIRKSt6vectorIaSaIaEEEESt14default_deleteISA_EEE7DestroyEPNS0_17SharedPayloadBaseE
FN:217,219,_ZN7testing8internal13SharedPayloadISt10unique_ptrIKNS_16MatcherInterfaceIRKSt6vectorIiSaIiEEEESt14default_deleteISA_EEE7DestroyEPNS0_17SharedPayloadBaseE
FN:217,219,_ZN7testing8internal13SharedPayloadISt10unique_ptrIKNS_16MatcherInterfaceIRKSt6vectorIlSaIlEEEESt14default_deleteISA_EEE7DestroyEPNS0_17SharedPayloadBaseE
FN:217,219,_ZN7testing8internal13SharedPayloadISt10unique_ptrIKNS_16MatcherInterfaceIRKdEESt14default_deleteIS7_EEE7DestroyEPNS0_17SharedPayloadBaseE
FN:232,235,_ZNK7testing8internal11MatcherBaseIRKNSt7__cxx1112basic_stringIcSt11char_traitsIcESaIcEEEE15MatchAndExplainES9_PNS_19MatchResultListenerE
FN:232,235,_ZNK7testing8internal11MatcherBaseIRKPSt3mapINSt7__cxx1112basic_stringIcSt11char_traitsIcESaIcEEES8_St4lessIS8_ESaISt4pairIKS8_S8_EEEE15MatchAndExplainESI_PNS_19MatchResultListenerE
FN:232,235,_ZNK7testing8internal11MatcherBaseIRKSt3mapINSt7__cxx1112basic_stringIcSt11char_traitsIcESaIcEEES8_St4lessIS8_ESaISt4pairIKS8_S8_EEEE15MatchAndExplainESH_PNS_19MatchResultListenerE
FN:232,235,_ZNK7testing8internal11MatcherBaseIRKSt4pairIKNSt7__cxx1112basic_stringIcSt11char_traitsIcESaIcEEES8_EE15MatchAndExplainESC_PNS_19MatchResultListenerE
FN:232,235,_ZNK7testing8internal11MatcherBaseIRKSt6vectorIaSaIaEEE15MatchAndExplainES6_PNS_19MatchResultListenerE
FN:232,235,_ZNK7testing8internal11MatcherBaseIRKSt6vectorIiSaIiEEE15MatchAndExplainES6_PNS_19MatchResultListenerE
FN:232,235,_ZNK7testing8internal11MatcherBaseIRKSt6vectorIlSaIlEEE15MatchAndExplainES6_PNS_19MatchResultListenerE
FN:232,235,_ZNK7testing8internal11MatcherBaseIRKaE15MatchAndExplainES3_PNS_19MatchResultListenerE
FN:232,235,_ZNK7testing8internal11MatcherBaseIRKdE15MatchAndExplainES3_PNS_19MatchResultListenerE
FN:232,235,_ZNK7testing8internal11MatcherBaseIRKiE15MatchAndExplainES3_PNS_19MatchResultListenerE
FN:232,235,_ZNK7testing8internal11MatcherBaseIRKlE15MatchAndExplainES3_PNS_19MatchResultListenerE
FN:238,241,_ZNK7testing8internal11MatcherBaseIRKNSt7__cxx1112basic_stringIcSt11char_traitsIcESaIcEEEE7MatchesES9_
FN:238,241,_ZNK7testing8internal11MatcherBaseIRKPSt3mapINSt7__cxx1112basic_stringIcSt11char_traitsIcESaIcEEES8_St4lessIS8_ESaISt4pairIKS8_S8_EEEE7MatchesESI_
FN:238,241,_ZNK7testing8internal11MatcherBaseIRKSt3mapINSt7__cxx1112basic_stringIcSt11char_traitsIcESaIcEEES8_St4lessIS8_ESaISt4pairIKS8_S8_EEEE7MatchesESH_
FN:238,241,_ZNK7testing8internal11MatcherBaseIRKSt4pairIKNSt7__cxx1112basic_stringIcSt11char_traitsIcESaIcEEES8_EE7MatchesESC_
FN:238,241,_ZNK7testing8internal11MatcherBaseIRKSt6vectorIaSaIaEEE7MatchesES6_
FN:238,241,_ZNK7testing8internal11MatcherBaseIRKSt6vectorIiSaIiEEE7MatchesES6_
FN:238,241,_ZNK7testing8internal11MatcherBaseIRKSt6vectorIlSaIlEEE7MatchesES6_
FN:238,241,_ZNK7testing8internal11MatcherBaseIRKaE7MatchesES3_
FN:238,241,_ZNK7testing8internal11MatcherBaseIRKdE7MatchesES3_
FN:238,241,_ZNK7testing8internal11MatcherBaseIRKiE7MatchesES3_
FN:238,241,_ZNK7testing8internal11MatcherBaseIRKlE7MatchesES3_
FN:244,247,_ZNK7testing8internal11MatcherBaseINSt7__cxx1112basic_stringIcSt11char_traitsIcESaIcEEEE10DescribeToEPSo
FN:244,247,_ZNK7testing8internal11MatcherBaseIRKNSt7__cxx1112basic_stringIcSt11char_traitsIcESaIcEEEE10DescribeToEPSo
FN:244,247,_ZNK7testing8internal11MatcherBaseIRKPSt3mapINSt7__cxx1112basic_stringIcSt11char_traitsIcESaIcEEES8_St4lessIS8_ESaISt4pairIKS8_S8_EEEE10DescribeToEPSo
FN:244,247,_ZNK7testing8internal11MatcherBaseIRKSt17basic_string_viewIcSt11char_traitsIcEEE10DescribeToEPSo
FN:244,247,_ZNK7testing8internal11MatcherBaseIRKSt3mapINSt7__cxx1112basic_stringIcSt11char_traitsIcESaIcEEES8_St4lessIS8_ESaISt4pairIKS8_S8_EEEE10DescribeToEPSo
FN:244,247,_ZNK7testing8internal11MatcherBaseIRKSt4pairIKNSt7__cxx1112basic_stringIcSt11char_traitsIcESaIcEEES8_EE10DescribeToEPSo
FN:244,247,_ZNK7testing8internal11MatcherBaseIRKSt6vectorIaSaIaEEE10DescribeToEPSo
FN:244,247,_ZNK7testing8internal11MatcherBaseIRKSt6vectorIiSaIiEEE10DescribeToEPSo
FN:244,247,_ZNK7testing8internal11MatcherBaseIRKSt6vectorIlSaIlEEE10DescribeToEPSo
FN:244,247,_ZNK7testing8internal11MatcherBaseIRKaE10DescribeToEPSo
FN:244,247,_ZNK7testing8internal11MatcherBaseIRKdE10DescribeToEPSo
FN:244,247,_ZNK7testing8internal11MatcherBaseIRKiE10DescribeToEPSo
FN:244,247,_ZNK7testing8internal11MatcherBaseIRKlE10DescribeToEPSo
FN:244,247,_ZNK7testing8internal11MatcherBaseISt17basic_string_viewIcSt11char_traitsIcEEE10DescribeToEPSo
FN:250,253,_ZNK7testing8internal11MatcherBaseINSt7__cxx1112basic_stringIcSt11char_traitsIcESaIcEEEE18DescribeNegationToEPSo
FN:250,253,_ZNK7testing8internal11MatcherBaseIRKNSt7__cxx1112basic_stringIcSt11char_traitsIcESaIcEEEE18DescribeNegationToEPSo
FN:250,253,_ZNK7testing8internal11MatcherBaseIRKPSt3mapINSt7__cxx1112basic_stringIcSt11char_traitsIcESaIcEEES8_St4lessIS8_ESaISt4pairIKS8_S8_EEEE18DescribeNegationToEPSo
FN:250,253,_ZNK7testing8internal11MatcherBaseIRKSt17basic_string_viewIcSt11char_traitsIcEEE18DescribeNegationToEPSo
FN:250,253,_ZNK7testing8internal11MatcherBaseIRKSt3mapINSt7__cxx1112basic_stringIcSt11char_traitsIcESaIcEEES8_St4lessIS8_ESaISt4pairIKS8_S8_EEEE18DescribeNegationToEPSo
FN:250,253,_ZNK7testing8internal11MatcherBaseIRKSt4pairIKNSt7__cxx1112basic_stringIcSt11char_traitsIcESaIcEEES8_EE18DescribeNegationToEPSo
FN:250,253,_ZNK7testing8internal11MatcherBaseIRKSt6vectorIaSaIaEEE18DescribeNegationToEPSo
FN:250,253,_ZNK7testing8internal11MatcherBaseIRKSt6vectorIiSaIiEEE18DescribeNegationToEPSo
FN:250,253,_ZNK7testing8internal11MatcherBaseIRKSt6vectorIlSaIlEEE18DescribeNegationToEPSo
FN:250,253,_ZNK7testing8internal11MatcherBaseIRKaE18DescribeNegationToEPSo
FN:250,253,_ZNK7testing8internal11MatcherBaseIRKdE18DescribeNegationToEPSo
FN:250,253,_ZNK7testing8internal11MatcherBaseIRKiE18DescribeNegationToEPSo
FN:250,253,_ZNK7testing8internal11MatcherBaseIRKlE18DescribeNegationToEPSo
FN:250,253,_ZNK7testing8internal11MatcherBaseISt17basic_string_viewIcSt11char_traitsIcEEE18DescribeNegationToEPSo
FN:264,267,_ZNK7testing8internal11MatcherBaseIRKSt4pairIKNSt7__cxx1112basic_stringIcSt11char_traitsIcESaIcEEES8_EE12GetDescriberEv
FN:270,270,_ZN7testing8internal11MatcherBaseINSt7__cxx1112basic_stringIcSt11char_traitsIcESaIcEEEEC2Ev
FN:270,270,_ZN7testing8internal11MatcherBaseIRKNSt7__cxx1112basic_stringIcSt11char_traitsIcESaIcEEEEC2Ev
FN:270,270,_ZN7testing8internal11MatcherBaseIRKPSt3mapINSt7__cxx1112basic_stringIcSt11char_traitsIcESaIcEEES8_St4lessIS8_ESaISt4pairIKS8_S8_EEEEC2Ev
FN:270,270,_ZN7testing8internal11MatcherBaseIRKSt17basic_string_viewIcSt11char_traitsIcEEEC2Ev
FN:270,270,_ZN7testing8internal11MatcherBaseIRKaEC2Ev
FN:270,270,_ZN7testing8internal11MatcherBaseIRKiEC2Ev
FN:270,270,_ZN7testing8internal11MatcherBaseIRKlEC2Ev
FN:270,270,_ZN7testing8internal11MatcherBaseISt17basic_string_viewIcSt11char_traitsIcEEEC2Ev
FN:274,277,_ZN7testing8internal11MatcherBaseIRKNSt7__cxx1112basic_stringIcSt11char_traitsIcESaIcEEEEC2IS9_EEPKNS_16MatcherInterfaceIT_EE
FN:274,277,_ZN7testing8internal11MatcherBaseIRKSt3mapINSt7__cxx1112basic_stringIcSt11char_traitsIcESaIcEEES8_St4lessIS8_ESaISt4pairIKS8_S8_EEEEC2ISH_EEPKNS_16MatcherInterfaceIT_EE
FN:274,277,_ZN7testing8internal11MatcherBaseIRKSt4pairIKNSt7__cxx1112basic_stringIcSt11char_traitsIcESaIcEEES8_EEC2ISC_EEPKNS_16MatcherInterfaceIT_EE
FN:274,277,_ZN7testing8internal11MatcherBaseIRKSt6vectorIaSaIaEEEC2IS6_EEPKNS_16MatcherInterfaceIT_EE
FN:274,277,_ZN7testing8internal11MatcherBaseIRKSt6vectorIiSaIiEEEC2IS6_EEPKNS_16MatcherInterfaceIT_EE
FN:274,277,_ZN7testing8internal11MatcherBaseIRKSt6vectorIlSaIlEEEC2IS6_EEPKNS_16MatcherInterfaceIT_EE
FN:274,277,_ZN7testing8internal11MatcherBaseIRKdEC2IS3_EEPKNS_16MatcherInterfaceIT_EE
FN:281,283,_ZN7testing8internal11MatcherBaseINSt7__cxx1112basic_stringIcSt11char_traitsIcESaIcEEEEC2INS0_9EqMatcherIS7_EEvEEOT_
FN:281,283,_ZN7testing8internal11MatcherBaseIRKNSt7__cxx1112basic_stringIcSt11char_traitsIcESaIcEEEEC2INS0_9EqMatcherIS7_EEvEEOT_
FN:281,283,_ZN7testing8internal11MatcherBaseIRKPSt3mapINSt7__cxx1112basic_stringIcSt11char_traitsIcESaIcEEES8_St4lessIS8_ESaISt4pairIKS8_S8_EEEEC2INS0_9EqMatcherISG_EEvEEOT_
FN:281,283,_ZN7testing8internal11MatcherBaseIRKSt17basic_string_viewIcSt11char_traitsIcEEEC2INS0_9EqMatcherINSt7__cxx1112basic_stringIcS4_SaIcEEEEEvEEOT_
FN:281,283,_ZN7testing8internal11MatcherBaseIRKaEC2INS0_9EqMatcherIaEEvEEOT_
FN:281,283,_ZN7testing8internal11MatcherBaseIRKdEC2IRKNS0_9GtMatcherIdEEvEEOT_
FN:281,283,_ZN7testing8internal11MatcherBaseIRKdEC2IRKNS0_9LtMatcherIiEEvEEOT_
FN:281,283,_ZN7testing8internal11MatcherBaseIRKiEC2INS0_9EqMatcherIiEEvEEOT_
FN:281,283,_ZN7testing8internal11MatcherBaseIRKlEC2INS0_9EqMatcherIlEEvEEOT_
FN:281,283,_ZN7testing8internal11MatcherBaseISt17basic_string_viewIcSt11char_traitsIcEEEC2INS0_9EqMatcherINSt7__cxx1112basic_stringIcS4_SaIcEEEEEvEEOT_
FN:285,288,_ZN7testing8internal11MatcherBaseIRKSt4pairIKNSt7__cxx1112basic_stringIcSt11char_traitsIcESaIcEEES8_EEC2ERKSD_
FN:285,288,_ZN7testing8internal11MatcherBaseIRKaEC2ERKS4_
FN:285,288,_ZN7testing8internal11MatcherBaseIRKdEC2ERKS4_
FN:285,288,_ZN7testing8internal11MatcherBaseIRKiEC2ERKS4_
FN:285,288,_ZN7testing8internal11MatcherBaseIRKlEC2ERKS4_
FN:299,302,_ZN7testing8internal11MatcherBaseIRKNSt7__cxx1112basic_stringIcSt11char_traitsIcESaIcEEEEC2EOSA_
FN:299,302,_ZN7testing8internal11MatcherBaseIRKSt4pairIKNSt7__cxx1112basic_stringIcSt11char_traitsIcESaIcEEES8_EEC2EOSD_
FN:299,302,_ZN7testing8internal11MatcherBaseIRKaEC2EOS4_
FN:299,302,_ZN7testing8internal11MatcherBaseIRKdEC2EOS4_
FN:299,302,_ZN7testing8internal11MatcherBaseIRKiEC2EOS4_
FN:299,302,_ZN7testing8internal11MatcherBaseIRKlEC2EOS4_
FN:304,311,_ZN7testing8internal11MatcherBaseINSt7__cxx1112basic_stringIcSt11char_traitsIcESaIcEEEEaSEOS8_
FN:304,311,_ZN7testing8internal11MatcherBaseIRKNSt7__cxx1112basic_stringIcSt11char_traitsIcESaIcEEEEaSEOSA_
FN:304,311,_ZN7testing8internal11MatcherBaseIRKPSt3mapINSt7__cxx1112basic_stringIcSt11char_traitsIcESaIcEEES8_St4lessIS8_ESaISt4pairIKS8_S8_EEEEaSEOSJ_
FN:304,311,_ZN7testing8internal11MatcherBaseIRKSt17basic_string_viewIcSt11char_traitsIcEEEaSEOS8_
FN:304,311,_ZN7testing8internal11MatcherBaseIRKaEaSEOS4_
FN:304,311,_ZN7testing8internal11MatcherBaseIRKiEaSEOS4_
FN:304,311,_ZN7testing8internal11MatcherBaseIRKlEaSEOS4_
FN:304,311,_ZN7testing8internal11MatcherBaseISt17basic_string_viewIcSt11char_traitsIcEEEaSEOS6_
FN:313,313,_ZN7testing8internal11MatcherBaseINSt7__cxx1112basic_stringIcSt11char_traitsIcESaIcEEEED0Ev
FN:313,313,_ZN7testing8internal11MatcherBaseINSt7__cxx1112basic_stringIcSt11char_traitsIcESaIcEEEED2Ev
FN:313,313,_ZN7testing8internal11MatcherBaseIRKNSt7__cxx1112basic_stringIcSt11char_traitsIcESaIcEEEED0Ev
FN:313,313,_ZN7testing8internal11MatcherBaseIRKNSt7__cxx1112basic_stringIcSt11char_traitsIcESaIcEEEED2Ev
FN:313,313,_ZN7testing8internal11MatcherBaseIRKPSt3mapINSt7__cxx1112basic_stringIcSt11char_traitsIcESaIcEEES8_St4lessIS8_ESaISt4pairIKS8_S8_EEEED0Ev
FN:313,313,_ZN7testing8internal11MatcherBaseIRKPSt3mapINSt7__cxx1112basic_stringIcSt11char_traitsIcESaIcEEES8_St4lessIS8_ESaISt4pairIKS8_S8_EEEED2Ev
FN:313,313,_ZN7testing8internal11MatcherBaseIRKSt17basic_string_viewIcSt11char_traitsIcEEED0Ev
FN:313,313,_ZN7testing8internal11MatcherBaseIRKSt17basic_string_viewIcSt11char_traitsIcEEED2Ev
FN:313,313,_ZN7testing8internal11MatcherBaseIRKSt3mapINSt7__cxx1112basic_stringIcSt11char_traitsIcESaIcEEES8_St4lessIS8_ESaISt4pairIKS8_S8_EEEED0Ev
FN:313,313,_ZN7testing8internal11MatcherBaseIRKSt3mapINSt7__cxx1112basic_stringIcSt11char_traitsIcESaIcEEES8_St4lessIS8_ESaISt4pairIKS8_S8_EEEED2Ev
FN:313,313,_ZN7testing8internal11MatcherBaseIRKSt4pairIKNSt7__cxx1112basic_stringIcSt11char_traitsIcESaIcEEES8_EED0Ev
FN:313,313,_ZN7testing8internal11MatcherBaseIRKSt4pairIKNSt7__cxx1112basic_stringIcSt11char_traitsIcESaIcEEES8_EED2Ev
FN:313,313,_ZN7testing8internal11MatcherBaseIRKSt6vectorIaSaIaEEED0Ev
FN:313,313,_ZN7testing8internal11MatcherBaseIRKSt6vectorIaSaIaEEED2Ev
FN:313,313,_ZN7testing8internal11MatcherBaseIRKSt6vectorIiSaIiEEED0Ev
FN:313,313,_ZN7testing8internal11MatcherBaseIRKSt6vectorIiSaIiEEED2Ev
FN:313,313,_ZN7testing8internal11MatcherBaseIRKSt6vectorIlSaIlEEED0Ev
FN:313,313,_ZN7testing8internal11MatcherBaseIRKSt6vectorIlSaIlEEED2Ev
FN:313,313,_ZN7testing8internal11MatcherBaseIRKaED0Ev
FN:313,313,_ZN7testing8internal11MatcherBaseIRKaED2Ev
FN:313,313,_ZN7testing8internal11MatcherBaseIRKdED0Ev
FN:313,313,_ZN7testing8internal11MatcherBaseIRKdED2Ev
FN:313,313,_ZN7testing8internal11MatcherBaseIRKiED0Ev
FN:313,313,_ZN7testing8internal11MatcherBaseIRKiED2Ev
FN:313,313,_ZN7testing8internal11MatcherBaseIRKlED0Ev
FN:313,313,_ZN7testing8internal11MatcherBaseIRKlED2Ev
FN:313,313,_ZN7testing8internal11MatcherBaseISt17basic_string_viewIcSt11char_traitsIcEEED0Ev
FN:313,313,_ZN7testing8internal11MatcherBaseISt17basic_string_viewIcSt11char_traitsIcEEED2Ev
FN:327,329,_ZNK7testing8internal11MatcherBaseINSt7__cxx1112basic_stringIcSt11char_traitsIcESaIcEEEE8IsSharedEv
FN:327,329,_ZNK7testing8internal11MatcherBaseIRKNSt7__cxx1112basic_stringIcSt11char_traitsIcESaIcEEEE8IsSharedEv
FN:327,329,_ZNK7testing8internal11MatcherBaseIRKPSt3mapINSt7__cxx1112basic_stringIcSt11char_traitsIcESaIcEEES8_St4lessIS8_ESaISt4pairIKS8_S8_EEEE8IsSharedEv
FN:327,329,_ZNK7testing8internal11MatcherBaseIRKSt17basic_string_viewIcSt11char_traitsIcEEE8IsSharedEv
FN:327,329,_ZNK7testing8internal11MatcherBaseIRKSt3mapINSt7__cxx1112basic_stringIcSt11char_traitsIcESaIcEEES8_St4lessIS8_ESaISt4pairIKS8_S8_EEEE8IsSharedEv
FN:327,329,_ZNK7testing8internal11MatcherBaseIRKSt4pairIKNSt7__cxx1112basic_stringIcSt11char_traitsIcESaIcEEES8_EE8IsSharedEv
FN:327,329,_ZNK7testing8internal11MatcherBaseIRKSt6vectorIaSaIaEEE8IsSharedEv
FN:327,329,_ZNK7testing8internal11MatcherBaseIRKSt6vectorIiSaIiEEE8IsSharedEv
FN:327,329,_ZNK7testing8internal11MatcherBaseIRKSt6vectorIlSaIlEEE8IsSharedEv
FN:327,329,_ZNK7testing8internal11MatcherBaseIRKaE8IsSharedEv
FN:327,329,_ZNK7testing8internal11MatcherBaseIRKdE8IsSharedEv
FN:327,329,_ZNK7testing8internal11MatcherBaseIRKiE8IsSharedEv
FN:327,329,_ZNK7testing8internal11MatcherBaseIRKlE8IsSharedEv
FN:327,329,_ZNK7testing8internal11MatcherBaseISt17basic_string_viewIcSt11char_traitsIcEEE8IsSharedEv
FN:333,337,_ZN7testing8internal11MatcherBaseINSt7__cxx1112basic_stringIcSt11char_traitsIcESaIcEEEE19MatchAndExplainImplINS8_11ValuePolicyINS0_9EqMatcherIS7_EELb0EEEEEDTcldtclsrT_3Getfp_E15MatchAndExplainfp0_clptfp1_L_ZNS_19MatchResultListener6streamEvEEEERKS8_RKS7_PSF_
FN:333,337,_ZN7testing8internal11MatcherBaseIRKNSt7__cxx1112basic_stringIcSt11char_traitsIcESaIcEEEE19MatchAndExplainImplINSA_11ValuePolicyINS0_9EqMatcherIS7_EELb0EEEEEDTcldtclsrT_3Getfp_E15MatchAndExplainfp0_clptfp1_L_ZNS_19MatchResultListener6streamEvEEEERKSA_S9_PSH_
FN:333,337,_ZN7testing8internal11MatcherBaseIRKPSt3mapINSt7__cxx1112basic_stringIcSt11char_traitsIcESaIcEEES8_St4lessIS8_ESaISt4pairIKS8_S8_EEEE19MatchAndExplainImplINSJ_11ValuePolicyINS0_9EqMatcherISG_EELb1EEEEEDTcldtclsrT_3Getfp_E15MatchAndExplainfp0_clptfp1_L_ZNS_19MatchResultListener6streamEvEEEERKSJ_SI_PSQ_
FN:333,337,_ZN7testing8internal11MatcherBaseIRKSt17basic_string_viewIcSt11char_traitsIcEEE19MatchAndExplainImplINS8_11ValuePolicyINS0_9EqMatcherINSt7__cxx1112basic_stringIcS4_SaIcEEEEELb0EEEEEDTcldtclsrT_3Getfp_E15MatchAndExplainfp0_clptfp1_L_ZNS_19MatchResultListener6streamEvEEEERKS8_S7_PSJ_
FN:333,337,_ZN7testing8internal11MatcherBaseIRKaE19MatchAndExplainImplINS4_11ValuePolicyINS0_9EqMatcherIaEELb1EEEEEDTcldtclsrT_3Getfp_E15MatchAndExplainfp0_clptfp1_L_ZNS_19MatchResultListener6streamEvEEEERKS4_S3_PSB_
FN:333,337,_ZN7testing8internal11MatcherBaseIRKdE19MatchAndExplainImplINS4_11ValuePolicyINS0_9GtMatcherIdEELb1EEEEEDTcldtclsrT_3Getfp_E15MatchAndExplainfp0_clptfp1_L_ZNS_19MatchResultListener6streamEvEEEERKS4_S3_PSB_
FN:333,337,_ZN7testing8internal11MatcherBaseIRKdE19MatchAndExplainImplINS4_11ValuePolicyINS0_9LtMatcherIiEELb1EEEEEDTcldtclsrT_3Getfp_E15MatchAndExplainfp0_clptfp1_L_ZNS_19MatchResultListener6streamEvEEEERKS4_S3_PSB_
FN:333,337,_ZN7testing8internal11MatcherBaseIRKiE19MatchAndExplainImplINS4_11ValuePolicyINS0_9EqMatcherIiEELb1EEEEEDTcldtclsrT_3Getfp_E15MatchAndExplainfp0_clptfp1_L_ZNS_19MatchResultListener6streamEvEEEERKS4_S3_PSB_
FN:333,337,_ZN7testing8internal11MatcherBaseIRKlE19MatchAndExplainImplINS4_11ValuePolicyINS0_9EqMatcherIlEELb1EEEEEDTcldtclsrT_3Getfp_E15MatchAndExplainfp0_clptfp1_L_ZNS_19MatchResultListener6streamEvEEEERKS4_S3_PSB_
FN:333,337,_ZN7testing8internal11MatcherBaseISt17basic_string_viewIcSt11char_traitsIcEEE19MatchAndExplainImplINS6_11ValuePolicyINS0_9EqMatcherINSt7__cxx1112basic_stringIcS4_SaIcEEEEELb0EEEEEDTcldtclsrT_3Getfp_E15MatchAndExplainfp0_clptfp1_L_ZNS_19MatchResultListener6streamEvEEEERKS6_RKS5_PSH_
FN:340,344,_ZN7testing8internal11MatcherBaseIRKNSt7__cxx1112basic_stringIcSt11char_traitsIcESaIcEEEE19MatchAndExplainImplINSA_11ValuePolicyIPKNS_16MatcherInterfaceIS9_EELb1EEEEEDTcldtclsrT_3Getfp_E15MatchAndExplainfp0_fp1_EERKSA_S9_PNS_19MatchResultListenerE
FN:340,344,_ZN7testing8internal11MatcherBaseIRKSt3mapINSt7__cxx1112basic_stringIcSt11char_traitsIcESaIcEEES8_St4lessIS8_ESaISt4pairIKS8_S8_EEEE19MatchAndExplainImplINSI_11ValuePolicyIPKNS_16MatcherInterfaceISH_EELb1EEEEEDTcldtclsrT_3Getfp_E15MatchAndExplainfp0_fp1_EERKSI_SH_PNS_19MatchResultListenerE
FN:340,344,_ZN7testing8internal11MatcherBaseIRKSt4pairIKNSt7__cxx1112basic_stringIcSt11char_traitsIcESaIcEEES8_EE19MatchAndExplainImplINSD_11ValuePolicyIPKNS_16MatcherInterfaceISC_EELb1EEEEEDTcldtclsrT_3Getfp_E15MatchAndExplainfp0_fp1_EERKSD_SC_PNS_19MatchResultListenerE
FN:340,344,_ZN7testing8internal11MatcherBaseIRKSt6vectorIaSaIaEEE19MatchAndExplainImplINS7_11ValuePolicyIPKNS_16MatcherInterfaceIS6_EELb1EEEEEDTcldtclsrT_3Getfp_E15MatchAndExplainfp0_fp1_EERKS7_S6_PNS_19MatchResultListenerE
FN:340,344,_ZN7testing8internal11MatcherBaseIRKSt6vectorIiSaIiEEE19MatchAndExplainImplINS7_11ValuePolicyIPKNS_16MatcherInterfaceIS6_EELb1EEEEEDTcldtclsrT_3Getfp_E15MatchAndExplainfp0_fp1_EERKS7_S6_PNS_19MatchResultListenerE
FN:340,344,_ZN7testing8internal11MatcherBaseIRKSt6vectorIlSaIlEEE19MatchAndExplainImplINS7_11ValuePolicyIPKNS_16MatcherInterfaceIS6_EELb1EEEEEDTcldtclsrT_3Getfp_E15MatchAndExplainfp0_fp1_EERKS7_S6_PNS_19MatchResultListenerE
FN:340,344,_ZN7testing8internal11MatcherBaseIRKdE19MatchAndExplainImplINS4_11ValuePolicyIPKNS_16MatcherInterfaceIS3_EELb1EEEEEDTcldtclsrT_3Getfp_E15MatchAndExplainfp0_fp1_EERKS4_S3_PNS_19MatchResultListenerE
FN:347,354,_ZN7testing8internal11MatcherBaseINSt7__cxx1112basic_stringIcSt11char_traitsIcESaIcEEEE12DescribeImplINS8_11ValuePolicyINS0_9EqMatcherIS7_EELb0EEEEEvRKS8_PSob
FN:347,354,_ZN7testing8internal11MatcherBaseIRKNSt7__cxx1112basic_stringIcSt11char_traitsIcESaIcEEEE12DescribeImplINSA_11ValuePolicyINS0_9EqMatcherIS7_EELb0EEEEEvRKSA_PSob
FN:347,354,_ZN7testing8internal11MatcherBaseIRKNSt7__cxx1112basic_stringIcSt11char_traitsIcESaIcEEEE12DescribeImplINSA_11ValuePolicyIPKNS_16MatcherInterfaceIS9_EELb1EEEEEvRKSA_PSob
FN:347,354,_ZN7testing8internal11MatcherBaseIRKPSt3mapINSt7__cxx1112basic_stringIcSt11char_traitsIcESaIcEEES8_St4lessIS8_ESaISt4pairIKS8_S8_EEEE12DescribeImplINSJ_11ValuePolicyINS0_9EqMatcherISG_EELb1EEEEEvRKSJ_PSob
FN:347,354,_ZN7testing8internal11MatcherBaseIRKSt17basic_string_viewIcSt11char_traitsIcEEE12DescribeImplINS8_11ValuePolicyINS0_9EqMatcherINSt7__cxx1112basic_stringIcS4_SaIcEEEEELb0EEEEEvRKS8_PSob
FN:347,354,_ZN7testing8internal11MatcherBaseIRKSt3mapINSt7__cxx1112basic_stringIcSt11char_traitsIcESaIcEEES8_St4lessIS8_ESaISt4pairIKS8_S8_EEEE12DescribeImplINSI_11ValuePolicyIPKNS_16MatcherInterfaceISH_EELb1EEEEEvRKSI_PSob
FN:347,354,_ZN7testing8internal11MatcherBaseIRKSt4pairIKNSt7__cxx1112basic_stringIcSt11char_traitsIcESaIcEEES8_EE12DescribeImplINSD_11ValuePolicyIPKNS_16MatcherInterfaceISC_EELb1EEEEEvRKSD_PSob
FN:347,354,_ZN7testing8internal11MatcherBaseIRKSt6vectorIaSaIaEEE12DescribeImplINS7_11ValuePolicyIPKNS_16MatcherInterfaceIS6_EELb1EEEEEvRKS7_PSob
FN:347,354,_ZN7testing8internal11MatcherBaseIRKSt6vectorIiSaIiEEE12DescribeImplINS7_11ValuePolicyIPKNS_16MatcherInterfaceIS6_EELb1EEEEEvRKS7_PSob
FN:347,354,_ZN7testing8internal11MatcherBaseIRKSt6vectorIlSaIlEEE12DescribeImplINS7_11ValuePolicyIPKNS_16MatcherInterfaceIS6_EELb1EEEEEvRKS7_PSob
FN:347,354,_ZN7testing8internal11MatcherBaseIRKaE12DescribeImplINS4_11ValuePolicyINS0_9EqMatcherIaEELb1EEEEEvRKS4_PSob
FN:347,354,_ZN7testing8internal11MatcherBaseIRKdE12DescribeImplINS4_11ValuePolicyINS0_9GtMatcherIdEELb1EEEEEvRKS4_PSob
FN:347,354,_ZN7testing8internal11MatcherBaseIRKdE12DescribeImplINS4_11ValuePolicyINS0_9LtMatcherIiEELb1EEEEEvRKS4_PSob
FN:347,354,_ZN7testing8internal11MatcherBaseIRKdE12DescribeImplINS4_11ValuePolicyIPKNS_16MatcherInterfaceIS3_EELb1EEEEEvRKS4_PSob
FN:347,354,_ZN7testing8internal11MatcherBaseIRKiE12DescribeImplINS4_11ValuePolicyINS0_9EqMatcherIiEELb1EEEEEvRKS4_PSob
FN:347,354,_ZN7testing8internal11MatcherBaseIRKlE12DescribeImplINS4_11ValuePolicyINS0_9EqMatcherIlEELb1EEEEEvRKS4_PSob
FN:347,354,_ZN7testing8internal11MatcherBaseISt17basic_string_viewIcSt11char_traitsIcEEE12DescribeImplINS6_11ValuePolicyINS0_9EqMatcherINSt7__cxx1112basic_stringIcS4_SaIcEEEEELb0EEEEEvRKS6_PSob
FN:357,370,_ZN7testing8internal11MatcherBaseINSt7__cxx1112basic_stringIcSt11char_traitsIcESaIcEEEE16GetDescriberImplINS8_11ValuePolicyINS0_9EqMatcherIS7_EELb0EEEEEPKNS_25MatcherDescriberInterfaceERKS8_
FN:357,370,_ZN7testing8internal11MatcherBaseIRKNSt7__cxx1112basic_stringIcSt11char_traitsIcESaIcEEEE16GetDescriberImplINSA_11ValuePolicyINS0_9EqMatcherIS7_EELb0EEEEEPKNS_25MatcherDescriberInterfaceERKSA_
FN:357,370,_ZN7testing8internal11MatcherBaseIRKNSt7__cxx1112basic_stringIcSt11char_traitsIcESaIcEEEE16GetDescriberImplINSA_11ValuePolicyIPKNS_16MatcherInterfaceIS9_EELb1EEEEEPKNS_25MatcherDescriberInterfaceERKSA_
FN:357,370,_ZN7testing8internal11MatcherBaseIRKPSt3mapINSt7__cxx1112basic_stringIcSt11char_traitsIcESaIcEEES8_St4lessIS8_ESaISt4pairIKS8_S8_EEEE16GetDescriberImplINSJ_11ValuePolicyINS0_9EqMatcherISG_EELb1EEEEEPKNS_25MatcherDescriberInterfaceERKSJ_
FN:357,370,_ZN7testing8internal11MatcherBaseIRKSt17basic_string_viewIcSt11char_traitsIcEEE16GetDescriberImplINS8_11ValuePolicyINS0_9EqMatcherINSt7__cxx1112basic_stringIcS4_SaIcEEEEELb0EEEEEPKNS_25MatcherDescriberInterfaceERKS8_
FN:357,370,_ZN7testing8internal11MatcherBaseIRKSt3mapINSt7__cxx1112basic_stringIcSt11char_traitsIcESaIcEEES8_St4lessIS8_ESaISt4pairIKS8_S8_EEEE16GetDescriberImplINSI_11ValuePolicyIPKNS_16MatcherInterfaceISH_EELb1EEEEEPKNS_25MatcherDescriberInterfaceERKSI_
FN:357,370,_ZN7testing8internal11MatcherBaseIRKSt4pairIKNSt7__cxx1112basic_stringIcSt11char_traitsIcESaIcEEES8_EE16GetDescriberImplINSD_11ValuePolicyIPKNS_16MatcherInterfaceISC_EELb1EEEEEPKNS_25MatcherDescriberInterfaceERKSD_
FN:357,370,_ZN7testing8internal11MatcherBaseIRKSt6vectorIaSaIaEEE16GetDescriberImplINS7_11ValuePolicyIPKNS_16MatcherInterfaceIS6_EELb1EEEEEPKNS_25MatcherDescriberInterfaceERKS7_
FN:357,370,_ZN7testing8internal11MatcherBaseIRKSt6vectorIiSaIiEEE16GetDescriberImplINS7_11ValuePolicyIPKNS_16MatcherInterfaceIS6_EELb1EEEEEPKNS_25MatcherDescriberInterfaceERKS7_
FN:357,370,_ZN7testing8internal11MatcherBaseIRKSt6vectorIlSaIlEEE16GetDescriberImplINS7_11ValuePolicyIPKNS_16MatcherInterfaceIS6_EELb1EEEEEPKNS_25MatcherDescriberInterfaceERKS7_
FN:357,370,_ZN7testing8internal11MatcherBaseIRKaE16GetDescriberImplINS4_11ValuePolicyINS0_9EqMatcherIaEELb1EEEEEPKNS_25MatcherDescriberInterfaceERKS4_
FN:357,370,_ZN7testing8internal11MatcherBaseIRKdE16GetDescriberImplINS4_11ValuePolicyINS0_9GtMatcherIdEELb1EEEEEPKNS_25MatcherDescriberInterfaceERKS4_
FN:357,370,_ZN7testing8internal11MatcherBaseIRKdE16GetDescriberImplINS4_11ValuePolicyINS0_9LtMatcherIiEELb1EEEEEPKNS_25MatcherDescriberInterfaceERKS4_
FN:357,370,_ZN7testing8internal11MatcherBaseIRKdE16GetDescriberImplINS4_11ValuePolicyIPKNS_16MatcherInterfaceIS3_EELb1EEEEEPKNS_25MatcherDescriberInterfaceERKS4_
FN:357,370,_ZN7testing8internal11MatcherBaseIRKiE16GetDescriberImplINS4_11ValuePolicyINS0_9EqMatcherIiEELb1EEEEEPKNS_25MatcherDescriberInterfaceERKS4_
FN:357,370,_ZN7testing8internal11MatcherBaseIRKlE16GetDescriberImplINS4_11ValuePolicyINS0_9EqMatcherIlEELb1EEEEEPKNS_25MatcherDescriberInterfaceERKS4_
FN:357,370,_ZN7testing8internal11MatcherBaseISt17basic_string_viewIcSt11char_traitsIcEEE16GetDescriberImplINS6_11ValuePolicyINS0_9EqMatcherINSt7__cxx1112basic_stringIcS4_SaIcEEEEELb0EEEEEPKNS_25MatcherDescriberInterfaceERKS6_
FN:373,378,_ZN7testing8internal11MatcherBaseINSt7__cxx1112basic_stringIcSt11char_traitsIcESaIcEEEE9GetVTableINS8_11ValuePolicyINS0_9EqMatcherIS7_EELb0EEEEEPKNS8_6VTableEv
FN:373,378,_ZN7testing8internal11MatcherBaseIRKNSt7__cxx1112basic_stringIcSt11char_traitsIcESaIcEEEE9GetVTableINSA_11ValuePolicyINS0_9EqMatcherIS7_EELb0EEEEEPKNSA_6VTableEv
FN:373,378,_ZN7testing8internal11MatcherBaseIRKNSt7__cxx1112basic_stringIcSt11char_traitsIcESaIcEEEE9GetVTableINSA_11ValuePolicyIPKNS_16MatcherInterfaceIS9_EELb1EEEEEPKNSA_6VTableEv
FN:373,378,_ZN7testing8internal11MatcherBaseIRKPSt3mapINSt7__cxx1112basic_stringIcSt11char_traitsIcESaIcEEES8_St4lessIS8_ESaISt4pairIKS8_S8_EEEE9GetVTableINSJ_11ValuePolicyINS0_9EqMatcherISG_EELb1EEEEEPKNSJ_6VTableEv
FN:373,378,_ZN7testing8internal11MatcherBaseIRKSt17basic_string_viewIcSt11char_traitsIcEEE9GetVTableINS8_11ValuePolicyINS0_9EqMatcherINSt7__cxx1112basic_stringIcS4_SaIcEEEEELb0EEEEEPKNS8_6VTableEv
FN:373,378,_ZN7testing8internal11MatcherBaseIRKSt3mapINSt7__cxx1112basic_stringIcSt11char_traitsIcESaIcEEES8_St4lessIS8_ESaISt4pairIKS8_S8_EEEE9GetVTableINSI_11ValuePolicyIPKNS_16MatcherInterfaceISH_EELb1EEEEEPKNSI_6VTableEv
FN:373,378,_ZN7testing8internal11MatcherBaseIRKSt4pairIKNSt7__cxx1112basic_stringIcSt11char_traitsIcESaIcEEES8_EE9GetVTableINSD_11ValuePolicyIPKNS_16MatcherInterfaceISC_EELb1EEEEEPKNSD_6VTableEv
FN:373,378,_ZN7testing8internal11MatcherBaseIRKSt6vectorIaSaIaEEE9GetVTableINS7_11ValuePolicyIPKNS_16MatcherInterfaceIS6_EELb1EEEEEPKNS7_6VTableEv
FN:373,378,_ZN7testing8internal11MatcherBaseIRKSt6vectorIiSaIiEEE9GetVTableINS7_11ValuePolicyIPKNS_16MatcherInterfaceIS6_EELb1EEEEEPKNS7_6VTableEv
FN:373,378,_ZN7testing8internal11MatcherBaseIRKSt6vectorIlSaIlEEE9GetVTableINS7_11ValuePolicyIPKNS_16MatcherInterfaceIS6_EELb1EEEEEPKNS7_6VTableEv
FN:373,378,_ZN7testing8internal11MatcherBaseIRKaE9GetVTableINS4_11ValuePolicyINS0_9EqMatcherIaEELb1EEEEEPKNS4_6VTableEv
FN:373,378,_ZN7testing8internal11MatcherBaseIRKdE9GetVTableINS4_11ValuePolicyINS0_9GtMatcherIdEELb1EEEEEPKNS4_6VTableEv
FN:373,378,_ZN7testing8internal11MatcherBaseIRKdE9GetVTableINS4_11ValuePolicyINS0_9LtMatcherIiEELb1EEEEEPKNS4_6VTableEv
FN:373,378,_ZN7testing8internal11MatcherBaseIRKdE9GetVTableINS4_11ValuePolicyIPKNS_16MatcherInterfaceIS3_EELb1EEEEEPKNS4_6VTableEv
FN:373,378,_ZN7testing8internal11MatcherBaseIRKiE9GetVTableINS4_11ValuePolicyINS0_9EqMatcherIiEELb1EEEEEPKNS4_6VTableEv
FN:373,378,_ZN7testing8internal11MatcherBaseIRKlE9GetVTableINS4_11ValuePolicyINS0_9EqMatcherIlEELb1EEEEEPKNS4_6VTableEv
FN:373,378,_ZN7testing8internal11MatcherBaseISt17basic_string_viewIcSt11char_traitsIcEEE9GetVTableINS6_11ValuePolicyINS0_9EqMatcherINSt7__cxx1112basic_stringIcS4_SaIcEEEEELb0EEEEEPKNS6_6VTableEv
FN:389,393,_ZN7testing8internal11MatcherBaseINSt7__cxx1112basic_stringIcSt11char_traitsIcESaIcEEEE7DestroyEv
FN:389,393,_ZN7testing8internal11MatcherBaseIRKNSt7__cxx1112basic_stringIcSt11char_traitsIcESaIcEEEE7DestroyEv
FN:389,393,_ZN7testing8internal11MatcherBaseIRKPSt3mapINSt7__cxx1112basic_stringIcSt11char_traitsIcESaIcEEES8_St4lessIS8_ESaISt4pairIKS8_S8_EEEE7DestroyEv
FN:389,393,_ZN7testing8internal11MatcherBaseIRKSt17basic_string_viewIcSt11char_traitsIcEEE7DestroyEv
FN:389,393,_ZN7testing8internal11MatcherBaseIRKSt3mapINSt7__cxx1112basic_stringIcSt11char_traitsIcESaIcEEES8_St4lessIS8_ESaISt4pairIKS8_S8_EEEE7DestroyEv
FN:389,393,_ZN7testing8internal11MatcherBaseIRKSt4pairIKNSt7__cxx1112basic_stringIcSt11char_traitsIcESaIcEEES8_EE7DestroyEv
FN:389,393,_ZN7testing8internal11MatcherBaseIRKSt6vectorIaSaIaEEE7DestroyEv
FN:389,393,_ZN7testing8internal11MatcherBaseIRKSt6vectorIiSaIiEEE7DestroyEv
FN:389,393,_ZN7testing8internal11MatcherBaseIRKSt6vectorIlSaIlEEE7DestroyEv
FN:389,393,_ZN7testing8internal11MatcherBaseIRKaE7DestroyEv
FN:389,393,_ZN7testing8internal11MatcherBaseIRKdE7DestroyEv
FN:389,393,_ZN7testing8internal11MatcherBaseIRKiE7DestroyEv
FN:389,393,_ZN7testing8internal11MatcherBaseIRKlE7DestroyEv
FN:389,393,_ZN7testing8internal11MatcherBaseISt17basic_string_viewIcSt11char_traitsIcEEE7DestroyEv
FN:404,410,_ZN7testing8internal11MatcherBaseIRKPSt3mapINSt7__cxx1112basic_stringIcSt11char_traitsIcESaIcEEES8_St4lessIS8_ESaISt4pairIKS8_S8_EEEE11ValuePolicyINS0_9EqMatcherISG_EELb1EE3GetERKSJ_
FN:404,410,_ZN7testing8internal11MatcherBaseIRKaE11ValuePolicyINS0_9EqMatcherIaEELb1EE3GetERKS4_
FN:404,410,_ZN7testing8internal11MatcherBaseIRKdE11ValuePolicyINS0_9GtMatcherIdEELb1EE3GetERKS4_
FN:404,410,_ZN7testing8internal11MatcherBaseIRKdE11ValuePolicyINS0_9LtMatcherIiEELb1EE3GetERKS4_
FN:404,410,_ZN7testing8internal11MatcherBaseIRKiE11ValuePolicyINS0_9EqMatcherIiEELb1EE3GetERKS4_
FN:404,410,_ZN7testing8internal11MatcherBaseIRKlE11ValuePolicyINS0_9EqMatcherIlEELb1EE3GetERKS4_
FN:411,413,_ZN7testing8internal11MatcherBaseIRKPSt3mapINSt7__cxx1112basic_stringIcSt11char_traitsIcESaIcEEES8_St4lessIS8_ESaISt4pairIKS8_S8_EEEE11ValuePolicyINS0_9EqMatcherISG_EELb1EE4InitERSJ_SM_
FN:411,413,_ZN7testing8internal11MatcherBaseIRKaE11ValuePolicyINS0_9EqMatcherIaEELb1EE4InitERS4_S7_
FN:411,413,_ZN7testing8internal11MatcherBaseIRKdE11ValuePolicyINS0_9GtMatcherIdEELb1EE4InitERS4_S7_
FN:411,413,_ZN7testing8internal11MatcherBaseIRKdE11ValuePolicyINS0_9LtMatcherIiEELb1EE4InitERS4_S7_
FN:411,413,_ZN7testing8internal11MatcherBaseIRKiE11ValuePolicyINS0_9EqMatcherIiEELb1EE4InitERS4_S7_
FN:411,413,_ZN7testing8internal11MatcherBaseIRKlE11ValuePolicyINS0_9EqMatcherIlEELb1EE4InitERS4_S7_
FN:420,422,_ZN7testing8internal11MatcherBaseINSt7__cxx1112basic_stringIcSt11char_traitsIcESaIcEEEE11ValuePolicyINS0_9EqMatcherIS7_EELb0EE3GetERKS8_
FN:420,422,_ZN7testing8internal11MatcherBaseIRKNSt7__cxx1112basic_stringIcSt11char_traitsIcESaIcEEEE11ValuePolicyINS0_9EqMatcherIS7_EELb0EE3GetERKSA_
FN:420,422,_ZN7testing8internal11MatcherBaseIRKSt17basic_string_viewIcSt11char_traitsIcEEE11ValuePolicyINS0_9EqMatcherINSt7__cxx1112basic_stringIcS4_SaIcEEEEELb0EE3GetERKS8_
FN:420,422,_ZN7testing8internal11MatcherBaseISt17basic_string_viewIcSt11char_traitsIcEEE11ValuePolicyINS0_9EqMatcherINSt7__cxx1112basic_stringIcS4_SaIcEEEEELb0EE3GetERKS6_
FN:424,426,_ZN7testing8internal11MatcherBaseINSt7__cxx1112basic_stringIcSt11char_traitsIcESaIcEEEE11ValuePolicyINS0_9EqMatcherIS7_EELb0EE4InitISB_EEvRS8_OT_
FN:424,426,_ZN7testing8internal11MatcherBaseIRKNSt7__cxx1112basic_stringIcSt11char_traitsIcESaIcEEEE11ValuePolicyINS0_9EqMatcherIS7_EELb0EE4InitISD_EEvRSA_OT_
FN:424,426,_ZN7testing8internal11MatcherBaseIRKSt17basic_string_viewIcSt11char_traitsIcEEE11ValuePolicyINS0_9EqMatcherINSt7__cxx1112basic_stringIcS4_SaIcEEEEELb0EE4InitISF_EEvRS8_OT_
FN:424,426,_ZN7testing8internal11MatcherBaseISt17basic_string_viewIcSt11char_traitsIcEEE11ValuePolicyINS0_9EqMatcherINSt7__cxx1112basic_stringIcS4_SaIcEEEEELb0EE4InitISD_EEvRS6_OT_
FN:434,436,_ZN7testing8internal11MatcherBaseIRKNSt7__cxx1112basic_stringIcSt11char_traitsIcESaIcEEEE11ValuePolicyIPKNS_16MatcherInterfaceIS9_EELb1EE3GetERKSA_
FN:434,436,_ZN7testing8internal11MatcherBaseIRKSt3mapINSt7__cxx1112basic_stringIcSt11char_traitsIcESaIcEEES8_St4lessIS8_ESaISt4pairIKS8_S8_EEEE11ValuePolicyIPKNS_16MatcherInterfaceISH_EELb1EE3GetERKSI_
FN:434,436,_ZN7testing8internal11MatcherBaseIRKSt4pairIKNSt7__cxx1112basic_stringIcSt11char_traitsIcESaIcEEES8_EE11ValuePolicyIPKNS_16MatcherInterfaceISC_EELb1EE3GetERKSD_
FN:434,436,_ZN7testing8internal11MatcherBaseIRKSt6vectorIaSaIaEEE11ValuePolicyIPKNS_16MatcherInterfaceIS6_EELb1EE3GetERKS7_
FN:434,436,_ZN7testing8internal11MatcherBaseIRKSt6vectorIiSaIiEEE11ValuePolicyIPKNS_16MatcherInterfaceIS6_EELb1EE3GetERKS7_
FN:434,436,_ZN7testing8internal11MatcherBaseIRKSt6vectorIlSaIlEEE11ValuePolicyIPKNS_16MatcherInterfaceIS6_EELb1EE3GetERKS7_
FN:434,436,_ZN7testing8internal11MatcherBaseIRKdE11ValuePolicyIPKNS_16MatcherInterfaceIS3_EELb1EE3GetERKS4_
FN:437,439,_ZN7testing8internal11MatcherBaseIRKNSt7__cxx1112basic_stringIcSt11char_traitsIcESaIcEEEE11ValuePolicyIPKNS_16MatcherInterfaceIS9_EELb1EE4InitERSA_SF_
FN:437,439,_ZN7testing8internal11MatcherBaseIRKSt3mapINSt7__cxx1112basic_stringIcSt11char_traitsIcESaIcEEES8_St4lessIS8_ESaISt4pairIKS8_S8_EEEE11ValuePolicyIPKNS_16MatcherInterfaceISH_EELb1EE4InitERSI_SN_
FN:437,439,_ZN7testing8internal11MatcherBaseIRKSt4pairIKNSt7__cxx1112basic_stringIcSt11char_traitsIcESaIcEEES8_EE11ValuePolicyIPKNS_16MatcherInterfaceISC_EELb1EE4InitERSD_SI_
FN:437,439,_ZN7testing8internal11MatcherBaseIRKSt6vectorIaSaIaEEE11ValuePolicyIPKNS_16MatcherInterfaceIS6_EELb1EE4InitERS7_SC_
FN:437,439,_ZN7testing8internal11MatcherBaseIRKSt6vectorIiSaIiEEE11ValuePolicyIPKNS_16MatcherInterfaceIS6_EELb1EE4InitERS7_SC_
FN:437,439,_ZN7testing8internal11MatcherBaseIRKSt6vectorIlSaIlEEE11ValuePolicyIPKNS_16MatcherInterfaceIS6_EELb1EE4InitERS7_SC_
FN:437,439,_ZN7testing8internal11MatcherBaseIRKdE11ValuePolicyIPKNS_16MatcherInterfaceIS3_EELb1EE4InitERS4_S9_
FN:445,450,_ZN7testing8internal11MatcherBaseINSt7__cxx1112basic_stringIcSt11char_traitsIcESaIcEEEE4InitINS0_9EqMatcherIS7_EEEEvOT_
FN:445,450,_ZN7testing8internal11MatcherBaseIRKNSt7__cxx1112basic_stringIcSt11char_traitsIcESaIcEEEE4InitINS0_9EqMatcherIS7_EEEEvOT_
FN:445,450,_ZN7testing8internal11MatcherBaseIRKNSt7__cxx1112basic_stringIcSt11char_traitsIcESaIcEEEE4InitIRPKNS_16MatcherInterfaceIS9_EEEEvOT_
FN:445,450,_ZN7testing8internal11MatcherBaseIRKPSt3mapINSt7__cxx1112basic_stringIcSt11char_traitsIcESaIcEEES8_St4lessIS8_ESaISt4pairIKS8_S8_EEEE4InitINS0_9EqMatcherISG_EEEEvOT_
FN:445,450,_ZN7testing8internal11MatcherBaseIRKSt17basic_string_viewIcSt11char_traitsIcEEE4InitINS0_9EqMatcherINSt7__cxx1112basic_stringIcS4_SaIcEEEEEEEvOT_
FN:445,450,_ZN7testing8internal11MatcherBaseIRKSt3mapINSt7__cxx1112basic_stringIcSt11char_traitsIcESaIcEEES8_St4lessIS8_ESaISt4pairIKS8_S8_EEEE4InitIRPKNS_16MatcherInterfaceISH_EEEEvOT_
FN:445,450,_ZN7testing8internal11MatcherBaseIRKSt4pairIKNSt7__cxx1112basic_stringIcSt11char_traitsIcESaIcEEES8_EE4InitIRPKNS_16MatcherInterfaceISC_EEEEvOT_
FN:445,450,_ZN7testing8internal11MatcherBaseIRKSt6vectorIaSaIaEEE4InitIRPKNS_16MatcherInterfaceIS6_EEEEvOT_
FN:445,450,_ZN7testing8internal11MatcherBaseIRKSt6vectorIiSaIiEEE4InitIRPKNS_16MatcherInterfaceIS6_EEEEvOT_
FN:445,450,_ZN7testing8internal11MatcherBaseIRKSt6vectorIlSaIlEEE4InitIRPKNS_16MatcherInterfaceIS6_EEEEvOT_
FN:445,450,_ZN7testing8internal11MatcherBaseIRKaE4InitINS0_9EqMatcherIaEEEEvOT_
FN:445,450,_ZN7testing8internal11MatcherBaseIRKdE4InitIRKNS0_9GtMatcherIdEEEEvOT_
FN:445,450,_ZN7testing8internal11MatcherBaseIRKdE4InitIRKNS0_9LtMatcherIiEEEEvOT_
FN:445,450,_ZN7testing8internal11MatcherBaseIRKdE4InitIRPKNS_16MatcherInterfaceIS3_EEEEvOT_
FN:445,450,_ZN7testing8internal11MatcherBaseIRKiE4InitINS0_9EqMatcherIiEEEEvOT_
FN:445,450,_ZN7testing8internal11MatcherBaseIRKlE4InitINS0_9EqMatcherIlEEEEvOT_
FN:445,450,_ZN7testing8internal11MatcherBaseISt17basic_string_viewIcSt11char_traitsIcEEE4InitINS0_9EqMatcherINSt7__cxx1112basic_stringIcS4_SaIcEEEEEEEvOT_
FN:471,472,_ZN7testing7MatcherIRKSt3mapINSt7__cxx1112basic_stringIcSt11char_traitsIcESaIcEEES7_St4lessIS7_ESaISt4pairIKS7_S7_EEEEC2EPKNS_16MatcherInterfaceISG_EE
FN:471,472,_ZN7testing7MatcherIRKSt4pairIKNSt7__cxx1112basic_stringIcSt11char_traitsIcESaIcEEES7_EEC2EPKNS_16MatcherInterfaceISB_EE
FN:471,472,_ZN7testing7MatcherIRKSt6vectorIaSaIaEEEC2EPKNS_16MatcherInterfaceIS5_EE
FN:471,472,_ZN7testing7MatcherIRKSt6vectorIiSaIiEEEC2EPKNS_16MatcherInterfaceIS5_EE
FN:471,472,_ZN7testing7MatcherIRKSt6vectorIlSaIlEEEC2EPKNS_16MatcherInterfaceIS5_EE
FN:471,472,_ZN7testing7MatcherIRKdEC2EPKNS_16MatcherInterfaceIS2_EE
FN:483,483,_ZN7testing7MatcherIRKPSt3mapINSt7__cxx1112basic_stringIcSt11char_traitsIcESaIcEEES7_St4lessIS7_ESaISt4pairIKS7_S7_EEEEC2INS_8internal9EqMatcherISF_EEvEEOT_
FN:483,483,_ZN7testing7MatcherIRKaEC2INS_8internal9EqMatcherIaEEvEEOT_
FN:483,483,_ZN7testing7MatcherIRKdEC2IRKNS_8internal9GtMatcherIdEEvEEOT_
FN:483,483,_ZN7testing7MatcherIRKdEC2IRKNS_8internal9LtMatcherIiEEvEEOT_
FN:483,483,_ZN7testing7MatcherIRKiEC2INS_8internal9EqMatcherIiEEvEEOT_
FN:483,483,_ZN7testing7MatcherIRKlEC2INS_8internal9EqMatcherIlEEvEEOT_
FN:499,500,_ZN7testing7MatcherIRKNSt7__cxx1112basic_stringIcSt11char_traitsIcESaIcEEEEC2EPKNS_16MatcherInterfaceIS8_EE
FN:504,505,_ZN7testing7MatcherIRKNSt7__cxx1112basic_stringIcSt11char_traitsIcESaIcEEEEC2INS_8internal9EqMatcherIS6_EEvEEOT_
FN:528,529,_ZN7testing7MatcherINSt7__cxx1112basic_stringIcSt11char_traitsIcESaIcEEEEC2INS_8internal9EqMatcherIS6_EEvEEOT_
FN:554,556,_ZN7testing7MatcherIRKSt17basic_string_viewIcSt11char_traitsIcEEEC2INS_8internal9EqMatcherINSt7__cxx1112basic_stringIcS3_SaIcEEEEEvEEOT_
FN:582,583,_ZN7testing7MatcherISt17basic_string_viewIcSt11char_traitsIcEEEC2INS_8internal9EqMatcherINSt7__cxx1112basic_stringIcS3_SaIcEEEEEvEEOT_
FN:619,619,_ZN7testing18PolymorphicMatcherINS_8internal19MatchesRegexMatcherEEC2ERKS2_
FN:630,632,_ZNK7testing18PolymorphicMatcherINS_8internal19MatchesRegexMatcherEEcvNS_7MatcherIT_EEIRKNSt7__cxx1112basic_stringIcSt11char_traitsIcESaIcEEEEEv
FN:638,638,_ZN7testing18PolymorphicMatcherINS_8internal19MatchesRegexMatcherEE15MonomorphicImplIRKNSt7__cxx1112basic_stringIcSt11char_traitsIcESaIcEEEEC2ERKS2_
FN:640,640,_ZNK7testing18PolymorphicMatcherINS_8internal19MatchesRegexMatcherEE15MonomorphicImplIRKNSt7__cxx1112basic_stringIcSt11char_traitsIcESaIcEEEE10DescribeToEPSo
FN:642,644,_ZNK7testing18PolymorphicMatcherINS_8internal19MatchesRegexMatcherEE15MonomorphicImplIRKNSt7__cxx1112basic_stringIcSt11char_traitsIcESaIcEEEE18DescribeNegationToEPSo
FN:646,648,_ZNK7testing18PolymorphicMatcherINS_8internal19MatchesRegexMatcherEE15MonomorphicImplIRKNSt7__cxx1112basic_stringIcSt11char_traitsIcESaIcEEEE15MatchAndExplainESC_PNS_19MatchResultListenerE
FN:676,678,_ZN7testing22MakePolymorphicMatcherINS_8internal19MatchesRegexMatcherEEENS_18PolymorphicMatcherIT_EERKS4_
FN:694,694,_ZN7testing8internal14ComparisonBaseINS0_9EqMatcherINSt7__cxx1112basic_stringIcSt11char_traitsIcESaIcEEEEES8_St8equal_toIvEEC2ERKS8_
FN:694,694,_ZN7testing8internal14ComparisonBaseINS0_9EqMatcherIPSt3mapINSt7__cxx1112basic_stringIcSt11char_traitsIcESaIcEEES9_St4lessIS9_ESaISt4pairIKS9_S9_EEEEESH_St8equal_toIvEEC2ERKSH_
FN:694,694,_ZN7testing8internal14ComparisonBaseINS0_9EqMatcherIaEEaSt8equal_toIvEEC2ERKa
FN:694,694,_ZN7testing8internal14ComparisonBaseINS0_9EqMatcherIiEEiSt8equal_toIvEEC2ERKi
FN:694,694,_ZN7testing8internal14ComparisonBaseINS0_9EqMatcherIlEElSt8equal_toIvEEC2ERKl
FN:694,694,_ZN7testing8internal14ComparisonBaseINS0_9GtMatcherIdEEdSt7greaterIvEEC2ERKd
FN:694,694,_ZN7testing8internal14ComparisonBaseINS0_9LtMatcherIiEEiSt4lessIvEEC2ERKi
FN:699,701,_ZNK7testing8internal14ComparisonBaseINS0_9EqMatcherINSt7__cxx1112basic_stringIcSt11char_traitsIcESaIcEEEEES8_St8equal_toIvEE15MatchAndExplainIS8_EEbRKT_PSo
FN:699,701,_ZNK7testing8internal14ComparisonBaseINS0_9EqMatcherINSt7__cxx1112basic_stringIcSt11char_traitsIcESaIcEEEEES8_St8equal_toIvEE15MatchAndExplainISt17basic_string_viewIcS6_EEEbRKT_PSo
FN:699,701,_ZNK7testing8internal14ComparisonBaseINS0_9EqMatcherIPSt3mapINSt7__cxx1112basic_stringIcSt11char_traitsIcESaIcEEES9_St4lessIS9_ESaISt4pairIKS9_S9_EEEEESH_St8equal_toIvEE15MatchAndExplainISH_EEbRKT_PSo
FN:699,701,_ZNK7testing8internal14ComparisonBaseINS0_9EqMatcherIaEEaSt8equal_toIvEE15MatchAndExplainIaEEbRKT_PSo
FN:699,701,_ZNK7testing8internal14ComparisonBaseINS0_9EqMatcherIiEEiSt8equal_toIvEE15MatchAndExplainIiEEbRKT_PSo
FN:699,701,_ZNK7testing8internal14ComparisonBaseINS0_9EqMatcherIlEElSt8equal_toIvEE15MatchAndExplainIlEEbRKT_PSo
FN:699,701,_ZNK7testing8internal14ComparisonBaseINS0_9GtMatcherIdEEdSt7greaterIvEE15MatchAndExplainIdEEbRKT_PSo
FN:699,701,_ZNK7testing8internal14ComparisonBaseINS0_9LtMatcherIiEEiSt4lessIvEE15MatchAndExplainIdEEbRKT_PSo
FN:702,705,_ZNK7testing8internal14ComparisonBaseINS0_9EqMatcherINSt7__cxx1112basic_stringIcSt11char_traitsIcESaIcEEEEES8_St8equal_toIvEE10DescribeToEPSo
FN:702,705,_ZNK7testing8internal14ComparisonBaseINS0_9EqMatcherIPSt3mapINSt7__cxx1112basic_stringIcSt11char_traitsIcESaIcEEES9_St4lessIS9_ESaISt4pairIKS9_S9_EEEEESH_St8equal_toIvEE10DescribeToEPSo
FN:702,705,_ZNK7testing8internal14ComparisonBaseINS0_9EqMatcherIaEEaSt8equal_toIvEE10DescribeToEPSo
FN:702,705,_ZNK7testing8internal14ComparisonBaseINS0_9EqMatcherIiEEiSt8equal_toIvEE10DescribeToEPSo
FN:702,705,_ZNK7testing8internal14ComparisonBaseINS0_9EqMatcherIlEElSt8equal_toIvEE10DescribeToEPSo
FN:702,705,_ZNK7testing8internal14ComparisonBaseINS0_9GtMatcherIdEEdSt7greaterIvEE10DescribeToEPSo
FN:702,705,_ZNK7testing8internal14ComparisonBaseINS0_9LtMatcherIiEEiSt4lessIvEE10DescribeToEPSo
FN:706,709,_ZNK7testing8internal14ComparisonBaseINS0_9EqMatcherINSt7__cxx1112basic_stringIcSt11char_traitsIcESaIcEEEEES8_St8equal_toIvEE18DescribeNegationToEPSo
FN:706,709,_ZNK7testing8internal14ComparisonBaseINS0_9EqMatcherIPSt3mapINSt7__cxx1112basic_stringIcSt11char_traitsIcESaIcEEES9_St4lessIS9_ESaISt4pairIKS9_S9_EEEEESH_St8equal_toIvEE18DescribeNegationToEPSo
FN:706,709,_ZNK7testing8internal14ComparisonBaseINS0_9EqMatcherIaEEaSt8equal_toIvEE18DescribeNegationToEPSo
FN:706,709,_ZNK7testing8internal14ComparisonBaseINS0_9EqMatcherIiEEiSt8equal_toIvEE18DescribeNegationToEPSo
FN:706,709,_ZNK7testing8internal14ComparisonBaseINS0_9EqMatcherIlEElSt8equal_toIvEE18DescribeNegationToEPSo
FN:706,709,_ZNK7testing8internal14ComparisonBaseINS0_9GtMatcherIdEEdSt7greaterIvEE18DescribeNegationToEPSo
FN:706,709,_ZNK7testing8internal14ComparisonBaseINS0_9LtMatcherIiEEiSt4lessIvEE18DescribeNegationToEPSo
FN:713,715,_ZN7testing8internal14ComparisonBaseINS0_9EqMatcherINSt7__cxx1112basic_stringIcSt11char_traitsIcESaIcEEEEES8_St8equal_toIvEE6UnwrapIS8_EERKT_SG_
FN:713,715,_ZN7testing8internal14ComparisonBaseINS0_9EqMatcherIPSt3mapINSt7__cxx1112basic_stringIcSt11char_traitsIcESaIcEEES9_St4lessIS9_ESaISt4pairIKS9_S9_EEEEESH_St8equal_toIvEE6UnwrapISH_EERKT_SP_
FN:713,715,_ZN7testing8internal14ComparisonBaseINS0_9EqMatcherIaEEaSt8equal_toIvEE6UnwrapIaEERKT_SA_
FN:713,715,_ZN7testing8internal14ComparisonBaseINS0_9EqMatcherIiEEiSt8equal_toIvEE6UnwrapIiEERKT_SA_
FN:713,715,_ZN7testing8internal14ComparisonBaseINS0_9EqMatcherIlEElSt8equal_toIvEE6UnwrapIlEERKT_SA_
FN:713,715,_ZN7testing8internal14ComparisonBaseINS0_9GtMatcherIdEEdSt7greaterIvEE6UnwrapIdEERKT_SA_
FN:713,715,_ZN7testing8internal14ComparisonBaseINS0_9LtMatcherIiEEiSt4lessIvEE6UnwrapIiEERKT_SA_
FN:727,728,_ZN7testing8internal9EqMatcherINSt7__cxx1112basic_stringIcSt11char_traitsIcESaIcEEEEC2ERKS7_
FN:727,728,_ZN7testing8internal9EqMatcherIPSt3mapINSt7__cxx1112basic_stringIcSt11char_traitsIcESaIcEEES8_St4lessIS8_ESaISt4pairIKS8_S8_EEEEC2ERKSG_
FN:727,728,_ZN7testing8internal9EqMatcherIaEC2ERKa
FN:727,728,_ZN7testing8internal9EqMatcherIiEC2ERKi
FN:727,728,_ZN7testing8internal9EqMatcherIlEC2ERKl
FN:729,729,_ZN7testing8internal9EqMatcherINSt7__cxx1112basic_stringIcSt11char_traitsIcESaIcEEEE4DescEv
FN:729,729,_ZN7testing8internal9EqMatcherIPSt3mapINSt7__cxx1112basic_stringIcSt11char_traitsIcESaIcEEES8_St4lessIS8_ESaISt4pairIKS8_S8_EEEE4DescEv
FN:729,729,_ZN7testing8internal9EqMatcherIaE4DescEv
FN:729,729,_ZN7testing8internal9EqMatcherIiE4DescEv
FN:729,729,_ZN7testing8internal9EqMatcherIlE4DescEv
FN:730,730,_ZN7testing8internal9EqMatcherINSt7__cxx1112basic_stringIcSt11char_traitsIcESaIcEEEE11NegatedDescEv
FN:730,730,_ZN7testing8internal9EqMatcherIPSt3mapINSt7__cxx1112basic_stringIcSt11char_traitsIcESaIcEEES8_St4lessIS8_ESaISt4pairIKS8_S8_EEEE11NegatedDescEv
FN:730,730,_ZN7testing8internal9EqMatcherIaE11NegatedDescEv
FN:730,730,_ZN7testing8internal9EqMatcherIiE11NegatedDescEv
FN:730,730,_ZN7testing8internal9EqMatcherIlE11NegatedDescEv
FN:744,745,_ZN7testing8internal9LtMatcherIiEC2ERKi
FN:746,746,_ZN7testing8internal9LtMatcherIiE4DescEv
FN:747,747,_ZN7testing8internal9LtMatcherIiE11NegatedDescEv
FN:752,753,_ZN7testing8internal9GtMatcherIdEC2ERKd
FN:754,754,_ZN7testing8internal9GtMatcherIdE4DescEv
FN:755,755,_ZN7testing8internal9GtMatcherIdE11NegatedDescEv
FN:785,786,_ZN7testing8internal19MatchesRegexMatcherC2EPKNS0_2REEb
FN:810,815,_ZNK7testing8internal19MatchesRegexMatcher15MatchAndExplainINSt7__cxx1112basic_stringIcSt11char_traitsIcESaIcEEEEEbRKT_PNS_19MatchResultListenerE
FN:817,820,_ZNK7testing8internal19MatchesRegexMatcher10DescribeToEPSo
FN:822,826,_ZNK7testing8internal19MatchesRegexMatcher18DescribeNegationToEPSo
FN:83,83,_ZN7testing19MatchResultListenerC2EPSo
FN:836,839,_ZN7testing12MatchesRegexEPKNS_8internal2REE
FN:841,844,_ZN7testing12MatchesRegexINSt7__cxx1112basic_stringIcSt11char_traitsIcESaIcEEEEENS_18PolymorphicMatcherINS_8internal19MatchesRegexMatcherEEERKT_
FN:848,851,_ZN7testing13ContainsRegexEPKNS_8internal2REE
FN:853,856,_ZN7testing13ContainsRegexIPKcEENS_18PolymorphicMatcherINS_8internal19MatchesRegexMatcherEEERKT_
FN:862,864,_ZN7testing2EqINSt7__cxx1112basic_stringIcSt11char_traitsIcESaIcEEEEENS_8internal9EqMatcherIT_EES9_
FN:862,864,_ZN7testing2EqIPSt3mapINSt7__cxx1112basic_stringIcSt11char_traitsIcESaIcEEES7_St4lessIS7_ESaISt4pairIKS7_S7_EEEEENS_8internal9EqMatcherIT_EESI_
FN:862,864,_ZN7testing2EqIaEENS_8internal9EqMatcherIT_EES3_
FN:862,864,_ZN7testing2EqIiEENS_8internal9EqMatcherIT_EES3_
FN:862,864,_ZN7testing2EqIlEENS_8internal9EqMatcherIT_EES3_
FN:869,871,_ZN7testing7MatcherIRKPSt3mapINSt7__cxx1112basic_stringIcSt11char_traitsIcESaIcEEES7_St4lessIS7_ESaISt4pairIKS7_S7_EEEEC2ESH_
FN:869,871,_ZN7testing7MatcherIRKaEC2ES2_
FN:869,871,_ZN7testing7MatcherIRKiEC2ES2_
FN:869,871,_ZN7testing7MatcherIRKlEC2ES2_
FN:89,92,_ZN7testing19MatchResultListenerlsIA10_cEERS0_RKT_
FN:89,92,_ZN7testing19MatchResultListenerlsIA11_cEERS0_RKT_
FN:89,92,_ZN7testing19MatchResultListenerlsIA13_cEERS0_RKT_
FN:89,92,_ZN7testing19MatchResultListenerlsIA15_cEERS0_RKT_
FN:89,92,_ZN7testing19MatchResultListenerlsIA16_cEERS0_RKT_
FN:89,92,_ZN7testing19MatchResultListenerlsIA24_cEERS0_RKT_
FN:89,92,_ZN7testing19MatchResultListenerlsIA25_cEERS0_RKT_
FN:89,92,_ZN7testing19MatchResultListenerlsIA29_cEERS0_RKT_
FN:89,92,_ZN7testing19MatchResultListenerlsIA30_cEERS0_RKT_
FN:89,92,_ZN7testing19MatchResultListenerlsIA33_cEERS0_RKT_
FN:89,92,_ZN7testing19MatchResultListenerlsIA34_cEERS0_RKT_
FN:89,92,_ZN7testing19MatchResultListenerlsIA36_cEERS0_RKT_
FN:89,92,_ZN7testing19MatchResultListenerlsIA3_cEERS0_RKT_
FN:89,92,_ZN7testing19MatchResultListenerlsIA5_cEERS0_RKT_
FN:89,92,_ZN7testing19MatchResultListenerlsIA65_cEERS0_RKT_
FN:89,92,_ZN7testing19MatchResultListenerlsIA7_cEERS0_RKT_
FN:89,92,_ZN7testing19MatchResultListenerlsIA89_cEERS0_RKT_
FN:89,92,_ZN7testing19MatchResultListenerlsINS_7MessageEEERS0_RKT_
FN:89,92,_ZN7testing19MatchResultListenerlsINSt7__cxx1112basic_stringIcSt11char_traitsIcESaIcEEEEERS0_RKT_
FN:89,92,_ZN7testing19MatchResultListenerlsIPKcEERS0_RKT_
FN:89,92,_ZN7testing19MatchResultListenerlsImEERS0_RKT_
FN:898,900,_ZN7testing2GtIdEENS_8internal9GtMatcherIT_EES3_
FN:910,912,_ZN7testing2LtIiEENS_8internal9LtMatcherIT_EES3_
FN:95,95,_ZN7testing19MatchResultListener6streamEv
FNDA:40,_ZNK7testing19MatchResultListener12IsInterestedEv
FNDA:0,_ZN7testing19MatchResultListenerD0Ev
FNDA:174,_ZN7testing19MatchResultListenerD2Ev
FNDA:0,_ZN7testing25MatcherDescriberInterfaceD0Ev
FNDA:785,_ZN7testing25MatcherDescriberInterfaceD2Ev
FNDA:0,_ZNK7testing25MatcherDescriberInterface18DescribeNegationToEPSo
FNDA:174,_ZN7testing8internal24DummyMatchResultListenerC2Ev
FNDA:10,_ZN7testing8internal17SharedPayloadBase3RefEv
FNDA:78,_ZN7testing8internal17SharedPayloadBase5UnrefEv
FNDA:16,_ZN7testing8internal13SharedPayloadINS0_9EqMatcherINSt7__cxx1112basic_stringIcSt11char_traitsIcESaIcEEEEEEC2EOS9_
FNDA:20,_ZN7testing8internal13SharedPayloadISt10unique_ptrIKNS_16MatcherInterfaceIRKNSt7__cxx1112basic_stringIcSt11char_traitsIcESaIcEEEEESt14default_deleteISD_EEEC2EOSG_
FNDA:6,_ZN7testing8internal13SharedPayloadISt10unique_ptrIKNS_16MatcherInterfaceIRKSt3mapINSt7__cxx1112basic_stringIcSt11char_traitsIcESaIcEEESA_St4lessISA_ESaISt4pairIKSA_SA_EEEEESt14default_deleteISL_EEEC2EOSO_
FNDA:8,_ZN7testing8internal13SharedPayloadISt10unique_ptrIKNS_16MatcherInterfaceIRKSt4pairIKNSt7__cxx1112basic_stringIcSt11char_traitsIcESaIcEEESA_EEESt14default_deleteISG_EEEC2EOSJ_
FNDA:2,_ZN7testing8internal13SharedPayloadISt10unique_ptrIKNS_16MatcherInterfaceIRKSt6vectorIaSaIaEEEESt14default_deleteISA_EEEC2EOSD_
FNDA:10,_ZN7testing8internal13SharedPayloadISt10unique_ptrIKNS_16MatcherInterfaceIRKSt6vectorIiSaIiEEEESt14default_deleteISA_EEEC2EOSD_
FNDA:6,_ZN7testing8internal13SharedPayloadISt10unique_ptrIKNS_16MatcherInterfaceIRKSt6vectorIlSaIlEEEESt14default_deleteISA_EEEC2EOSD_
FNDA:0,_ZN7testing8internal13SharedPayloadISt10unique_ptrIKNS_16MatcherInterfaceIRKdEESt14default_deleteIS7_EEEC2EOSA_
FNDA:16,_ZN7testing8internal13SharedPayloadINS0_9EqMatcherINSt7__cxx1112basic_stringIcSt11char_traitsIcESaIcEEEEEE7DestroyEPNS0_17SharedPayloadBaseE
FNDA:20,_ZN7testing8internal13SharedPayloadISt10unique_ptrIKNS_16MatcherInterfaceIRKNSt7__cxx1112basic_stringIcSt11char_traitsIcESaIcEEEEESt14default_deleteISD_EEE7DestroyEPNS0_17SharedPayloadBaseE
FNDA:6,_ZN7testing8internal13SharedPayloadISt10unique_ptrIKNS_16MatcherInterfaceIRKSt3mapINSt7__cxx1112basic_stringIcSt11char_traitsIcESaIcEEESA_St4lessISA_ESaISt4pairIKSA_SA_EEEEESt14default_deleteISL_EEE7DestroyEPNS0_17SharedPayloadBaseE
FNDA:8,_ZN7testing8internal13SharedPayloadISt10unique_ptrIKNS_16MatcherInterfaceIRKSt4pairIKNSt7__cxx1112basic_stringIcSt11char_traitsIcESaIcEEESA_EEESt14default_deleteISG_EEE7DestroyEPNS0_17SharedPayloadBaseE
FNDA:2,_ZN7testing8internal13SharedPayloadISt10unique_ptrIKNS_16MatcherInterfaceIRKSt6vectorIaSaIaEEEESt14default_deleteISA_EEE7DestroyEPNS0_17SharedPayloadBaseE
FNDA:10,_ZN7testing8internal13SharedPayloadISt10unique_ptrIKNS_16MatcherInterfaceIRKSt6vectorIiSaIiEEEESt14default_deleteISA_EEE7DestroyEPNS0_17SharedPayloadBaseE
FNDA:6,_ZN7testing8internal13SharedPayloadISt10unique_ptrIKNS_16MatcherInterfaceIRKSt6vectorIlSaIlEEEESt14default_deleteISA_EEE7DestroyEPNS0_17SharedPayloadBaseE
FNDA:0,_ZN7testing8internal13SharedPayloadISt10unique_ptrIKNS_16MatcherInterfaceIRKdEESt14default_deleteIS7_EEE7DestroyEPNS0_17SharedPayloadBaseE
FNDA:40,_ZNK7testing8internal11MatcherBaseIRKNSt7__cxx1112basic_stringIcSt11char_traitsIcESaIcEEEE15MatchAndExplainES9_PNS_19MatchResultListenerE
FNDA:2,_ZNK7testing8internal11MatcherBaseIRKPSt3mapINSt7__cxx1112basic_stringIcSt11char_traitsIcESaIcEEES8_St4lessIS8_ESaISt4pairIKS8_S8_EEEE15MatchAndExplainESI_PNS_19MatchResultListenerE
FNDA:6,_ZNK7testing8internal11MatcherBaseIRKSt3mapINSt7__cxx1112basic_stringIcSt11char_traitsIcESaIcEEES8_St4lessIS8_ESaISt4pairIKS8_S8_EEEE15MatchAndExplainESH_PNS_19MatchResultListenerE
FNDA:12,_ZNK7testing8internal11MatcherBaseIRKSt4pairIKNSt7__cxx1112basic_stringIcSt11char_traitsIcESaIcEEES8_EE15MatchAndExplainESC_PNS_19MatchResultListenerE
FNDA:2,_ZNK7testing8internal11MatcherBaseIRKSt6vectorIaSaIaEEE15MatchAndExplainES6_PNS_19MatchResultListenerE
FNDA:10,_ZNK7testing8internal11MatcherBaseIRKSt6vectorIiSaIiEEE15MatchAndExplainES6_PNS_19MatchResultListenerE
FNDA:6,_ZNK7testing8internal11MatcherBaseIRKSt6vectorIlSaIlEEE15MatchAndExplainES6_PNS_19MatchResultListenerE
FNDA:8,_ZNK7testing8internal11MatcherBaseIRKaE15MatchAndExplainES3_PNS_19MatchResultListenerE
FNDA:0,_ZNK7testing8internal11MatcherBaseIRKdE15MatchAndExplainES3_PNS_19MatchResultListenerE
FNDA:49,_ZNK7testing8internal11MatcherBaseIRKiE15MatchAndExplainES3_PNS_19MatchResultListenerE
FNDA:45,_ZNK7testing8internal11MatcherBaseIRKlE15MatchAndExplainES3_PNS_19MatchResultListenerE
FNDA:40,_ZNK7testing8internal11MatcherBaseIRKNSt7__cxx1112basic_stringIcSt11char_traitsIcESaIcEEEE7MatchesES9_
FNDA:2,_ZNK7testing8internal11MatcherBaseIRKPSt3mapINSt7__cxx1112basic_stringIcSt11char_traitsIcESaIcEEES8_St4lessIS8_ESaISt4pairIKS8_S8_EEEE7MatchesESI_
FNDA:6,_ZNK7testing8internal11MatcherBaseIRKSt3mapINSt7__cxx1112basic_stringIcSt11char_traitsIcESaIcEEES8_St4lessIS8_ESaISt4pairIKS8_S8_EEEE7MatchesESH_
FNDA:3,_ZNK7testing8internal11MatcherBaseIRKSt4pairIKNSt7__cxx1112basic_stringIcSt11char_traitsIcESaIcEEES8_EE7MatchesESC_
FNDA:2,_ZNK7testing8internal11MatcherBaseIRKSt6vectorIaSaIaEEE7MatchesES6_
FNDA:10,_ZNK7testing8internal11MatcherBaseIRKSt6vectorIiSaIiEEE7MatchesES6_
FNDA:6,_ZNK7testing8internal11MatcherBaseIRKSt6vectorIlSaIlEEE7MatchesES6_
FNDA:8,_ZNK7testing8internal11MatcherBaseIRKaE7MatchesES3_
FNDA:0,_ZNK7testing8internal11MatcherBaseIRKdE7MatchesES3_
FNDA:49,_ZNK7testing8internal11MatcherBaseIRKiE7MatchesES3_
FNDA:45,_ZNK7testing8internal11MatcherBaseIRKlE7MatchesES3_
FNDA:0,_ZNK7testing8internal11MatcherBaseINSt7__cxx1112basic_stringIcSt11char_traitsIcESaIcEEEE10DescribeToEPSo
FNDA:0,_ZNK7testing8internal11MatcherBaseIRKNSt7__cxx1112basic_stringIcSt11char_traitsIcESaIcEEEE10DescribeToEPSo
FNDA:0,_ZNK7testing8internal11MatcherBaseIRKPSt3mapINSt7__cxx1112basic_stringIcSt11char_traitsIcESaIcEEES8_St4lessIS8_ESaISt4pairIKS8_S8_EEEE10DescribeToEPSo
FNDA:0,_ZNK7testing8internal11MatcherBaseIRKSt17basic_string_viewIcSt11char_traitsIcEEE10DescribeToEPSo
FNDA:0,_ZNK7testing8internal11MatcherBaseIRKSt3mapINSt7__cxx1112basic_stringIcSt11char_traitsIcESaIcEEES8_St4lessIS8_ESaISt4pairIKS8_S8_EEEE10DescribeToEPSo
FNDA:0,_ZNK7testing8internal11MatcherBaseIRKSt4pairIKNSt7__cxx1112basic_stringIcSt11char_traitsIcESaIcEEES8_EE10DescribeToEPSo
FNDA:0,_ZNK7testing8internal11MatcherBaseIRKSt6vectorIaSaIaEEE10DescribeToEPSo
FNDA:0,_ZNK7testing8internal11MatcherBaseIRKSt6vectorIiSaIiEEE10DescribeToEPSo
FNDA:0,_ZNK7testing8internal11MatcherBaseIRKSt6vectorIlSaIlEEE10DescribeToEPSo
FNDA:0,_ZNK7testing8internal11MatcherBaseIRKaE10DescribeToEPSo
FNDA:0,_ZNK7testing8internal11MatcherBaseIRKdE10DescribeToEPSo
FNDA:0,_ZNK7testing8internal11MatcherBaseIRKiE10DescribeToEPSo
FNDA:0,_ZNK7testing8internal11MatcherBaseIRKlE10DescribeToEPSo
FNDA:0,_ZNK7testing8internal11MatcherBaseISt17basic_string_viewIcSt11char_traitsIcEEE10DescribeToEPSo
FNDA:0,_ZNK7testing8internal11MatcherBaseINSt7__cxx1112basic_stringIcSt11char_traitsIcESaIcEEEE18DescribeNegationToEPSo
FNDA:0,_ZNK7testing8internal11MatcherBaseIRKNSt7__cxx1112basic_stringIcSt11char_traitsIcESaIcEEEE18DescribeNegationToEPSo
FNDA:0,_ZNK7testing8internal11MatcherBaseIRKPSt3mapINSt7__cxx1112basic_stringIcSt11char_traitsIcESaIcEEES8_St4lessIS8_ESaISt4pairIKS8_S8_EEEE18DescribeNegationToEPSo
FNDA:0,_ZNK7testing8internal11MatcherBaseIRKSt17basic_string_viewIcSt11char_traitsIcEEE18DescribeNegationToEPSo
FNDA:0,_ZNK7testing8internal11MatcherBaseIRKSt3mapINSt7__cxx1112basic_stringIcSt11char_traitsIcESaIcEEES8_St4lessIS8_ESaISt4pairIKS8_S8_EEEE18DescribeNegationToEPSo
FNDA:0,_ZNK7testing8internal11MatcherBaseIRKSt4pairIKNSt7__cxx1112basic_stringIcSt11char_traitsIcESaIcEEES8_EE18DescribeNegationToEPSo
FNDA:0,_ZNK7testing8internal11MatcherBaseIRKSt6vectorIaSaIaEEE18DescribeNegationToEPSo
FNDA:0,_ZNK7testing8internal11MatcherBaseIRKSt6vectorIiSaIiEEE18DescribeNegationToEPSo
FNDA:0,_ZNK7testing8internal11MatcherBaseIRKSt6vectorIlSaIlEEE18DescribeNegationToEPSo
FNDA:0,_ZNK7testing8internal11MatcherBaseIRKaE18DescribeNegationToEPSo
FNDA:0,_ZNK7testing8internal11MatcherBaseIRKdE18DescribeNegationToEPSo
FNDA:0,_ZNK7testing8internal11MatcherBaseIRKiE18DescribeNegationToEPSo
FNDA:0,_ZNK7testing8internal11MatcherBaseIRKlE18DescribeNegationToEPSo
FNDA:0,_ZNK7testing8internal11MatcherBaseISt17basic_string_viewIcSt11char_traitsIcEEE18DescribeNegationToEPSo
FNDA:5,_ZNK7testing8internal11MatcherBaseIRKSt4pairIKNSt7__cxx1112basic_stringIcSt11char_traitsIcESaIcEEES8_EE12GetDescriberEv
FNDA:0,_ZN7testing8internal11MatcherBaseINSt7__cxx1112basic_stringIcSt11char_traitsIcESaIcEEEEC2Ev
FNDA:16,_ZN7testing8internal11MatcherBaseIRKNSt7__cxx1112basic_stringIcSt11char_traitsIcESaIcEEEEC2Ev
FNDA:2,_ZN7testing8internal11MatcherBaseIRKPSt3mapINSt7__cxx1112basic_stringIcSt11char_traitsIcESaIcEEES8_St4lessIS8_ESaISt4pairIKS8_S8_EEEEC2Ev
FNDA:0,_ZN7testing8internal11MatcherBaseIRKSt17basic_string_viewIcSt11char_traitsIcEEEC2Ev
FNDA:8,_ZN7testing8internal11MatcherBaseIRKaEC2Ev
FNDA:49,_ZN7testing8internal11MatcherBaseIRKiEC2Ev
FNDA:45,_ZN7testing8internal11MatcherBaseIRKlEC2Ev
FNDA:0,_ZN7testing8internal11MatcherBaseISt17basic_string_viewIcSt11char_traitsIcEEEC2Ev
FNDA:20,_ZN7testing8internal11MatcherBaseIRKNSt7__cxx1112basic_stringIcSt11char_traitsIcESaIcEEEEC2IS9_EEPKNS_16MatcherInterfaceIT_EE
FNDA:6,_ZN7testing8internal11MatcherBaseIRKSt3mapINSt7__cxx1112basic_stringIcSt11char_traitsIcESaIcEEES8_St4lessIS8_ESaISt4pairIKS8_S8_EEEEC2ISH_EEPKNS_16MatcherInterfaceIT_EE
FNDA:8,_ZN7testing8internal11MatcherBaseIRKSt4pairIKNSt7__cxx1112basic_stringIcSt11char_traitsIcESaIcEEES8_EEC2ISC_EEPKNS_16MatcherInterfaceIT_EE
FNDA:2,_ZN7testing8internal11MatcherBaseIRKSt6vectorIaSaIaEEEC2IS6_EEPKNS_16MatcherInterfaceIT_EE
FNDA:10,_ZN7testing8internal11MatcherBaseIRKSt6vectorIiSaIiEEEC2IS6_EEPKNS_16MatcherInterfaceIT_EE
FNDA:6,_ZN7testing8internal11MatcherBaseIRKSt6vectorIlSaIlEEEC2IS6_EEPKNS_16MatcherInterfaceIT_EE
FNDA:0,_ZN7testing8internal11MatcherBaseIRKdEC2IS3_EEPKNS_16MatcherInterfaceIT_EE
FNDA:0,_ZN7testing8internal11MatcherBaseINSt7__cxx1112basic_stringIcSt11char_traitsIcESaIcEEEEC2INS0_9EqMatcherIS7_EEvEEOT_
FNDA:16,_ZN7testing8internal11MatcherBaseIRKNSt7__cxx1112basic_stringIcSt11char_traitsIcESaIcEEEEC2INS0_9EqMatcherIS7_EEvEEOT_
FNDA:2,_ZN7testing8internal11MatcherBaseIRKPSt3mapINSt7__cxx1112basic_stringIcSt11char_traitsIcESaIcEEES8_St4lessIS8_ESaISt4pairIKS8_S8_EEEEC2INS0_9EqMatcherISG_EEvEEOT_
FNDA:0,_ZN7testing8internal11MatcherBaseIRKSt17basic_string_viewIcSt11char_traitsIcEEEC2INS0_9EqMatcherINSt7__cxx1112basic_stringIcS4_SaIcEEEEEvEEOT_
FNDA:8,_ZN7testing8internal11MatcherBaseIRKaEC2INS0_9EqMatcherIaEEvEEOT_
FNDA:0,_ZN7testing8internal11MatcherBaseIRKdEC2IRKNS0_9GtMatcherIdEEvEEOT_
FNDA:0,_ZN7testing8internal11MatcherBaseIRKdEC2IRKNS0_9LtMatcherIiEEvEEOT_
FNDA:49,_ZN7testing8internal11MatcherBaseIRKiEC2INS0_9EqMatcherIiEEvEEOT_
FNDA:45,_ZN7testing8internal11MatcherBaseIRKlEC2INS0_9EqMatcherIlEEvEEOT_
FNDA:0,_ZN7testing8internal11MatcherBaseISt17basic_string_viewIcSt11char_traitsIcEEEC2INS0_9EqMatcherINSt7__cxx1112basic_stringIcS4_SaIcEEEEEvEEOT_
FNDA:10,_ZN7testing8internal11MatcherBaseIRKSt4pairIKNSt7__cxx1112basic_stringIcSt11char_traitsIcESaIcEEES8_EEC2ERKSD_
FNDA:14,_ZN7testing8internal11MatcherBaseIRKaEC2ERKS4_
FNDA:0,_ZN7testing8internal11MatcherBaseIRKdEC2ERKS4_
FNDA:110,_ZN7testing8internal11MatcherBaseIRKiEC2ERKS4_
FNDA:84,_ZN7testing8internal11MatcherBaseIRKlEC2ERKS4_
FNDA:20,_ZN7testing8internal11MatcherBaseIRKNSt7__cxx1112basic_stringIcSt11char_traitsIcESaIcEEEEC2EOSA_
FNDA:16,_ZN7testing8internal11MatcherBaseIRKSt4pairIKNSt7__cxx1112basic_stringIcSt11char_traitsIcESaIcEEES8_EEC2EOSD_
FNDA:16,_ZN7testing8internal11MatcherBaseIRKaEC2EOS4_
FNDA:0,_ZN7testing8internal11MatcherBaseIRKdEC2EOS4_
FNDA:98,_ZN7testing8internal11MatcherBaseIRKiEC2EOS4_
FNDA:73,_ZN7testing8internal11MatcherBaseIRKlEC2EOS4_
FNDA:0,_ZN7testing8internal11MatcherBaseINSt7__cxx1112basic_stringIcSt11char_traitsIcESaIcEEEEaSEOS8_
FNDA:16,_ZN7testing8internal11MatcherBaseIRKNSt7__cxx1112basic_stringIcSt11char_traitsIcESaIcEEEEaSEOSA_
FNDA:2,_ZN7testing8internal11MatcherBaseIRKPSt3mapINSt7__cxx1112basic_stringIcSt11char_traitsIcESaIcEEES8_St4lessIS8_ESaISt4pairIKS8_S8_EEEEaSEOSJ_
FNDA:0,_ZN7testing8internal11MatcherBaseIRKSt17basic_string_viewIcSt11char_traitsIcEEEaSEOS8_
FNDA:8,_ZN7testing8internal11MatcherBaseIRKaEaSEOS4_
FNDA:49,_ZN7testing8internal11MatcherBaseIRKiEaSEOS4_
FNDA:45,_ZN7testing8internal11MatcherBaseIRKlEaSEOS4_
FNDA:0,_ZN7testing8internal11MatcherBaseISt17basic_string_viewIcSt11char_traitsIcEEEaSEOS6_
FNDA:0,_ZN7testing8internal11MatcherBaseINSt7__cxx1112basic_stringIcSt11char_traitsIcESaIcEEEED0Ev
FNDA:0,_ZN7testing8internal11MatcherBaseINSt7__cxx1112basic_stringIcSt11char_traitsIcESaIcEEEED2Ev
FNDA:0,_ZN7testing8internal11MatcherBaseIRKNSt7__cxx1112basic_stringIcSt11char_traitsIcESaIcEEEED0Ev
FNDA:72,_ZN7testing8internal11MatcherBaseIRKNSt7__cxx1112basic_stringIcSt11char_traitsIcESaIcEEEED2Ev
FNDA:0,_ZN7testing8internal11MatcherBaseIRKPSt3mapINSt7__cxx1112basic_stringIcSt11char_traitsIcESaIcEEES8_St4lessIS8_ESaISt4pairIKS8_S8_EEEED0Ev
FNDA:4,_ZN7testing8internal11MatcherBaseIRKPSt3mapINSt7__cxx1112basic_stringIcSt11char_traitsIcESaIcEEES8_St4lessIS8_ESaISt4pairIKS8_S8_EEEED2Ev
FNDA:0,_ZN7testing8internal11MatcherBaseIRKSt17basic_string_viewIcSt11char_traitsIcEEED0Ev
FNDA:0,_ZN7testing8internal11MatcherBaseIRKSt17basic_string_viewIcSt11char_traitsIcEEED2Ev
FNDA:0,_ZN7testing8internal11MatcherBaseIRKSt3mapINSt7__cxx1112basic_stringIcSt11char_traitsIcESaIcEEES8_St4lessIS8_ESaISt4pairIKS8_S8_EEEED0Ev
FNDA:6,_ZN7testing8internal11MatcherBaseIRKSt3mapINSt7__cxx1112basic_stringIcSt11char_traitsIcESaIcEEES8_St4lessIS8_ESaISt4pairIKS8_S8_EEEED2Ev
FNDA:0,_ZN7testing8internal11MatcherBaseIRKSt4pairIKNSt7__cxx1112basic_stringIcSt11char_traitsIcESaIcEEES8_EED0Ev
FNDA:34,_ZN7testing8internal11MatcherBaseIRKSt4pairIKNSt7__cxx1112basic_stringIcSt11char_traitsIcESaIcEEES8_EED2Ev
FNDA:0,_ZN7testing8internal11MatcherBaseIRKSt6vectorIaSaIaEEED0Ev
FNDA:2,_ZN7testing8internal11MatcherBaseIRKSt6vectorIaSaIaEEED2Ev
FNDA:0,_ZN7testing8internal11MatcherBaseIRKSt6vectorIiSaIiEEED0Ev
FNDA:10,_ZN7testing8internal11MatcherBaseIRKSt6vectorIiSaIiEEED2Ev
FNDA:0,_ZN7testing8internal11MatcherBaseIRKSt6vectorIlSaIlEEED0Ev
FNDA:6,_ZN7testing8internal11MatcherBaseIRKSt6vectorIlSaIlEEED2Ev
FNDA:0,_ZN7testing8internal11MatcherBaseIRKaED0Ev
FNDA:46,_ZN7testing8internal11MatcherBaseIRKaED2Ev
FNDA:0,_ZN7testing8internal11MatcherBaseIRKdED0Ev
FNDA:0,_ZN7testing8internal11MatcherBaseIRKdED2Ev
FNDA:0,_ZN7testing8internal11MatcherBaseIRKiED0Ev
FNDA:306,_ZN7testing8internal11MatcherBaseIRKiED2Ev
FNDA:0,_ZN7testing8internal11MatcherBaseIRKlED0Ev
FNDA:247,_ZN7testing8internal11MatcherBaseIRKlED2Ev
FNDA:0,_ZN7testing8internal11MatcherBaseISt17basic_string_viewIcSt11char_traitsIcEEED0Ev
FNDA:0,_ZN7testing8internal11MatcherBaseISt17basic_string_viewIcSt11char_traitsIcEEED2Ev
FNDA:0,_ZNK7testing8internal11MatcherBaseINSt7__cxx1112basic_stringIcSt11char_traitsIcESaIcEEEE8IsSharedEv
FNDA:88,_ZNK7testing8internal11MatcherBaseIRKNSt7__cxx1112basic_stringIcSt11char_traitsIcESaIcEEEE8IsSharedEv
FNDA:6,_ZNK7testing8internal11MatcherBaseIRKPSt3mapINSt7__cxx1112basic_stringIcSt11char_traitsIcESaIcEEES8_St4lessIS8_ESaISt4pairIKS8_S8_EEEE8IsSharedEv
FNDA:0,_ZNK7testing8internal11MatcherBaseIRKSt17basic_string_viewIcSt11char_traitsIcEEE8IsSharedEv
FNDA:6,_ZNK7testing8internal11MatcherBaseIRKSt3mapINSt7__cxx1112basic_stringIcSt11char_traitsIcESaIcEEES8_St4lessIS8_ESaISt4pairIKS8_S8_EEEE8IsSharedEv
FNDA:44,_ZNK7testing8internal11MatcherBaseIRKSt4pairIKNSt7__cxx1112basic_stringIcSt11char_traitsIcESaIcEEES8_EE8IsSharedEv
FNDA:2,_ZNK7testing8internal11MatcherBaseIRKSt6vectorIaSaIaEEE8IsSharedEv
FNDA:10,_ZNK7testing8internal11MatcherBaseIRKSt6vectorIiSaIiEEE8IsSharedEv
FNDA:6,_ZNK7testing8internal11MatcherBaseIRKSt6vectorIlSaIlEEE8IsSharedEv
FNDA:68,_ZNK7testing8internal11MatcherBaseIRKaE8IsSharedEv
FNDA:0,_ZNK7testing8internal11MatcherBaseIRKdE8IsSharedEv
FNDA:465,_ZNK7testing8internal11MatcherBaseIRKiE8IsSharedEv
FNDA:376,_ZNK7testing8internal11MatcherBaseIRKlE8IsSharedEv
FNDA:0,_ZNK7testing8internal11MatcherBaseISt17basic_string_viewIcSt11char_traitsIcEEE8IsSharedEv
FNDA:0,_ZN7testing8internal11MatcherBaseINSt7__cxx1112basic_stringIcSt11char_traitsIcESaIcEEEE19MatchAndExplainImplINS8_11ValuePolicyINS0_9EqMatcherIS7_EELb0EEEEEDTcldtclsrT_3Getfp_E15MatchAndExplainfp0_clptfp1_L_ZNS_19MatchResultListener6streamEvEEEERKS8_RKS7_PSF_
FNDA:20,_ZN7testing8internal11MatcherBaseIRKNSt7__cxx1112basic_stringIcSt11char_traitsIcESaIcEEEE19MatchAndExplainImplINSA_11ValuePolicyINS0_9EqMatcherIS7_EELb0EEEEEDTcldtclsrT_3Getfp_E15MatchAndExplainfp0_clptfp1_L_ZNS_19MatchResultListener6streamEvEEEERKSA_S9_PSH_
FNDA:2,_ZN7testing8internal11MatcherBaseIRKPSt3mapINSt7__cxx1112basic_stringIcSt11char_traitsIcESaIcEEES8_St4lessIS8_ESaISt4pairIKS8_S8_EEEE19MatchAndExplainImplINSJ_11ValuePolicyINS0_9EqMatcherISG_EELb1EEEEEDTcldtclsrT_3Getfp_E15MatchAndExplainfp0_clptfp1_L_ZNS_19MatchResultListener6streamEvEEEERKSJ_SI_PSQ_
FNDA:0,_ZN7testing8internal11MatcherBaseIRKSt17basic_string_viewIcSt11char_traitsIcEEE19MatchAndExplainImplINS8_11ValuePolicyINS0_9EqMatcherINSt7__cxx1112basic_stringIcS4_SaIcEEEEELb0EEEEEDTcldtclsrT_3Getfp_E15MatchAndExplainfp0_clptfp1_L_ZNS_19MatchResultListener6streamEvEEEERKS8_S7_PSJ_
FNDA:8,_ZN7testing8internal11MatcherBaseIRKaE19MatchAndExplainImplINS4_11ValuePolicyINS0_9EqMatcherIaEELb1EEEEEDTcldtclsrT_3Getfp_E15MatchAndExplainfp0_clptfp1_L_ZNS_19MatchResultListener6streamEvEEEERKS4_S3_PSB_
FNDA:0,_ZN7testing8internal11MatcherBaseIRKdE19MatchAndExplainImplINS4_11ValuePolicyINS0_9GtMatcherIdEELb1EEEEEDTcldtclsrT_3Getfp_E15MatchAndExplainfp0_clptfp1_L_ZNS_19MatchResultListener6streamEvEEEERKS4_S3_PSB_
FNDA:0,_ZN7testing8internal11MatcherBaseIRKdE19MatchAndExplainImplINS4_11ValuePolicyINS0_9LtMatcherIiEELb1EEEEEDTcldtclsrT_3Getfp_E15MatchAndExplainfp0_clptfp1_L_ZNS_19MatchResultListener6streamEvEEEERKS4_S3_PSB_
FNDA:49,_ZN7testing8internal11MatcherBaseIRKiE19MatchAndExplainImplINS4_11ValuePolicyINS0_9EqMatcherIiEELb1EEEEEDTcldtclsrT_3Getfp_E15MatchAndExplainfp0_clptfp1_L_ZNS_19MatchResultListener6streamEvEEEERKS4_S3_PSB_
FNDA:45,_ZN7testing8internal11MatcherBaseIRKlE19MatchAndExplainImplINS4_11ValuePolicyINS0_9EqMatcherIlEELb1EEEEEDTcldtclsrT_3Getfp_E15MatchAndExplainfp0_clptfp1_L_ZNS_19MatchResultListener6streamEvEEEERKS4_S3_PSB_
FNDA:0,_ZN7testing8internal11MatcherBaseISt17basic_string_viewIcSt11char_traitsIcEEE19MatchAndExplainImplINS6_11ValuePolicyINS0_9EqMatcherINSt7__cxx1112basic_stringIcS4_SaIcEEEEELb0EEEEEDTcldtclsrT_3Getfp_E15MatchAndExplainfp0_clptfp1_L_ZNS_19MatchResultListener6streamEvEEEERKS6_RKS5_PSH_
FNDA:20,_ZN7testing8internal11MatcherBaseIRKNSt7__cxx1112basic_stringIcSt11char_traitsIcESaIcEEEE19MatchAndExplainImplINSA_11ValuePolicyIPKNS_16MatcherInterfaceIS9_EELb1EEEEEDTcldtclsrT_3Getfp_E15MatchAndExplainfp0_fp1_EERKSA_S9_PNS_19MatchResultListenerE
FNDA:6,_ZN7testing8internal11MatcherBaseIRKSt3mapINSt7__cxx1112basic_stringIcSt11char_traitsIcESaIcEEES8_St4lessIS8_ESaISt4pairIKS8_S8_EEEE19MatchAndExplainImplINSI_11ValuePolicyIPKNS_16MatcherInterfaceISH_EELb1EEEEEDTcldtclsrT_3Getfp_E15MatchAndExplainfp0_fp1_EERKSI_SH_PNS_19MatchResultListenerE
FNDA:12,_ZN7testing8internal11MatcherBaseIRKSt4pairIKNSt7__cxx1112basic_stringIcSt11char_traitsIcESaIcEEES8_EE19MatchAndExplainImplINSD_11ValuePolicyIPKNS_16MatcherInterfaceISC_EELb1EEEEEDTcldtclsrT_3Getfp_E15MatchAndExplainfp0_fp1_EERKSD_SC_PNS_19MatchResultListenerE
FNDA:2,_ZN7testing8internal11MatcherBaseIRKSt6vectorIaSaIaEEE19MatchAndExplainImplINS7_11ValuePolicyIPKNS_16MatcherInterfaceIS6_EELb1EEEEEDTcldtclsrT_3Getfp_E15MatchAndExplainfp0_fp1_EERKS7_S6_PNS_19MatchResultListenerE
FNDA:10,_ZN7testing8internal11MatcherBaseIRKSt6vectorIiSaIiEEE19MatchAndExplainImplINS7_11ValuePolicyIPKNS_16MatcherInterfaceIS6_EELb1EEEEEDTcldtclsrT_3Getfp_E15MatchAndExplainfp0_fp1_EERKS7_S6_PNS_19MatchResultListenerE
FNDA:6,_ZN7testing8internal11MatcherBaseIRKSt6vectorIlSaIlEEE19MatchAndExplainImplINS7_11ValuePolicyIPKNS_16MatcherInterfaceIS6_EELb1EEEEEDTcldtclsrT_3Getfp_E15MatchAndExplainfp0_fp1_EERKS7_S6_PNS_19MatchResultListenerE
FNDA:0,_ZN7testing8internal11MatcherBaseIRKdE19MatchAndExplainImplINS4_11ValuePolicyIPKNS_16MatcherInterfaceIS3_EELb1EEEEEDTcldtclsrT_3Getfp_E15MatchAndExplainfp0_fp1_EERKS4_S3_PNS_19MatchResultListenerE
FNDA:0,_ZN7testing8internal11MatcherBaseINSt7__cxx1112basic_stringIcSt11char_traitsIcESaIcEEEE12DescribeImplINS8_11ValuePolicyINS0_9EqMatcherIS7_EELb0EEEEEvRKS8_PSob
FNDA:0,_ZN7testing8internal11MatcherBaseIRKNSt7__cxx1112basic_stringIcSt11char_traitsIcESaIcEEEE12DescribeImplINSA_11ValuePolicyINS0_9EqMatcherIS7_EELb0EEEEEvRKSA_PSob
FNDA:0,_ZN7testing8internal11MatcherBaseIRKNSt7__cxx1112basic_stringIcSt11char_traitsIcESaIcEEEE12DescribeImplINSA_11ValuePolicyIPKNS_16MatcherInterfaceIS9_EELb1EEEEEvRKSA_PSob
FNDA:0,_ZN7testing8internal11MatcherBaseIRKPSt3mapINSt7__cxx1112basic_stringIcSt11char_traitsIcESaIcEEES8_St4lessIS8_ESaISt4pairIKS8_S8_EEEE12DescribeImplINSJ_11ValuePolicyINS0_9EqMatcherISG_EELb1EEEEEvRKSJ_PSob
FNDA:0,_ZN7testing8internal11MatcherBaseIRKSt17basic_string_viewIcSt11char_traitsIcEEE12DescribeImplINS8_11ValuePolicyINS0_9EqMatcherINSt7__cxx1112basic_stringIcS4_SaIcEEEEELb0EEEEEvRKS8_PSob
FNDA:0,_ZN7testing8internal11MatcherBaseIRKSt3mapINSt7__cxx1112basic_stringIcSt11char_traitsIcESaIcEEES8_St4lessIS8_ESaISt4pairIKS8_S8_EEEE12DescribeImplINSI_11ValuePolicyIPKNS_16MatcherInterfaceISH_EELb1EEEEEvRKSI_PSob
FNDA:0,_ZN7testing8internal11MatcherBaseIRKSt4pairIKNSt7__cxx1112basic_stringIcSt11char_traitsIcESaIcEEES8_EE12DescribeImplINSD_11ValuePolicyIPKNS_16MatcherInterfaceISC_EELb1EEEEEvRKSD_PSob
FNDA:0,_ZN7testing8internal11MatcherBaseIRKSt6vectorIaSaIaEEE12DescribeImplINS7_11ValuePolicyIPKNS_16MatcherInterfaceIS6_EELb1EEEEEvRKS7_PSob
FNDA:0,_ZN7testing8internal11MatcherBaseIRKSt6vectorIiSaIiEEE12DescribeImplINS7_11ValuePolicyIPKNS_16MatcherInterfaceIS6_EELb1EEEEEvRKS7_PSob
FNDA:0,_ZN7testing8internal11MatcherBaseIRKSt6vectorIlSaIlEEE12DescribeImplINS7_11ValuePolicyIPKNS_16MatcherInterfaceIS6_EELb1EEEEEvRKS7_PSob
FNDA:0,_ZN7testing8internal11MatcherBaseIRKaE12DescribeImplINS4_11ValuePolicyINS0_9EqMatcherIaEELb1EEEEEvRKS4_PSob
FNDA:0,_ZN7testing8internal11MatcherBaseIRKdE12DescribeImplINS4_11ValuePolicyINS0_9GtMatcherIdEELb1EEEEEvRKS4_PSob
FNDA:0,_ZN7testing8internal11MatcherBaseIRKdE12DescribeImplINS4_11ValuePolicyINS0_9LtMatcherIiEELb1EEEEEvRKS4_PSob
FNDA:0,_ZN7testing8internal11MatcherBaseIRKdE12DescribeImplINS4_11ValuePolicyIPKNS_16MatcherInterfaceIS3_EELb1EEEEEvRKS4_PSob
FNDA:0,_ZN7testing8internal11MatcherBaseIRKiE12DescribeImplINS4_11ValuePolicyINS0_9EqMatcherIiEELb1EEEEEvRKS4_PSob
FNDA:0,_ZN7testing8internal11MatcherBaseIRKlE12DescribeImplINS4_11ValuePolicyINS0_9EqMatcherIlEELb1EEEEEvRKS4_PSob
FNDA:0,_ZN7testing8internal11MatcherBaseISt17basic_string_viewIcSt11char_traitsIcEEE12DescribeImplINS6_11ValuePolicyINS0_9EqMatcherINSt7__cxx1112basic_stringIcS4_SaIcEEEEELb0EEEEEvRKS6_PSob
FNDA:0,_ZN7testing8internal11MatcherBaseINSt7__cxx1112basic_stringIcSt11char_traitsIcESaIcEEEE16GetDescriberImplINS8_11ValuePolicyINS0_9EqMatcherIS7_EELb0EEEEEPKNS_25MatcherDescriberInterfaceERKS8_
FNDA:0,_ZN7testing8internal11MatcherBaseIRKNSt7__cxx1112basic_stringIcSt11char_traitsIcESaIcEEEE16GetDescriberImplINSA_11ValuePolicyINS0_9EqMatcherIS7_EELb0EEEEEPKNS_25MatcherDescriberInterfaceERKSA_
FNDA:0,_ZN7testing8internal11MatcherBaseIRKNSt7__cxx1112basic_stringIcSt11char_traitsIcESaIcEEEE16GetDescriberImplINSA_11ValuePolicyIPKNS_16MatcherInterfaceIS9_EELb1EEEEEPKNS_25MatcherDescriberInterfaceERKSA_
FNDA:0,_ZN7testing8internal11MatcherBaseIRKPSt3mapINSt7__cxx1112basic_stringIcSt11char_traitsIcESaIcEEES8_St4lessIS8_ESaISt4pairIKS8_S8_EEEE16GetDescriberImplINSJ_11ValuePolicyINS0_9EqMatcherISG_EELb1EEEEEPKNS_25MatcherDescriberInterfaceERKSJ_
FNDA:0,_ZN7testing8internal11MatcherBaseIRKSt17basic_string_viewIcSt11char_traitsIcEEE16GetDescriberImplINS8_11ValuePolicyINS0_9EqMatcherINSt7__cxx1112basic_stringIcS4_SaIcEEEEELb0EEEEEPKNS_25MatcherDescriberInterfaceERKS8_
FNDA:0,_ZN7testing8internal11MatcherBaseIRKSt3mapINSt7__cxx1112basic_stringIcSt11char_traitsIcESaIcEEES8_St4lessIS8_ESaISt4pairIKS8_S8_EEEE16GetDescriberImplINSI_11ValuePolicyIPKNS_16MatcherInterfaceISH_EELb1EEEEEPKNS_25MatcherDescriberInterfaceERKSI_
FNDA:5,_ZN7testing8internal11MatcherBaseIRKSt4pairIKNSt7__cxx1112basic_stringIcSt11char_traitsIcESaIcEEES8_EE16GetDescriberImplINSD_11ValuePolicyIPKNS_16MatcherInterfaceISC_EELb1EEEEEPKNS_25MatcherDescriberInterfaceERKSD_
FNDA:0,_ZN7testing8internal11MatcherBaseIRKSt6vectorIaSaIaEEE16GetDescriberImplINS7_11ValuePolicyIPKNS_16MatcherInterfaceIS6_EELb1EEEEEPKNS_25MatcherDescriberInterfaceERKS7_
FNDA:0,_ZN7testing8internal11MatcherBaseIRKSt6vectorIiSaIiEEE16GetDescriberImplINS7_11ValuePolicyIPKNS_16MatcherInterfaceIS6_EELb1EEEEEPKNS_25MatcherDescriberInterfaceERKS7_
FNDA:0,_ZN7testing8internal11MatcherBaseIRKSt6vectorIlSaIlEEE16GetDescriberImplINS7_11ValuePolicyIPKNS_16MatcherInterfaceIS6_EELb1EEEEEPKNS_25MatcherDescriberInterfaceERKS7_
FNDA:0,_ZN7testing8internal11MatcherBaseIRKaE16GetDescriberImplINS4_11ValuePolicyINS0_9EqMatcherIaEELb1EEEEEPKNS_25MatcherDescriberInterfaceERKS4_
FNDA:0,_ZN7testing8internal11MatcherBaseIRKdE16GetDescriberImplINS4_11ValuePolicyINS0_9GtMatcherIdEELb1EEEEEPKNS_25MatcherDescriberInterfaceERKS4_
FNDA:0,_ZN7testing8internal11MatcherBaseIRKdE16GetDescriberImplINS4_11ValuePolicyINS0_9LtMatcherIiEELb1EEEEEPKNS_25MatcherDescriberInterfaceERKS4_
FNDA:0,_ZN7testing8internal11MatcherBaseIRKdE16GetDescriberImplINS4_11ValuePolicyIPKNS_16MatcherInterfaceIS3_EELb1EEEEEPKNS_25MatcherDescriberInterfaceERKS4_
FNDA:0,_ZN7testing8internal11MatcherBaseIRKiE16GetDescriberImplINS4_11ValuePolicyINS0_9EqMatcherIiEELb1EEEEEPKNS_25MatcherDescriberInterfaceERKS4_
FNDA:0,_ZN7testing8internal11MatcherBaseIRKlE16GetDescriberImplINS4_11ValuePolicyINS0_9EqMatcherIlEELb1EEEEEPKNS_25MatcherDescriberInterfaceERKS4_
FNDA:0,_ZN7testing8internal11MatcherBaseISt17basic_string_viewIcSt11char_traitsIcEEE16GetDescriberImplINS6_11ValuePolicyINS0_9EqMatcherINSt7__cxx1112basic_stringIcS4_SaIcEEEEELb0EEEEEPKNS_25MatcherDescriberInterfaceERKS6_
FNDA:0,_ZN7testing8internal11MatcherBaseINSt7__cxx1112basic_stringIcSt11char_traitsIcESaIcEEEE9GetVTableINS8_11ValuePolicyINS0_9EqMatcherIS7_EELb0EEEEEPKNS8_6VTableEv
FNDA:16,_ZN7testing8internal11MatcherBaseIRKNSt7__cxx1112basic_stringIcSt11char_traitsIcESaIcEEEE9GetVTableINSA_11ValuePolicyINS0_9EqMatcherIS7_EELb0EEEEEPKNSA_6VTableEv
FNDA:20,_ZN7testing8internal11MatcherBaseIRKNSt7__cxx1112basic_stringIcSt11char_traitsIcESaIcEEEE9GetVTableINSA_11ValuePolicyIPKNS_16MatcherInterfaceIS9_EELb1EEEEEPKNSA_6VTableEv
FNDA:2,_ZN7testing8internal11MatcherBaseIRKPSt3mapINSt7__cxx1112basic_stringIcSt11char_traitsIcESaIcEEES8_St4lessIS8_ESaISt4pairIKS8_S8_EEEE9GetVTableINSJ_11ValuePolicyINS0_9EqMatcherISG_EELb1EEEEEPKNSJ_6VTableEv
FNDA:0,_ZN7testing8internal11MatcherBaseIRKSt17basic_string_viewIcSt11char_traitsIcEEE9GetVTableINS8_11ValuePolicyINS0_9EqMatcherINSt7__cxx1112basic_stringIcS4_SaIcEEEEELb0EEEEEPKNS8_6VTableEv
FNDA:6,_ZN7testing8internal11MatcherBaseIRKSt3mapINSt7__cxx1112basic_stringIcSt11char_traitsIcESaIcEEES8_St4lessIS8_ESaISt4pairIKS8_S8_EEEE9GetVTableINSI_11ValuePolicyIPKNS_16MatcherInterfaceISH_EELb1EEEEEPKNSI_6VTableEv
FNDA:8,_ZN7testing8internal11MatcherBaseIRKSt4pairIKNSt7__cxx1112basic_stringIcSt11char_traitsIcESaIcEEES8_EE9GetVTableINSD_11ValuePolicyIPKNS_16MatcherInterfaceISC_EELb1EEEEEPKNSD_6VTableEv
FNDA:2,_ZN7testing8internal11MatcherBaseIRKSt6vectorIaSaIaEEE9GetVTableINS7_11ValuePolicyIPKNS_16MatcherInterfaceIS6_EELb1EEEEEPKNS7_6VTableEv
FNDA:10,_ZN7testing8internal11MatcherBaseIRKSt6vectorIiSaIiEEE9GetVTableINS7_11ValuePolicyIPKNS_16MatcherInterfaceIS6_EELb1EEEEEPKNS7_6VTableEv
FNDA:6,_ZN7testing8internal11MatcherBaseIRKSt6vectorIlSaIlEEE9GetVTableINS7_11ValuePolicyIPKNS_16MatcherInterfaceIS6_EELb1EEEEEPKNS7_6VTableEv
FNDA:8,_ZN7testing8internal11MatcherBaseIRKaE9GetVTableINS4_11ValuePolicyINS0_9EqMatcherIaEELb1EEEEEPKNS4_6VTableEv
FNDA:0,_ZN7testing8internal11MatcherBaseIRKdE9GetVTableINS4_11ValuePolicyINS0_9GtMatcherIdEELb1EEEEEPKNS4_6VTableEv
FNDA:0,_ZN7testing8internal11MatcherBaseIRKdE9GetVTableINS4_11ValuePolicyINS0_9LtMatcherIiEELb1EEEEEPKNS4_6VTableEv
FNDA:0,_ZN7testing8internal11MatcherBaseIRKdE9GetVTableINS4_11ValuePolicyIPKNS_16MatcherInterfaceIS3_EELb1EEEEEPKNS4_6VTableEv
FNDA:49,_ZN7testing8internal11MatcherBaseIRKiE9GetVTableINS4_11ValuePolicyINS0_9EqMatcherIiEELb1EEEEEPKNS4_6VTableEv
FNDA:45,_ZN7testing8internal11MatcherBaseIRKlE9GetVTableINS4_11ValuePolicyINS0_9EqMatcherIlEELb1EEEEEPKNS4_6VTableEv
FNDA:0,_ZN7testing8internal11MatcherBaseISt17basic_string_viewIcSt11char_traitsIcEEE9GetVTableINS6_11ValuePolicyINS0_9EqMatcherINSt7__cxx1112basic_stringIcS4_SaIcEEEEELb0EEEEEPKNS6_6VTableEv
FNDA:0,_ZN7testing8internal11MatcherBaseINSt7__cxx1112basic_stringIcSt11char_traitsIcESaIcEEEE7DestroyEv
FNDA:88,_ZN7testing8internal11MatcherBaseIRKNSt7__cxx1112basic_stringIcSt11char_traitsIcESaIcEEEE7DestroyEv
FNDA:6,_ZN7testing8internal11MatcherBaseIRKPSt3mapINSt7__cxx1112basic_stringIcSt11char_traitsIcESaIcEEES8_St4lessIS8_ESaISt4pairIKS8_S8_EEEE7DestroyEv
FNDA:0,_ZN7testing8internal11MatcherBaseIRKSt17basic_string_viewIcSt11char_traitsIcEEE7DestroyEv
FNDA:6,_ZN7testing8internal11MatcherBaseIRKSt3mapINSt7__cxx1112basic_stringIcSt11char_traitsIcESaIcEEES8_St4lessIS8_ESaISt4pairIKS8_S8_EEEE7DestroyEv
FNDA:34,_ZN7testing8internal11MatcherBaseIRKSt4pairIKNSt7__cxx1112basic_stringIcSt11char_traitsIcESaIcEEES8_EE7DestroyEv
FNDA:2,_ZN7testing8internal11MatcherBaseIRKSt6vectorIaSaIaEEE7DestroyEv
FNDA:10,_ZN7testing8internal11MatcherBaseIRKSt6vectorIiSaIiEEE7DestroyEv
FNDA:6,_ZN7testing8internal11MatcherBaseIRKSt6vectorIlSaIlEEE7DestroyEv
FNDA:54,_ZN7testing8internal11MatcherBaseIRKaE7DestroyEv
FNDA:0,_ZN7testing8internal11MatcherBaseIRKdE7DestroyEv
FNDA:355,_ZN7testing8internal11MatcherBaseIRKiE7DestroyEv
FNDA:292,_ZN7testing8internal11MatcherBaseIRKlE7DestroyEv
FNDA:0,_ZN7testing8internal11MatcherBaseISt17basic_string_viewIcSt11char_traitsIcEEE7DestroyEv
FNDA:2,_ZN7testing8internal11MatcherBaseIRKPSt3mapINSt7__cxx1112basic_stringIcSt11char_traitsIcESaIcEEES8_St4lessIS8_ESaISt4pairIKS8_S8_EEEE11ValuePolicyINS0_9EqMatcherISG_EELb1EE3GetERKSJ_
FNDA:8,_ZN7testing8internal11MatcherBaseIRKaE11ValuePolicyINS0_9EqMatcherIaEELb1EE3GetERKS4_
FNDA:0,_ZN7testing8internal11MatcherBaseIRKdE11ValuePolicyINS0_9GtMatcherIdEELb1EE3GetERKS4_
FNDA:0,_ZN7testing8internal11MatcherBaseIRKdE11ValuePolicyINS0_9LtMatcherIiEELb1EE3GetERKS4_
FNDA:49,_ZN7testing8internal11MatcherBaseIRKiE11ValuePolicyINS0_9EqMatcherIiEELb1EE3GetERKS4_
FNDA:45,_ZN7testing8internal11MatcherBaseIRKlE11ValuePolicyINS0_9EqMatcherIlEELb1EE3GetERKS4_
FNDA:2,_ZN7testing8internal11MatcherBaseIRKPSt3mapINSt7__cxx1112basic_stringIcSt11char_traitsIcESaIcEEES8_St4lessIS8_ESaISt4pairIKS8_S8_EEEE11ValuePolicyINS0_9EqMatcherISG_EELb1EE4InitERSJ_SM_
FNDA:8,_ZN7testing8internal11MatcherBaseIRKaE11ValuePolicyINS0_9EqMatcherIaEELb1EE4InitERS4_S7_
FNDA:0,_ZN7testing8internal11MatcherBaseIRKdE11ValuePolicyINS0_9GtMatcherIdEELb1EE4InitERS4_S7_
FNDA:0,_ZN7testing8internal11MatcherBaseIRKdE11ValuePolicyINS0_9LtMatcherIiEELb1EE4InitERS4_S7_
FNDA:49,_ZN7testing8internal11MatcherBaseIRKiE11ValuePolicyINS0_9EqMatcherIiEELb1EE4InitERS4_S7_
FNDA:45,_ZN7testing8internal11MatcherBaseIRKlE11ValuePolicyINS0_9EqMatcherIlEELb1EE4InitERS4_S7_
FNDA:0,_ZN7testing8internal11MatcherBaseINSt7__cxx1112basic_stringIcSt11char_traitsIcESaIcEEEE11ValuePolicyINS0_9EqMatcherIS7_EELb0EE3GetERKS8_
FNDA:20,_ZN7testing8internal11MatcherBaseIRKNSt7__cxx1112basic_stringIcSt11char_traitsIcESaIcEEEE11ValuePolicyINS0_9EqMatcherIS7_EELb0EE3GetERKSA_
FNDA:0,_ZN7testing8internal11MatcherBaseIRKSt17basic_string_viewIcSt11char_traitsIcEEE11ValuePolicyINS0_9EqMatcherINSt7__cxx1112basic_stringIcS4_SaIcEEEEELb0EE3GetERKS8_
FNDA:0,_ZN7testing8internal11MatcherBaseISt17basic_string_viewIcSt11char_traitsIcEEE11ValuePolicyINS0_9EqMatcherINSt7__cxx1112basic_stringIcS4_SaIcEEEEELb0EE3GetERKS6_
FNDA:0,_ZN7testing8internal11MatcherBaseINSt7__cxx1112basic_stringIcSt11char_traitsIcESaIcEEEE11ValuePolicyINS0_9EqMatcherIS7_EELb0EE4InitISB_EEvRS8_OT_
FNDA:16,_ZN7testing8internal11MatcherBaseIRKNSt7__cxx1112basic_stringIcSt11char_traitsIcESaIcEEEE11ValuePolicyINS0_9EqMatcherIS7_EELb0EE4InitISD_EEvRSA_OT_
FNDA:0,_ZN7testing8internal11MatcherBaseIRKSt17basic_string_viewIcSt11char_traitsIcEEE11ValuePolicyINS0_9EqMatcherINSt7__cxx1112basic_stringIcS4_SaIcEEEEELb0EE4InitISF_EEvRS8_OT_
FNDA:0,_ZN7testing8internal11MatcherBaseISt17basic_string_viewIcSt11char_traitsIcEEE11ValuePolicyINS0_9EqMatcherINSt7__cxx1112basic_stringIcS4_SaIcEEEEELb0EE4InitISD_EEvRS6_OT_
FNDA:20,_ZN7testing8internal11MatcherBaseIRKNSt7__cxx1112basic_stringIcSt11char_traitsIcESaIcEEEE11ValuePolicyIPKNS_16MatcherInterfaceIS9_EELb1EE3GetERKSA_
FNDA:6,_ZN7testing8internal11MatcherBaseIRKSt3mapINSt7__cxx1112basic_stringIcSt11char_traitsIcESaIcEEES8_St4lessIS8_ESaISt4pairIKS8_S8_EEEE11ValuePolicyIPKNS_16MatcherInterfaceISH_EELb1EE3GetERKSI_
FNDA:17,_ZN7testing8internal11MatcherBaseIRKSt4pairIKNSt7__cxx1112basic_stringIcSt11char_traitsIcESaIcEEES8_EE11ValuePolicyIPKNS_16MatcherInterfaceISC_EELb1EE3GetERKSD_
FNDA:2,_ZN7testing8internal11MatcherBaseIRKSt6vectorIaSaIaEEE11ValuePolicyIPKNS_16MatcherInterfaceIS6_EELb1EE3GetERKS7_
FNDA:10,_ZN7testing8internal11MatcherBaseIRKSt6vectorIiSaIiEEE11ValuePolicyIPKNS_16MatcherInterfaceIS6_EELb1EE3GetERKS7_
FNDA:6,_ZN7testing8internal11MatcherBaseIRKSt6vectorIlSaIlEEE11ValuePolicyIPKNS_16MatcherInterfaceIS6_EELb1EE3GetERKS7_
FNDA:0,_ZN7testing8internal11MatcherBaseIRKdE11ValuePolicyIPKNS_16MatcherInterfaceIS3_EELb1EE3GetERKS4_
FNDA:20,_ZN7testing8internal11MatcherBaseIRKNSt7__cxx1112basic_stringIcSt11char_traitsIcESaIcEEEE11ValuePolicyIPKNS_16MatcherInterfaceIS9_EELb1EE4InitERSA_SF_
FNDA:6,_ZN7testing8internal11MatcherBaseIRKSt3mapINSt7__cxx1112basic_stringIcSt11char_traitsIcESaIcEEES8_St4lessIS8_ESaISt4pairIKS8_S8_EEEE11ValuePolicyIPKNS_16MatcherInterfaceISH_EELb1EE4InitERSI_SN_
FNDA:8,_ZN7testing8internal11MatcherBaseIRKSt4pairIKNSt7__cxx1112basic_stringIcSt11char_traitsIcESaIcEEES8_EE11ValuePolicyIPKNS_16MatcherInterfaceISC_EELb1EE4InitERSD_SI_
FNDA:2,_ZN7testing8internal11MatcherBaseIRKSt6vectorIaSaIaEEE11ValuePolicyIPKNS_16MatcherInterfaceIS6_EELb1EE4InitERS7_SC_
FNDA:10,_ZN7testing8internal11MatcherBaseIRKSt6vectorIiSaIiEEE11ValuePolicyIPKNS_16MatcherInterfaceIS6_EELb1EE4InitERS7_SC_
FNDA:6,_ZN7testing8internal11MatcherBaseIRKSt6vectorIlSaIlEEE11ValuePolicyIPKNS_16MatcherInterfaceIS6_EELb1EE4InitERS7_SC_
FNDA:0,_ZN7testing8internal11MatcherBaseIRKdE11ValuePolicyIPKNS_16MatcherInterfaceIS3_EELb1EE4InitERS4_S9_
FNDA:0,_ZN7testing8internal11MatcherBaseINSt7__cxx1112basic_stringIcSt11char_traitsIcESaIcEEEE4InitINS0_9EqMatcherIS7_EEEEvOT_
FNDA:16,_ZN7testing8internal11MatcherBaseIRKNSt7__cxx1112basic_stringIcSt11char_traitsIcESaIcEEEE4InitINS0_9EqMatcherIS7_EEEEvOT_
FNDA:20,_ZN7testing8internal11MatcherBaseIRKNSt7__cxx1112basic_stringIcSt11char_traitsIcESaIcEEEE4InitIRPKNS_16MatcherInterfaceIS9_EEEEvOT_
FNDA:2,_ZN7testing8internal11MatcherBaseIRKPSt3mapINSt7__cxx1112basic_stringIcSt11char_traitsIcESaIcEEES8_St4lessIS8_ESaISt4pairIKS8_S8_EEEE4InitINS0_9EqMatcherISG_EEEEvOT_
FNDA:0,_ZN7testing8internal11MatcherBaseIRKSt17basic_string_viewIcSt11char_traitsIcEEE4InitINS0_9EqMatcherINSt7__cxx1112basic_stringIcS4_SaIcEEEEEEEvOT_
FNDA:6,_ZN7testing8internal11MatcherBaseIRKSt3mapINSt7__cxx1112basic_stringIcSt11char_traitsIcESaIcEEES8_St4lessIS8_ESaISt4pairIKS8_S8_EEEE4InitIRPKNS_16MatcherInterfaceISH_EEEEvOT_
FNDA:8,_ZN7testing8internal11MatcherBaseIRKSt4pairIKNSt7__cxx1112basic_stringIcSt11char_traitsIcESaIcEEES8_EE4InitIRPKNS_16MatcherInterfaceISC_EEEEvOT_
FNDA:2,_ZN7testing8internal11MatcherBaseIRKSt6vectorIaSaIaEEE4InitIRPKNS_16MatcherInterfaceIS6_EEEEvOT_
FNDA:10,_ZN7testing8internal11MatcherBaseIRKSt6vectorIiSaIiEEE4InitIRPKNS_16MatcherInterfaceIS6_EEEEvOT_
FNDA:6,_ZN7testing8internal11MatcherBaseIRKSt6vectorIlSaIlEEE4InitIRPKNS_16MatcherInterfaceIS6_EEEEvOT_
FNDA:8,_ZN7testing8internal11MatcherBaseIRKaE4InitINS0_9EqMatcherIaEEEEvOT_
FNDA:0,_ZN7testing8internal11MatcherBaseIRKdE4InitIRKNS0_9GtMatcherIdEEEEvOT_
FNDA:0,_ZN7testing8internal11MatcherBaseIRKdE4InitIRKNS0_9LtMatcherIiEEEEvOT_
FNDA:0,_ZN7testing8internal11MatcherBaseIRKdE4InitIRPKNS_16MatcherInterfaceIS3_EEEEvOT_
FNDA:49,_ZN7testing8internal11MatcherBaseIRKiE4InitINS0_9EqMatcherIiEEEEvOT_
FNDA:45,_ZN7testing8internal11MatcherBaseIRKlE4InitINS0_9EqMatcherIlEEEEvOT_
FNDA:0,_ZN7testing8internal11MatcherBaseISt17basic_string_viewIcSt11char_traitsIcEEE4InitINS0_9EqMatcherINSt7__cxx1112basic_stringIcS4_SaIcEEEEEEEvOT_
FNDA:6,_ZN7testing7MatcherIRKSt3mapINSt7__cxx1112basic_stringIcSt11char_traitsIcESaIcEEES7_St4lessIS7_ESaISt4pairIKS7_S7_EEEEC2EPKNS_16MatcherInterfaceISG_EE
FNDA:8,_ZN7testing7MatcherIRKSt4pairIKNSt7__cxx1112basic_stringIcSt11char_traitsIcESaIcEEES7_EEC2EPKNS_16MatcherInterfaceISB_EE
FNDA:2,_ZN7testing7MatcherIRKSt6vectorIaSaIaEEEC2EPKNS_16MatcherInterfaceIS5_EE
FNDA:10,_ZN7testing7MatcherIRKSt6vectorIiSaIiEEEC2EPKNS_16MatcherInterfaceIS5_EE
FNDA:6,_ZN7testing7MatcherIRKSt6vectorIlSaIlEEEC2EPKNS_16MatcherInterfaceIS5_EE
FNDA:0,_ZN7testing7MatcherIRKdEC2EPKNS_16MatcherInterfaceIS2_EE
FNDA:2,_ZN7testing7MatcherIRKPSt3mapINSt7__cxx1112basic_stringIcSt11char_traitsIcESaIcEEES7_St4lessIS7_ESaISt4pairIKS7_S7_EEEEC2INS_8internal9EqMatcherISF_EEvEEOT_
FNDA:8,_ZN7testing7MatcherIRKaEC2INS_8internal9EqMatcherIaEEvEEOT_
FNDA:0,_ZN7testing7MatcherIRKdEC2IRKNS_8internal9GtMatcherIdEEvEEOT_
FNDA:0,_ZN7testing7MatcherIRKdEC2IRKNS_8internal9LtMatcherIiEEvEEOT_
FNDA:49,_ZN7testing7MatcherIRKiEC2INS_8internal9EqMatcherIiEEvEEOT_
FNDA:45,_ZN7testing7MatcherIRKlEC2INS_8internal9EqMatcherIlEEvEEOT_
FNDA:20,_ZN7testing7MatcherIRKNSt7__cxx1112basic_stringIcSt11char_traitsIcESaIcEEEEC2EPKNS_16MatcherInterfaceIS8_EE
FNDA:16,_ZN7testing7MatcherIRKNSt7__cxx1112basic_stringIcSt11char_traitsIcESaIcEEEEC2INS_8internal9EqMatcherIS6_EEvEEOT_
FNDA:0,_ZN7testing7MatcherINSt7__cxx1112basic_stringIcSt11char_traitsIcESaIcEEEEC2INS_8internal9EqMatcherIS6_EEvEEOT_
FNDA:0,_ZN7testing7MatcherIRKSt17basic_string_viewIcSt11char_traitsIcEEEC2INS_8internal9EqMatcherINSt7__cxx1112basic_stringIcS3_SaIcEEEEEvEEOT_
FNDA:0,_ZN7testing7MatcherISt17basic_string_viewIcSt11char_traitsIcEEEC2INS_8internal9EqMatcherINSt7__cxx1112basic_stringIcS3_SaIcEEEEEvEEOT_
FNDA:20,_ZN7testing18PolymorphicMatcherINS_8internal19MatchesRegexMatcherEEC2ERKS2_
FNDA:20,_ZNK7testing18PolymorphicMatcherINS_8internal19MatchesRegexMatcherEEcvNS_7MatcherIT_EEIRKNSt7__cxx1112basic_stringIcSt11char_traitsIcESaIcEEEEEv
FNDA:20,_ZN7testing18PolymorphicMatcherINS_8internal19MatchesRegexMatcherEE15MonomorphicImplIRKNSt7__cxx1112basic_stringIcSt11char_traitsIcESaIcEEEEC2ERKS2_
FNDA:0,_ZNK7testing18PolymorphicMatcherINS_8internal19MatchesRegexMatcherEE15MonomorphicImplIRKNSt7__cxx1112basic_stringIcSt11char_traitsIcESaIcEEEE10DescribeToEPSo
FNDA:0,_ZNK7testing18PolymorphicMatcherINS_8internal19MatchesRegexMatcherEE15MonomorphicImplIRKNSt7__cxx1112basic_stringIcSt11char_traitsIcESaIcEEEE18DescribeNegationToEPSo
FNDA:20,_ZNK7testing18PolymorphicMatcherINS_8internal19MatchesRegexMatcherEE15MonomorphicImplIRKNSt7__cxx1112basic_stringIcSt11char_traitsIcESaIcEEEE15MatchAndExplainESC_PNS_19MatchResultListenerE
FNDA:20,_ZN7testing22MakePolymorphicMatcherINS_8internal19MatchesRegexMatcherEEENS_18PolymorphicMatcherIT_EERKS4_
FNDA:16,_ZN7testing8internal14ComparisonBaseINS0_9EqMatcherINSt7__cxx1112basic_stringIcSt11char_traitsIcESaIcEEEEES8_St8equal_toIvEEC2ERKS8_
FNDA:2,_ZN7testing8internal14ComparisonBaseINS0_9EqMatcherIPSt3mapINSt7__cxx1112basic_stringIcSt11char_traitsIcESaIcEEES9_St4lessIS9_ESaISt4pairIKS9_S9_EEEEESH_St8equal_toIvEEC2ERKSH_
FNDA:8,_ZN7testing8internal14ComparisonBaseINS0_9EqMatcherIaEEaSt8equal_toIvEEC2ERKa
FNDA:49,_ZN7testing8internal14ComparisonBaseINS0_9EqMatcherIiEEiSt8equal_toIvEEC2ERKi
FNDA:45,_ZN7testing8internal14ComparisonBaseINS0_9EqMatcherIlEElSt8equal_toIvEEC2ERKl
FNDA:0,_ZN7testing8internal14ComparisonBaseINS0_9GtMatcherIdEEdSt7greaterIvEEC2ERKd
FNDA:0,_ZN7testing8internal14ComparisonBaseINS0_9LtMatcherIiEEiSt4lessIvEEC2ERKi
FNDA:20,_ZNK7testing8internal14ComparisonBaseINS0_9EqMatcherINSt7__cxx1112basic_stringIcSt11char_traitsIcESaIcEEEEES8_St8equal_toIvEE15MatchAndExplainIS8_EEbRKT_PSo
FNDA:0,_ZNK7testing8internal14ComparisonBaseINS0_9EqMatcherINSt7__cxx1112basic_stringIcSt11char_traitsIcESaIcEEEEES8_St8equal_toIvEE15MatchAndExplainISt17basic_string_viewIcS6_EEEbRKT_PSo
FNDA:2,_ZNK7testing8internal14ComparisonBaseINS0_9EqMatcherIPSt3mapINSt7__cxx1112basic_stringIcSt11char_traitsIcESaIcEEES9_St4lessIS9_ESaISt4pairIKS9_S9_EEEEESH_St8equal_toIvEE15MatchAndExplainISH_EEbRKT_PSo
FNDA:8,_ZNK7testing8internal14ComparisonBaseINS0_9EqMatcherIaEEaSt8equal_toIvEE15MatchAndExplainIaEEbRKT_PSo
FNDA:49,_ZNK7testing8internal14ComparisonBaseINS0_9EqMatcherIiEEiSt8equal_toIvEE15MatchAndExplainIiEEbRKT_PSo
FNDA:45,_ZNK7testing8internal14ComparisonBaseINS0_9EqMatcherIlEElSt8equal_toIvEE15MatchAndExplainIlEEbRKT_PSo
FNDA:0,_ZNK7testing8internal14ComparisonBaseINS0_9GtMatcherIdEEdSt7greaterIvEE15MatchAndExplainIdEEbRKT_PSo
FNDA:0,_ZNK7testing8internal14ComparisonBaseINS0_9LtMatcherIiEEiSt4lessIvEE15MatchAndExplainIdEEbRKT_PSo
FNDA:0,_ZNK7testing8internal14ComparisonBaseINS0_9EqMatcherINSt7__cxx1112basic_stringIcSt11char_traitsIcESaIcEEEEES8_St8equal_toIvEE10DescribeToEPSo
FNDA:0,_ZNK7testing8internal14ComparisonBaseINS0_9EqMatcherIPSt3mapINSt7__cxx1112basic_stringIcSt11char_traitsIcESaIcEEES9_St4lessIS9_ESaISt4pairIKS9_S9_EEEEESH_St8equal_toIvEE10DescribeToEPSo
FNDA:0,_ZNK7testing8internal14ComparisonBaseINS0_9EqMatcherIaEEaSt8equal_toIvEE10DescribeToEPSo
FNDA:0,_ZNK7testing8internal14ComparisonBaseINS0_9EqMatcherIiEEiSt8equal_toIvEE10DescribeToEPSo
FNDA:0,_ZNK7testing8internal14ComparisonBaseINS0_9EqMatcherIlEElSt8equal_toIvEE10DescribeToEPSo
FNDA:0,_ZNK7testing8internal14ComparisonBaseINS0_9GtMatcherIdEEdSt7greaterIvEE10DescribeToEPSo
FNDA:0,_ZNK7testing8internal14ComparisonBaseINS0_9LtMatcherIiEEiSt4lessIvEE10DescribeToEPSo
FNDA:0,_ZNK7testing8internal14ComparisonBaseINS0_9EqMatcherINSt7__cxx1112basic_stringIcSt11char_traitsIcESaIcEEEEES8_St8equal_toIvEE18DescribeNegationToEPSo
FNDA:0,_ZNK7testing8internal14ComparisonBaseINS0_9EqMatcherIPSt3mapINSt7__cxx1112basic_stringIcSt11char_traitsIcESaIcEEES9_St4lessIS9_ESaISt4pairIKS9_S9_EEEEESH_St8equal_toIvEE18DescribeNegationToEPSo
FNDA:0,_ZNK7testing8internal14ComparisonBaseINS0_9EqMatcherIaEEaSt8equal_toIvEE18DescribeNegationToEPSo
FNDA:0,_ZNK7testing8internal14ComparisonBaseINS0_9EqMatcherIiEEiSt8equal_toIvEE18DescribeNegationToEPSo
FNDA:0,_ZNK7testing8internal14ComparisonBaseINS0_9EqMatcherIlEElSt8equal_toIvEE18DescribeNegationToEPSo
FNDA:0,_ZNK7testing8internal14ComparisonBaseINS0_9GtMatcherIdEEdSt7greaterIvEE18DescribeNegationToEPSo
FNDA:0,_ZNK7testing8internal14ComparisonBaseINS0_9LtMatcherIiEEiSt4lessIvEE18DescribeNegationToEPSo
FNDA:20,_ZN7testing8internal14ComparisonBaseINS0_9EqMatcherINSt7__cxx1112basic_stringIcSt11char_traitsIcESaIcEEEEES8_St8equal_toIvEE6UnwrapIS8_EERKT_SG_
FNDA:2,_ZN7testing8internal14ComparisonBaseINS0_9EqMatcherIPSt3mapINSt7__cxx1112basic_stringIcSt11char_traitsIcESaIcEEES9_St4lessIS9_ESaISt4pairIKS9_S9_EEEEESH_St8equal_toIvEE6UnwrapISH_EERKT_SP_
FNDA:8,_ZN7testing8internal14ComparisonBaseINS0_9EqMatcherIaEEaSt8equal_toIvEE6UnwrapIaEERKT_SA_
FNDA:49,_ZN7testing8internal14ComparisonBaseINS0_9EqMatcherIiEEiSt8equal_toIvEE6UnwrapIiEERKT_SA_
FNDA:45,_ZN7testing8internal14ComparisonBaseINS0_9EqMatcherIlEElSt8equal_toIvEE6UnwrapIlEERKT_SA_
FNDA:0,_ZN7testing8internal14ComparisonBaseINS0_9GtMatcherIdEEdSt7greaterIvEE6UnwrapIdEERKT_SA_
FNDA:0,_ZN7testing8internal14ComparisonBaseINS0_9LtMatcherIiEEiSt4lessIvEE6UnwrapIiEERKT_SA_
FNDA:16,_ZN7testing8internal9EqMatcherINSt7__cxx1112basic_stringIcSt11char_traitsIcESaIcEEEEC2ERKS7_
FNDA:2,_ZN7testing8internal9EqMatcherIPSt3mapINSt7__cxx1112basic_stringIcSt11char_traitsIcESaIcEEES8_St4lessIS8_ESaISt4pairIKS8_S8_EEEEC2ERKSG_
FNDA:8,_ZN7testing8internal9EqMatcherIaEC2ERKa
FNDA:49,_ZN7testing8internal9EqMatcherIiEC2ERKi
FNDA:45,_ZN7testing8internal9EqMatcherIlEC2ERKl
FNDA:0,_ZN7testing8internal9EqMatcherINSt7__cxx1112basic_stringIcSt11char_traitsIcESaIcEEEE4DescEv
FNDA:0,_ZN7testing8internal9EqMatcherIPSt3mapINSt7__cxx1112basic_stringIcSt11char_traitsIcESaIcEEES8_St4lessIS8_ESaISt4pairIKS8_S8_EEEE4DescEv
FNDA:0,_ZN7testing8internal9EqMatcherIaE4DescEv
FNDA:0,_ZN7testing8internal9EqMatcherIiE4DescEv
FNDA:0,_ZN7testing8internal9EqMatcherIlE4DescEv
FNDA:0,_ZN7testing8internal9EqMatcherINSt7__cxx1112basic_stringIcSt11char_traitsIcESaIcEEEE11NegatedDescEv
FNDA:0,_ZN7testing8internal9EqMatcherIPSt3mapINSt7__cxx1112basic_stringIcSt11char_traitsIcESaIcEEES8_St4lessIS8_ESaISt4pairIKS8_S8_EEEE11NegatedDescEv
FNDA:0,_ZN7testing8internal9EqMatcherIaE11NegatedDescEv
FNDA:0,_ZN7testing8internal9EqMatcherIiE11NegatedDescEv
FNDA:0,_ZN7testing8internal9EqMatcherIlE11NegatedDescEv
FNDA:0,_ZN7testing8internal9LtMatcherIiEC2ERKi
FNDA:0,_ZN7testing8internal9LtMatcherIiE4DescEv
FNDA:0,_ZN7testing8internal9LtMatcherIiE11NegatedDescEv
FNDA:0,_ZN7testing8internal9GtMatcherIdEC2ERKd
FNDA:0,_ZN7testing8internal9GtMatcherIdE4DescEv
FNDA:0,_ZN7testing8internal9GtMatcherIdE11NegatedDescEv
FNDA:20,_ZN7testing8internal19MatchesRegexMatcherC2EPKNS0_2REEb
FNDA:20,_ZNK7testing8internal19MatchesRegexMatcher15MatchAndExplainINSt7__cxx1112basic_stringIcSt11char_traitsIcESaIcEEEEEbRKT_PNS_19MatchResultListenerE
FNDA:0,_ZNK7testing8internal19MatchesRegexMatcher10DescribeToEPSo
FNDA:0,_ZNK7testing8internal19MatchesRegexMatcher18DescribeNegationToEPSo
FNDA:174,_ZN7testing19MatchResultListenerC2EPSo
FNDA:16,_ZN7testing12MatchesRegexEPKNS_8internal2REE
FNDA:16,_ZN7testing12MatchesRegexINSt7__cxx1112basic_stringIcSt11char_traitsIcESaIcEEEEENS_18PolymorphicMatcherINS_8internal19MatchesRegexMatcherEEERKT_
FNDA:4,_ZN7testing13ContainsRegexEPKNS_8internal2REE
FNDA:4,_ZN7testing13ContainsRegexIPKcEENS_18PolymorphicMatcherINS_8internal19MatchesRegexMatcherEEERKT_
FNDA:16,_ZN7testing2EqINSt7__cxx1112basic_stringIcSt11char_traitsIcESaIcEEEEENS_8internal9EqMatcherIT_EES9_
FNDA:2,_ZN7testing2EqIPSt3mapINSt7__cxx1112basic_stringIcSt11char_traitsIcESaIcEEES7_St4lessIS7_ESaISt4pairIKS7_S7_EEEEENS_8internal9EqMatcherIT_EESI_
FNDA:8,_ZN7testing2EqIaEENS_8internal9EqMatcherIT_EES3_
FNDA:49,_ZN7testing2EqIiEENS_8internal9EqMatcherIT_EES3_
FNDA:45,_ZN7testing2EqIlEENS_8internal9EqMatcherIT_EES3_
FNDA:2,_ZN7testing7MatcherIRKPSt3mapINSt7__cxx1112basic_stringIcSt11char_traitsIcESaIcEEES7_St4lessIS7_ESaISt4pairIKS7_S7_EEEEC2ESH_
FNDA:8,_ZN7testing7MatcherIRKaEC2ES2_
FNDA:49,_ZN7testing7MatcherIRKiEC2ES2_
FNDA:45,_ZN7testing7MatcherIRKlEC2ES2_
FNDA:0,_ZN7testing19MatchResultListenerlsIA10_cEERS0_RKT_
FNDA:0,_ZN7testing19MatchResultListenerlsIA11_cEERS0_RKT_
FNDA:0,_ZN7testing19MatchResultListenerlsIA13_cEERS0_RKT_
FNDA:0,_ZN7testing19MatchResultListenerlsIA15_cEERS0_RKT_
FNDA:0,_ZN7testing19MatchResultListenerlsIA16_cEERS0_RKT_
FNDA:0,_ZN7testing19MatchResultListenerlsIA24_cEERS0_RKT_
FNDA:0,_ZN7testing19MatchResultListenerlsIA25_cEERS0_RKT_
FNDA:0,_ZN7testing19MatchResultListenerlsIA29_cEERS0_RKT_
FNDA:0,_ZN7testing19MatchResultListenerlsIA30_cEERS0_RKT_
FNDA:0,_ZN7testing19MatchResultListenerlsIA33_cEERS0_RKT_
FNDA:0,_ZN7testing19MatchResultListenerlsIA34_cEERS0_RKT_
FNDA:0,_ZN7testing19MatchResultListenerlsIA36_cEERS0_RKT_
FNDA:0,_ZN7testing19MatchResultListenerlsIA3_cEERS0_RKT_
FNDA:0,_ZN7testing19MatchResultListenerlsIA5_cEERS0_RKT_
FNDA:0,_ZN7testing19MatchResultListenerlsIA65_cEERS0_RKT_
FNDA:0,_ZN7testing19MatchResultListenerlsIA7_cEERS0_RKT_
FNDA:0,_ZN7testing19MatchResultListenerlsIA89_cEERS0_RKT_
FNDA:0,_ZN7testing19MatchResultListenerlsINS_7MessageEEERS0_RKT_
FNDA:0,_ZN7testing19MatchResultListenerlsINSt7__cxx1112basic_stringIcSt11char_traitsIcESaIcEEEEERS0_RKT_
FNDA:0,_ZN7testing19MatchResultListenerlsIPKcEERS0_RKT_
FNDA:0,_ZN7testing19MatchResultListenerlsImEERS0_RKT_
FNDA:0,_ZN7testing2GtIdEENS_8internal9GtMatcherIT_EES3_
FNDA:0,_ZN7testing2LtIiEENS_8internal9LtMatcherIT_EES3_
FNDA:124,_ZN7testing19MatchResultListener6streamEv
FNF:418
FNH:210
DA:83,174
DA:89,0
DA:90,0
DA:91,0
DA:95,124
DA:101,40
DA:110,174
DA:116,785
DA:131,0
DA:132,0
DA:133,0
DA:134,0
DA:135,0
DA:185,174
DA:208,10
DA:209,156
DA:215,68
DA:217,68
DA:218,68
DA:219,68
DA:232,180
DA:233,180
DA:234,180
DA:238,171
DA:239,171
DA:240,342
DA:241,171
DA:244,0
DA:245,0
DA:246,0
DA:247,0
DA:250,0
DA:251,0
DA:252,0
DA:253,0
DA:264,5
DA:265,5
DA:266,5
DA:270,120
DA:274,52
DA:275,52
DA:276,52
DA:277,52
DA:281,120
DA:282,120
DA:283,120
DA:285,218
DA:286,218
DA:287,218
DA:288,218
DA:299,223
DA:300,223
DA:301,223
DA:302,223
DA:304,120
DA:305,120
DA:306,120
DA:307,120
DA:308,120
DA:309,120
DA:310,120
DA:313,733
DA:327,1071
DA:328,1071
DA:333,124
DA:336,124
DA:340,56
DA:343,56
DA:347,0
DA:349,0
DA:350,0
DA:352,0
DA:354,0
DA:357,5
DA:369,5
DA:373,172
DA:377,172
DA:389,853
DA:390,853
DA:391,68
DA:393,853
DA:404,104
DA:407,104
DA:409,104
DA:411,104
DA:412,104
DA:413,104
DA:420,20
DA:421,20
DA:424,16
DA:425,16
DA:426,16
DA:434,61
DA:435,61
DA:437,52
DA:438,52
DA:439,52
DA:445,172
DA:448,172
DA:449,172
DA:450,172
DA:471,32
DA:472,32
DA:483,104
DA:499,20
DA:500,20
DA:504,16
DA:505,16
DA:528,0
DA:529,0
DA:554,0
DA:555,0
DA:556,0
DA:582,0
DA:583,0
DA:619,20
DA:630,20
DA:631,20
DA:638,20
DA:640,0
DA:642,0
DA:643,0
DA:644,0
DA:646,20
DA:647,20
DA:676,20
DA:677,20
DA:694,120
DA:699,124
DA:700,124
DA:702,0
DA:703,0
DA:704,0
DA:705,0
DA:706,0
DA:707,0
DA:708,0
DA:709,0
DA:713,124
DA:714,124
DA:727,120
DA:728,120
DA:729,0
DA:730,0
DA:744,0
DA:745,0
DA:746,0
DA:747,0
DA:752,0
DA:753,0
DA:754,0
DA:755,0
DA:785,20
DA:786,20
DA:810,20
DA:812,20
DA:813,20
DA:814,24
DA:815,20
DA:817,0
DA:818,0
DA:819,0
DA:820,0
DA:822,0
DA:823,0
DA:824,0
DA:825,0
DA:826,0
DA:836,16
DA:838,16
DA:841,16
DA:843,16
DA:848,4
DA:850,4
DA:853,4
DA:855,12
DA:862,120
DA:863,120
DA:869,104
DA:870,104
DA:871,104
DA:898,0
DA:899,0
DA:910,0
DA:911,0
LF:185
LH:122
end_of_record
TN:
SF:/home/alex/labs3/build/_deps/googletest-src/googletest/include/gtest/gtest-message.h
FN:112,114,_ZN7testing7MessageC2ERKS0_
FN:132,150,_ZN7testing7MessagelsIA100_cEERS0_RKT_
FN:132,150,_ZN7testing7MessagelsIA106_cEERS0_RKT_
FN:132,150,_ZN7testing7MessagelsIA10_cEERS0_RKT_
FN:132,150,_ZN7testing7MessagelsIA11_cEERS0_RKT_
FN:132,150,_ZN7testing7MessagelsIA12_cEERS0_RKT_
FN:132,150,_ZN7testing7MessagelsIA13_cEERS0_RKT_
FN:132,150,_ZN7testing7MessagelsIA14_cEERS0_RKT_
FN:132,150,_ZN7testing7MessagelsIA15_cEERS0_RKT_
FN:132,150,_ZN7testing7MessagelsIA16_cEERS0_RKT_
FN:132,150,_ZN7testing7MessagelsIA17_cEERS0_RKT_
FN:132,150,_ZN7testing7MessagelsIA18_cEERS0_RKT_
FN:132,150,_ZN7testing7MessagelsIA19_cEERS0_RKT_
FN:132,150,_ZN7testing7MessagelsIA20_cEERS0_RKT_
FN:132,150,_ZN7testing7MessagelsIA21_cEERS0_RKT_
FN:132,150,_ZN7testing7MessagelsIA22_cEERS0_RKT_
FN:132,150,_ZN7testing7MessagelsIA24_cEERS0_RKT_
FN:132,150,_ZN7testing7MessagelsIA256_cEERS0_RKT_
FN:132,150,_ZN7testing7MessagelsIA25_cEERS0_RKT_
FN:132,150,_ZN7testing7MessagelsIA27_cEERS0_RKT_
FN:132,150,_ZN7testing7MessagelsIA28_cEERS0_RKT_
FN:132,150,_ZN7testing7MessagelsIA29_cEERS0_RKT_
FN:132,150,_ZN7testing7MessagelsIA2_cEERS0_RKT_
FN:132,150,_ZN7testing7MessagelsIA30_cEERS0_RKT_
FN:132,150,_ZN7testing7MessagelsIA32_cEERS0_RKT_
FN:132,150,_ZN7testing7MessagelsIA33_cEERS0_RKT_
FN:132,150,_ZN7testing7MessagelsIA35_cEERS0_RKT_
FN:132,150,_ZN7testing7MessagelsIA37_cEERS0_RKT_
FN:132,150,_ZN7testing7MessagelsIA38_cEERS0_RKT_
FN:132,150,_ZN7testing7MessagelsIA39_cEERS0_RKT_
FN:132,150,_ZN7testing7MessagelsIA3_cEERS0_RKT_
FN:132,150,_ZN7testing7MessagelsIA40_cEERS0_RKT_
FN:132,150,_ZN7testing7MessagelsIA41_cEERS0_RKT_
FN:132,150,_ZN7testing7MessagelsIA46_cEERS0_RKT_
FN:132,150,_ZN7testing7MessagelsIA47_cEERS0_RKT_
FN:132,150,_ZN7testing7MessagelsIA48_cEERS0_RKT_
FN:132,150,_ZN7testing7MessagelsIA4_cEERS0_RKT_
FN:132,150,_ZN7testing7MessagelsIA50_cEERS0_RKT_
FN:132,150,_ZN7testing7MessagelsIA51_cEERS0_RKT_
FN:132,150,_ZN7testing7MessagelsIA52_cEERS0_RKT_
FN:132,150,_ZN7testing7MessagelsIA53_cEERS0_RKT_
FN:132,150,_ZN7testing7MessagelsIA5_cEERS0_RKT_
FN:132,150,_ZN7testing7MessagelsIA60_cEERS0_RKT_
FN:132,150,_ZN7testing7MessagelsIA61_cEERS0_RKT_
FN:132,150,_ZN7testing7MessagelsIA62_cEERS0_RKT_
FN:132,150,_ZN7testing7MessagelsIA63_cEERS0_RKT_
FN:132,150,_ZN7testing7MessagelsIA65_cEERS0_RKT_
FN:132,150,_ZN7testing7MessagelsIA68_cEERS0_RKT_
FN:132,150,_ZN7testing7MessagelsIA6_cEERS0_RKT_
FN:132,150,_ZN7testing7MessagelsIA7_cEERS0_RKT_
FN:132,150,_ZN7testing7MessagelsIA8_cEERS0_RKT_
FN:132,150,_ZN7testing7MessagelsIA93_cEERS0_RKT_
FN:132,150,_ZN7testing7MessagelsIA9_cEERS0_RKT_
FN:132,150,_ZN7testing7MessagelsINS_14TestPartResultEEERS0_RKT_
FN:132,150,_ZN7testing7MessagelsINSt7__cxx1112basic_stringIcSt11char_traitsIcESaIcEEEEERS0_RKT_
FN:132,150,_ZN7testing7MessagelsIS0_EERS0_RKT_
FN:132,150,_ZN7testing7MessagelsIcEERS0_RKT_
FN:132,150,_ZN7testing7MessagelsIdEERS0_RKT_
FN:132,150,_ZN7testing7MessagelsIiEERS0_RKT_
FN:132,150,_ZN7testing7MessagelsIlEERS0_RKT_
FN:132,150,_ZN7testing7MessagelsImEERS0_RKT_
FN:182,189,_ZN7testing7MessagelsIKcEERS0_RKPT_
FN:182,189,_ZN7testing7MessagelsIcEERS0_RKPT_
FN:232,234,_ZN7testinglsERSoRKNS_7MessageE
FN:243,245,_ZN7testing8internal18StreamableToStringIPcEENSt7__cxx1112basic_stringIcSt11char_traitsIcESaIcEEERKT_
FN:243,245,_ZN7testing8internal18StreamableToStringIPwEENSt7__cxx1112basic_stringIcSt11char_traitsIcESaIcEEERKT_
FN:243,245,_ZN7testing8internal18StreamableToStringIiEENSt7__cxx1112basic_stringIcSt11char_traitsIcESaIcEEERKT_
FN:243,245,_ZN7testing8internal18StreamableToStringIlEENSt7__cxx1112basic_stringIcSt11char_traitsIcESaIcEEERKT_
FNDA:0,_ZN7testing7MessageC2ERKS0_
FNDA:0,_ZN7testing7MessagelsIA100_cEERS0_RKT_
FNDA:0,_ZN7testing7MessagelsIA106_cEERS0_RKT_
FNDA:0,_ZN7testing7MessagelsIA10_cEERS0_RKT_
FNDA:0,_ZN7testing7MessagelsIA11_cEERS0_RKT_
FNDA:0,_ZN7testing7MessagelsIA12_cEERS0_RKT_
FNDA:4,_ZN7testing7MessagelsIA13_cEERS0_RKT_
FNDA:0,_ZN7testing7MessagelsIA14_cEERS0_RKT_
FNDA:0,_ZN7testing7MessagelsIA15_cEERS0_RKT_
FNDA:0,_ZN7testing7MessagelsIA16_cEERS0_RKT_
FNDA:0,_ZN7testing7MessagelsIA17_cEERS0_RKT_
FNDA:0,_ZN7testing7MessagelsIA18_cEERS0_RKT_
FNDA:0,_ZN7testing7MessagelsIA19_cEERS0_RKT_
FNDA:0,_ZN7testing7MessagelsIA20_cEERS0_RKT_
FNDA:0,_ZN7testing7MessagelsIA21_cEERS0_RKT_
FNDA:0,_ZN7testing7MessagelsIA22_cEERS0_RKT_
FNDA:0,_ZN7testing7MessagelsIA24_cEERS0_RKT_
FNDA:0,_ZN7testing7MessagelsIA256_cEERS0_RKT_
FNDA:0,_ZN7testing7MessagelsIA25_cEERS0_RKT_
FNDA:0,_ZN7testing7MessagelsIA27_cEERS0_RKT_
FNDA:0,_ZN7testing7MessagelsIA28_cEERS0_RKT_
FNDA:0,_ZN7testing7MessagelsIA29_cEERS0_RKT_
FNDA:36,_ZN7testing7MessagelsIA2_cEERS0_RKT_
FNDA:0,_ZN7testing7MessagelsIA30_cEERS0_RKT_
FNDA:0,_ZN7testing7MessagelsIA32_cEERS0_RKT_
FNDA:0,_ZN7testing7MessagelsIA33_cEERS0_RKT_
FNDA:0,_ZN7testing7MessagelsIA35_cEERS0_RKT_
FNDA:1,_ZN7testing7MessagelsIA37_cEERS0_RKT_
FNDA:0,_ZN7testing7MessagelsIA38_cEERS0_RKT_
FNDA:0,_ZN7testing7MessagelsIA39_cEERS0_RKT_
FNDA:0,_ZN7testing7MessagelsIA3_cEERS0_RKT_
FNDA:0,_ZN7testing7MessagelsIA40_cEERS0_RKT_
FNDA:0,_ZN7testing7MessagelsIA41_cEERS0_RKT_
FNDA:1,_ZN7testing7MessagelsIA46_cEERS0_RKT_
FNDA:5,_ZN7testing7MessagelsIA47_cEERS0_RKT_
FNDA:0,_ZN7testing7MessagelsIA48_cEERS0_RKT_
FNDA:0,_ZN7testing7MessagelsIA4_cEERS0_RKT_
FNDA:0,_ZN7testing7MessagelsIA50_cEERS0_RKT_
FNDA:0,_ZN7testing7MessagelsIA51_cEERS0_RKT_
FNDA:0,_ZN7testing7MessagelsIA52_cEERS0_RKT_
FNDA:0,_ZN7testing7MessagelsIA53_cEERS0_RKT_
FNDA:0,_ZN7testing7MessagelsIA5_cEERS0_RKT_
FNDA:0,_ZN7testing7MessagelsIA60_cEERS0_RKT_
FNDA:0,_ZN7testing7MessagelsIA61_cEERS0_RKT_
FNDA:0,_ZN7testing7MessagelsIA62_cEERS0_RKT_
FNDA:0,_ZN7testing7MessagelsIA63_cEERS0_RKT_
FNDA:0,_ZN7testing7MessagelsIA65_cEERS0_RKT_
FNDA:0,_ZN7testing7MessagelsIA68_cEERS0_RKT_
FNDA:4,_ZN7testing7MessagelsIA6_cEERS0_RKT_
FNDA:1579,_ZN7testing7MessagelsIA7_cEERS0_RKT_
FNDA:0,_ZN7testing7MessagelsIA8_cEERS0_RKT_
FNDA:0,_ZN7testing7MessagelsIA93_cEERS0_RKT_
FNDA:0,_ZN7testing7MessagelsIA9_cEERS0_RKT_
FNDA:0,_ZN7testing7MessagelsINS_14TestPartResultEEERS0_RKT_
FNDA:48,_ZN7testing7MessagelsINSt7__cxx1112basic_stringIcSt11char_traitsIcESaIcEEEEERS0_RKT_
FNDA:0,_ZN7testing7MessagelsIS0_EERS0_RKT_
FNDA:31050,_ZN7testing7MessagelsIcEERS0_RKT_
FNDA:0,_ZN7testing7MessagelsIdEERS0_RKT_
FNDA:500,_ZN7testing7MessagelsIiEERS0_RKT_
FNDA:286,_ZN7testing7MessagelsIlEERS0_RKT_
FNDA:16,_ZN7testing7MessagelsImEERS0_RKT_
FNDA:1593,_ZN7testing7MessagelsIKcEERS0_RKPT_
FNDA:325,_ZN7testing7MessagelsIcEERS0_RKPT_
FNDA:0,_ZN7testinglsERSoRKNS_7MessageE
FNDA:325,_ZN7testing8internal18StreamableToStringIPcEENSt7__cxx1112basic_stringIcSt11char_traitsIcESaIcEEERKT_
FNDA:0,_ZN7testing8internal18StreamableToStringIPwEENSt7__cxx1112basic_stringIcSt11char_traitsIcESaIcEEERKT_
FNDA:496,_ZN7testing8internal18StreamableToStringIiEENSt7__cxx1112basic_stringIcSt11char_traitsIcESaIcEEERKT_
FNDA:286,_ZN7testing8internal18StreamableToStringIlEENSt7__cxx1112basic_stringIcSt11char_traitsIcESaIcEEERKT_
FNF:68
FNH:17
DA:112,0
DA:113,0
DA:114,0
DA:132,33530
DA:148,33530
DA:149,33530
DA:182,1918
DA:183,1918
DA:184,0
DA:186,1918
DA:188,1918
DA:232,0
DA:233,0
DA:243,1107
DA:244,1107
LF:15
LH:9
end_of_record
TN:
SF:/home/alex/labs3/build/_deps/googletest-src/googletest/include/gtest/gtest-param-test.h
FN:297,301,_ZN7testing8ValuesInIN9__gnu_cxx17__normal_iteratorIPKSt5tupleIJdN9benchmark7Counter4OneKENSt7__cxx1112basic_stringIcSt11char_traitsIcESaIcEEEEESt6vectorISD_SaISD_EEEEEENS_8internal14ParamGeneratorINSt15iterator_traitsIT_E10value_typeEEESN_SN_
FN:309,312,_ZN7testing8ValuesInISt6vectorISt5tupleIJdN9benchmark7Counter4OneKENSt7__cxx1112basic_stringIcSt11char_traitsIcESaIcEEEEESaISC_EEEENS_8internal14ParamGeneratorINT_10value_typeEEERKSH_
FN:335,337,_ZN7testing6ValuesIJSt5tupleIJdN9benchmark7Counter4OneKEPKcEES7_S7_S7_S7_S7_S7_S7_S7_S7_S7_S7_S7_S7_S7_S7_EEENS_8internal10ValueArrayIJDpT_EEESB_
FNDA:1,_ZN7testing8ValuesInIN9__gnu_cxx17__normal_iteratorIPKSt5tupleIJdN9benchmark7Counter4OneKENSt7__cxx1112basic_stringIcSt11char_traitsIcESaIcEEEEESt6vectorISD_SaISD_EEEEEENS_8internal14ParamGeneratorINSt15iterator_traitsIT_E10value_typeEEESN_SN_
FNDA:1,_ZN7testing8ValuesInISt6vectorISt5tupleIJdN9benchmark7Counter4OneKENSt7__cxx1112basic_stringIcSt11char_traitsIcESaIcEEEEESaISC_EEEENS_8internal14ParamGeneratorINT_10value_typeEEERKSH_
FNDA:1,_ZN7testing6ValuesIJSt5tupleIJdN9benchmark7Counter4OneKEPKcEES7_S7_S7_S7_S7_S7_S7_S7_S7_S7_S7_S7_S7_S7_S7_EEENS_8internal10ValueArrayIJDpT_EEESB_
FNF:3
FNH:3
DA:297,1
DA:300,1
DA:309,1
DA:311,1
DA:335,1
DA:336,1
LF:6
LH:6
end_of_record
TN:
SF:/home/alex/labs3/build/_deps/googletest-src/googletest/include/gtest/gtest-printers.h
FN:1017,1023,_ZN7testing8internal21UniversalTersePrinterIPKcE5PrintES3_PSo
FN:1080,1086,_ZN7testing8internal21UniversalTersePrinterIPKwE5PrintES3_PSo
FN:1108,1113,_ZN7testing8internal14UniversalPrintIDnEEvRKT_PSo
FN:1108,1113,_ZN7testing8internal14UniversalPrintIN9benchmark8TimeUnitEEEvRKT_PSo
FN:1108,1113,_ZN7testing8internal14UniversalPrintINSt7__cxx1112basic_stringIcSt11char_traitsIcESaIcEEEEEvRKT_PSo
FN:1108,1113,_ZN7testing8internal14UniversalPrintINSt7__cxx1112basic_stringIwSt11char_traitsIwESaIwEEEEEvRKT_PSo
FN:1108,1113,_ZN7testing8internal14UniversalPrintIPN5DList5DNodeEEEvRKT_PSo
FN:1108,1113,_ZN7testing8internal14UniversalPrintIPN6MyList4NodeEEEvRKT_PSo
FN:1108,1113,_ZN7testing8internal14UniversalPrintIPNSt7__cxx1112basic_stringIcSt11char_traitsIcESaIcEEEEEvRKT_PSo
FN:1108,1113,_ZN7testing8internal14UniversalPrintIPSt3mapINSt7__cxx1112basic_stringIcSt11char_traitsIcESaIcEEES8_St4lessIS8_ESaISt4pairIKS8_S8_EEEEEvRKT_PSo
FN:1108,1113,_ZN7testing8internal14UniversalPrintISt3mapINSt7__cxx1112basic_stringIcSt11char_traitsIcESaIcEEES8_St4lessIS8_ESaISt4pairIKS8_S8_EEEEEvRKT_PSo
FN:1108,1113,_ZN7testing8internal14UniversalPrintISt4pairIKNSt7__cxx1112basic_stringIcSt11char_traitsIcESaIcEEES8_EEEvRKT_PSo
FN:1108,1113,_ZN7testing8internal14UniversalPrintISt5tupleIJdN9benchmark7Counter4OneKENSt7__cxx1112basic_stringIcSt11char_traitsIcESaIcEEEEEEEvRKT_PSo
FN:1108,1113,_ZN7testing8internal14UniversalPrintISt6vectorINSt7__cxx1112basic_stringIcSt11char_traitsIcESaIcEEESaIS8_EEEEvRKT_PSo
FN:1108,1113,_ZN7testing8internal14UniversalPrintISt6vectorIaSaIaEEEEvRKT_PSo
FN:1108,1113,_ZN7testing8internal14UniversalPrintISt6vectorIiSaIiEEEEvRKT_PSo
FN:1108,1113,_ZN7testing8internal14UniversalPrintISt6vectorIlSaIlEEEEvRKT_PSo
FN:1108,1113,_ZN7testing8internal14UniversalPrintIaEEvRKT_PSo
FN:1108,1113,_ZN7testing8internal14UniversalPrintIbEEvRKT_PSo
FN:1108,1113,_ZN7testing8internal14UniversalPrintIdEEvRKT_PSo
FN:1108,1113,_ZN7testing8internal14UniversalPrintIiEEvRKT_PSo
FN:1108,1113,_ZN7testing8internal14UniversalPrintIlEEvRKT_PSo
FN:1108,1113,_ZN7testing8internal14UniversalPrintImEEvRKT_PSo
FN:1148,1152,_ZN7testing13PrintToStringIDnEENSt7__cxx1112basic_stringIcSt11char_traitsIcESaIcEEERKT_
FN:1148,1152,_ZN7testing13PrintToStringIN9benchmark8TimeUnitEEENSt7__cxx1112basic_stringIcSt11char_traitsIcESaIcEEERKT_
FN:1148,1152,_ZN7testing13PrintToStringINSt7__cxx1112basic_stringIcSt11char_traitsIcESaIcEEEEES6_RKT_
FN:1148,1152,_ZN7testing13PrintToStringIPKcEENSt7__cxx1112basic_stringIcSt11char_traitsIcESaIcEEERKT_
FN:1148,1152,_ZN7testing13PrintToStringIPKwEENSt7__cxx1112basic_stringIcSt11char_traitsIcESaIcEEERKT_
FN:1148,1152,_ZN7testing13PrintToStringIPN5DList5DNodeEEENSt7__cxx1112basic_stringIcSt11char_traitsIcESaIcEEERKT_
FN:1148,1152,_ZN7testing13PrintToStringIPN6MyList4NodeEEENSt7__cxx1112basic_stringIcSt11char_traitsIcESaIcEEERKT_
FN:1148,1152,_ZN7testing13PrintToStringIPNSt7__cxx1112basic_stringIcSt11char_traitsIcESaIcEEEEES6_RKT_
FN:1148,1152,_ZN7testing13PrintToStringISt4pairIKNSt7__cxx1112basic_stringIcSt11char_traitsIcESaIcEEES7_EEES7_RKT_
FN:1148,1152,_ZN7testing13PrintToStringISt5tupleIJdN9benchmark7Counter4OneKENSt7__cxx1112basic_stringIcSt11char_traitsIcESaIcEEEEEEESA_RKT_
FN:1148,1152,_ZN7testing13PrintToStringISt6vectorINSt7__cxx1112basic_stringIcSt11char_traitsIcESaIcEEESaIS7_EEEES7_RKT_
FN:1148,1152,_ZN7testing13PrintToStringIbEENSt7__cxx1112basic_stringIcSt11char_traitsIcESaIcEEERKT_
FN:1148,1152,_ZN7testing13PrintToStringIdEENSt7__cxx1112basic_stringIcSt11char_traitsIcESaIcEEERKT_
FN:1148,1152,_ZN7testing13PrintToStringIiEENSt7__cxx1112basic_stringIcSt11char_traitsIcESaIcEEERKT_
FN:1148,1152,_ZN7testing13PrintToStringImEENSt7__cxx1112basic_stringIcSt11char_traitsIcESaIcEEERKT_
FN:141,164,_ZN7testing8internal16ContainerPrinter10PrintValueISt3mapINSt7__cxx1112basic_stringIcSt11char_traitsIcESaIcEEES9_St4lessIS9_ESaISt4pairIKS9_S9_EEEvEEvRKT_PSo
FN:141,164,_ZN7testing8internal16ContainerPrinter10PrintValueISt6vectorINSt7__cxx1112basic_stringIcSt11char_traitsIcESaIcEEESaIS9_EEvEEvRKT_PSo
FN:141,164,_ZN7testing8internal16ContainerPrinter10PrintValueISt6vectorIaSaIaEEvEEvRKT_PSo
FN:141,164,_ZN7testing8internal16ContainerPrinter10PrintValueISt6vectorIiSaIiEEvEEvRKT_PSo
FN:141,164,_ZN7testing8internal16ContainerPrinter10PrintValueISt6vectorIlSaIlEEvEEvRKT_PSo
FN:190,199,_ZN7testing8internal14PointerPrinter10PrintValueIN5DList5DNodeEEEvPT_PSo
FN:190,199,_ZN7testing8internal14PointerPrinter10PrintValueIN6MyList4NodeEEEvPT_PSo
FN:190,199,_ZN7testing8internal14PointerPrinter10PrintValueINSt7__cxx1112basic_stringIcSt11char_traitsIcESaIcEEEEEvPT_PSo
FN:190,199,_ZN7testing8internal14PointerPrinter10PrintValueISt3mapINSt7__cxx1112basic_stringIcSt11char_traitsIcESaIcEEES9_St4lessIS9_ESaISt4pairIKS9_S9_EEEEEvPT_PSo
FN:221,226,_ZN7testing8internal52internal_stream_operator_without_lexical_name_lookup13StreamPrinter10PrintValueIN9benchmark7Counter4OneKEvEEDTcvvlsdefp0_fp_ERKT_PSo
FN:221,226,_ZN7testing8internal52internal_stream_operator_without_lexical_name_lookup13StreamPrinter10PrintValueIN9benchmark8TimeUnitEvEEDTcvvlsdefp0_fp_ERKT_PSo
FN:221,226,_ZN7testing8internal52internal_stream_operator_without_lexical_name_lookup13StreamPrinter10PrintValueIivEEDTcvvlsdefp0_fp_ERKT_PSo
FN:221,226,_ZN7testing8internal52internal_stream_operator_without_lexical_name_lookup13StreamPrinter10PrintValueIlvEEDTcvvlsdefp0_fp_ERKT_PSo
FN:221,226,_ZN7testing8internal52internal_stream_operator_without_lexical_name_lookup13StreamPrinter10PrintValueImvEEDTcvvlsdefp0_fp_ERKT_PSo
FN:326,337,_ZN7testing8internal17PrintWithFallbackIN9benchmark7Counter4OneKEEEvRKT_PSo
FN:326,337,_ZN7testing8internal17PrintWithFallbackIN9benchmark8TimeUnitEEEvRKT_PSo
FN:326,337,_ZN7testing8internal17PrintWithFallbackIPN5DList5DNodeEEEvRKT_PSo
FN:326,337,_ZN7testing8internal17PrintWithFallbackIPN6MyList4NodeEEEvRKT_PSo
FN:326,337,_ZN7testing8internal17PrintWithFallbackIPNSt7__cxx1112basic_stringIcSt11char_traitsIcESaIcEEEEEvRKT_PSo
FN:326,337,_ZN7testing8internal17PrintWithFallbackIPSt3mapINSt7__cxx1112basic_stringIcSt11char_traitsIcESaIcEEES8_St4lessIS8_ESaISt4pairIKS8_S8_EEEEEvRKT_PSo
FN:326,337,_ZN7testing8internal17PrintWithFallbackISt3mapINSt7__cxx1112basic_stringIcSt11char_traitsIcESaIcEEES8_St4lessIS8_ESaISt4pairIKS8_S8_EEEEEvRKT_PSo
FN:326,337,_ZN7testing8internal17PrintWithFallbackISt6vectorINSt7__cxx1112basic_stringIcSt11char_traitsIcESaIcEEESaIS8_EEEEvRKT_PSo
FN:326,337,_ZN7testing8internal17PrintWithFallbackISt6vectorIaSaIaEEEEvRKT_PSo
FN:326,337,_ZN7testing8internal17PrintWithFallbackISt6vectorIiSaIiEEEEvRKT_PSo
FN:326,337,_ZN7testing8internal17PrintWithFallbackISt6vectorIlSaIlEEEEvRKT_PSo
FN:326,337,_ZN7testing8internal17PrintWithFallbackIiEEvRKT_PSo
FN:326,337,_ZN7testing8internal17PrintWithFallbackIlEEvRKT_PSo
FN:326,337,_ZN7testing8internal17PrintWithFallbackImEEvRKT_PSo
FN:357,359,_ZN7testing8internal19FormatForComparisonIDnPN5DList5DNodeEE6FormatB5cxx11ERKDn
FN:357,359,_ZN7testing8internal19FormatForComparisonIDnPN6MyList4NodeEE6FormatB5cxx11ERKDn
FN:357,359,_ZN7testing8internal19FormatForComparisonIDnPNSt7__cxx1112basic_stringIcSt11char_traitsIcESaIcEEEE6FormatERKDn
FN:357,359,_ZN7testing8internal19FormatForComparisonIN9benchmark8TimeUnitES3_E6FormatB5cxx11ERKS3_
FN:357,359,_ZN7testing8internal19FormatForComparisonINSt7__cxx1112basic_stringIcSt11char_traitsIcESaIcEEEA12_cE6FormatERKS7_
FN:357,359,_ZN7testing8internal19FormatForComparisonINSt7__cxx1112basic_stringIcSt11char_traitsIcESaIcEEEA13_cE6FormatERKS7_
FN:357,359,_ZN7testing8internal19FormatForComparisonINSt7__cxx1112basic_stringIcSt11char_traitsIcESaIcEEEA14_cE6FormatERKS7_
FN:357,359,_ZN7testing8internal19FormatForComparisonINSt7__cxx1112basic_stringIcSt11char_traitsIcESaIcEEEA16_cE6FormatERKS7_
FN:357,359,_ZN7testing8internal19FormatForComparisonINSt7__cxx1112basic_stringIcSt11char_traitsIcESaIcEEEA1_cE6FormatERKS7_
FN:357,359,_ZN7testing8internal19FormatForComparisonINSt7__cxx1112basic_stringIcSt11char_traitsIcESaIcEEEA28_cE6FormatERKS7_
FN:357,359,_ZN7testing8internal19FormatForComparisonINSt7__cxx1112basic_stringIcSt11char_traitsIcESaIcEEEA2_cE6FormatERKS7_
FN:357,359,_ZN7testing8internal19FormatForComparisonINSt7__cxx1112basic_stringIcSt11char_traitsIcESaIcEEEA30_cE6FormatERKS7_
FN:357,359,_ZN7testing8internal19FormatForComparisonINSt7__cxx1112basic_stringIcSt11char_traitsIcESaIcEEEA3_cE6FormatERKS7_
FN:357,359,_ZN7testing8internal19FormatForComparisonINSt7__cxx1112basic_stringIcSt11char_traitsIcESaIcEEEA40_cE6FormatERKS7_
FN:357,359,_ZN7testing8internal19FormatForComparisonINSt7__cxx1112basic_stringIcSt11char_traitsIcESaIcEEEA42_cE6FormatERKS7_
FN:357,359,_ZN7testing8internal19FormatForComparisonINSt7__cxx1112basic_stringIcSt11char_traitsIcESaIcEEEA43_cE6FormatERKS7_
FN:357,359,_ZN7testing8internal19FormatForComparisonINSt7__cxx1112basic_stringIcSt11char_traitsIcESaIcEEEA49_cE6FormatERKS7_
FN:357,359,_ZN7testing8internal19FormatForComparisonINSt7__cxx1112basic_stringIcSt11char_traitsIcESaIcEEEA4_cE6FormatERKS7_
FN:357,359,_ZN7testing8internal19FormatForComparisonINSt7__cxx1112basic_stringIcSt11char_traitsIcESaIcEEEA5_cE6FormatERKS7_
FN:357,359,_ZN7testing8internal19FormatForComparisonINSt7__cxx1112basic_stringIcSt11char_traitsIcESaIcEEEA6_cE6FormatERKS7_
FN:357,359,_ZN7testing8internal19FormatForComparisonINSt7__cxx1112basic_stringIcSt11char_traitsIcESaIcEEEA7_cE6FormatERKS7_
FN:357,359,_ZN7testing8internal19FormatForComparisonINSt7__cxx1112basic_stringIcSt11char_traitsIcESaIcEEES7_E6FormatERKS7_
FN:357,359,_ZN7testing8internal19FormatForComparisonIPN5DList5DNodeEDnE6FormatB5cxx11ERKS4_
FN:357,359,_ZN7testing8internal19FormatForComparisonIPN6MyList4NodeEDnE6FormatB5cxx11ERKS4_
FN:357,359,_ZN7testing8internal19FormatForComparisonIPNSt7__cxx1112basic_stringIcSt11char_traitsIcESaIcEEEDnE6FormatERKS8_
FN:357,359,_ZN7testing8internal19FormatForComparisonISt6vectorINSt7__cxx1112basic_stringIcSt11char_traitsIcESaIcEEESaIS8_EESA_E6FormatERKSA_
FN:357,359,_ZN7testing8internal19FormatForComparisonIbbE6FormatB5cxx11ERKb
FN:357,359,_ZN7testing8internal19FormatForComparisonIddE6FormatB5cxx11ERKd
FN:357,359,_ZN7testing8internal19FormatForComparisonIiiE6FormatB5cxx11ERKi
FN:357,359,_ZN7testing8internal19FormatForComparisonIimE6FormatB5cxx11ERKi
FN:357,359,_ZN7testing8internal19FormatForComparisonImiE6FormatB5cxx11ERKm
FN:357,359,_ZN7testing8internal19FormatForComparisonImmE6FormatB5cxx11ERKm
FN:366,368,_ZN7testing8internal19FormatForComparisonIA12_cNSt7__cxx1112basic_stringIcSt11char_traitsIcESaIcEEEE6FormatEPKc
FN:366,368,_ZN7testing8internal19FormatForComparisonIA13_cNSt7__cxx1112basic_stringIcSt11char_traitsIcESaIcEEEE6FormatEPKc
FN:366,368,_ZN7testing8internal19FormatForComparisonIA14_cNSt7__cxx1112basic_stringIcSt11char_traitsIcESaIcEEEE6FormatEPKc
FN:366,368,_ZN7testing8internal19FormatForComparisonIA16_cNSt7__cxx1112basic_stringIcSt11char_traitsIcESaIcEEEE6FormatEPKc
FN:366,368,_ZN7testing8internal19FormatForComparisonIA1_cNSt7__cxx1112basic_stringIcSt11char_traitsIcESaIcEEEE6FormatEPKc
FN:366,368,_ZN7testing8internal19FormatForComparisonIA28_cNSt7__cxx1112basic_stringIcSt11char_traitsIcESaIcEEEE6FormatEPKc
FN:366,368,_ZN7testing8internal19FormatForComparisonIA2_cNSt7__cxx1112basic_stringIcSt11char_traitsIcESaIcEEEE6FormatEPKc
FN:366,368,_ZN7testing8internal19FormatForComparisonIA30_cNSt7__cxx1112basic_stringIcSt11char_traitsIcESaIcEEEE6FormatEPKc
FN:366,368,_ZN7testing8internal19FormatForComparisonIA3_cNSt7__cxx1112basic_stringIcSt11char_traitsIcESaIcEEEE6FormatEPKc
FN:366,368,_ZN7testing8internal19FormatForComparisonIA40_cNSt7__cxx1112basic_stringIcSt11char_traitsIcESaIcEEEE6FormatEPKc
FN:366,368,_ZN7testing8internal19FormatForComparisonIA42_cNSt7__cxx1112basic_stringIcSt11char_traitsIcESaIcEEEE6FormatEPKc
FN:366,368,_ZN7testing8internal19FormatForComparisonIA43_cNSt7__cxx1112basic_stringIcSt11char_traitsIcESaIcEEEE6FormatEPKc
FN:366,368,_ZN7testing8internal19FormatForComparisonIA49_cNSt7__cxx1112basic_stringIcSt11char_traitsIcESaIcEEEE6FormatEPKc
FN:366,368,_ZN7testing8internal19FormatForComparisonIA4_cNSt7__cxx1112basic_stringIcSt11char_traitsIcESaIcEEEE6FormatEPKc
FN:366,368,_ZN7testing8internal19FormatForComparisonIA5_cNSt7__cxx1112basic_stringIcSt11char_traitsIcESaIcEEEE6FormatEPKc
FN:366,368,_ZN7testing8internal19FormatForComparisonIA6_cNSt7__cxx1112basic_stringIcSt11char_traitsIcESaIcEEEE6FormatEPKc
FN:366,368,_ZN7testing8internal19FormatForComparisonIA7_cNSt7__cxx1112basic_stringIcSt11char_traitsIcESaIcEEEE6FormatEPKc
FN:411,411,_ZN7testing8internal19FormatForComparisonIPKcNSt7__cxx1112basic_stringIcSt11char_traitsIcESaIcEEEE6FormatES3_
FN:437,440,_ZN7testing8internal33FormatForComparisonFailureMessageIA12_cNSt7__cxx1112basic_stringIcSt11char_traitsIcESaIcEEEEES8_RKT_RKT0_
FN:437,440,_ZN7testing8internal33FormatForComparisonFailureMessageIA13_cNSt7__cxx1112basic_stringIcSt11char_traitsIcESaIcEEEEES8_RKT_RKT0_
FN:437,440,_ZN7testing8internal33FormatForComparisonFailureMessageIA14_cNSt7__cxx1112basic_stringIcSt11char_traitsIcESaIcEEEEES8_RKT_RKT0_
FN:437,440,_ZN7testing8internal33FormatForComparisonFailureMessageIA16_cNSt7__cxx1112basic_stringIcSt11char_traitsIcESaIcEEEEES8_RKT_RKT0_
FN:437,440,_ZN7testing8internal33FormatForComparisonFailureMessageIA1_cNSt7__cxx1112basic_stringIcSt11char_traitsIcESaIcEEEEES8_RKT_RKT0_
FN:437,440,_ZN7testing8internal33FormatForComparisonFailureMessageIA28_cNSt7__cxx1112basic_stringIcSt11char_traitsIcESaIcEEEEES8_RKT_RKT0_
FN:437,440,_ZN7testing8internal33FormatForComparisonFailureMessageIA2_cNSt7__cxx1112basic_stringIcSt11char_traitsIcESaIcEEEEES8_RKT_RKT0_
FN:437,440,_ZN7testing8internal33FormatForComparisonFailureMessageIA30_cNSt7__cxx1112basic_stringIcSt11char_traitsIcESaIcEEEEES8_RKT_RKT0_
