TN:
SF:/usr/include/boost/test/unit_test_suite.hpp
FN:387,_Z14init_unit_testv
FNDA:1,_Z14init_unit_testv
DA:387,1
DA:394,1
end_of_record
SF:/usr/include/c++/11/bits/basic_string.tcc
FN:206,_ZNSt7__cxx1112basic_stringIcSt11char_traitsIcESaIcEE12_M_constructIPcEEvT_S7_St20forward_iterator_tag
FNDA:0,_ZNSt7__cxx1112basic_stringIcSt11char_traitsIcESaIcEE12_M_constructIPcEEvT_S7_St20forward_iterator_tag
FN:206,_ZNSt7__cxx1112basic_stringIcSt11char_traitsIcESaIcEE12_M_constructIPKcEEvT_S8_St20forward_iterator_tag
FNDA:20,_ZNSt7__cxx1112basic_stringIcSt11char_traitsIcESaIcEE12_M_constructIPKcEEvT_S8_St20forward_iterator_tag
DA:206,0
DA:211,0
DA:212,0
DA:215,0
DA:217,0
DA:219,0
DA:220,0
DA:225,0
DA:226,0
DA:228,0
DA:229,0
DA:232,0
DA:233,0
DA:206,20
DA:211,20
DA:212,0
DA:215,20
DA:217,20
DA:219,2
DA:220,2
DA:225,20
DA:226,0
DA:228,0
DA:229,0
DA:232,20
DA:233,20
end_of_record
SF:/usr/include/boost/core/ignore_unused.hpp
DA:18,31
end_of_record
SF:/usr/include/boost/test/utils/lazy_ostream.hpp
FN:33,_ZN5boost9unit_test12lazy_ostreamD2Ev
FNDA:158,_ZN5boost9unit_test12lazy_ostreamD2Ev
FN:33,_ZN5boost9unit_test12lazy_ostreamD0Ev
FNDA:0,_ZN5boost9unit_test12lazy_ostreamD0Ev
FN:35,_ZN5boost9unit_test12lazy_ostream8instanceEv
FNDA:158,_ZN5boost9unit_test12lazy_ostream8instanceEv
FN:51,_ZNK5boost9unit_test12lazy_ostreamclERSo
FNDA:0,_ZNK5boost9unit_test12lazy_ostreamclERSo
FN:53,_ZN5boost9unit_test12lazy_ostreamC2Eb
FNDA:158,_ZN5boost9unit_test12lazy_ostreamC2Eb
FN:72,_ZN5boost9unit_test17lazy_ostream_implINS0_12lazy_ostreamEA60_cRA60_KcEC2ERKS2_S6_
FNDA:0,_ZN5boost9unit_test17lazy_ostream_implINS0_12lazy_ostreamEA60_cRA60_KcEC2ERKS2_S6_
FN:72,_ZN5boost9unit_test17lazy_ostream_implINS0_12lazy_ostreamEA1_cRA1_KcEC2ERKS2_S6_
FNDA:27,_ZN5boost9unit_test17lazy_ostream_implINS0_12lazy_ostreamEA1_cRA1_KcEC2ERKS2_S6_
FN:72,_ZN5boost9unit_test17lazy_ostream_implINS0_12lazy_ostreamEA59_cRA59_KcEC2ERKS2_S6_
FNDA:0,_ZN5boost9unit_test17lazy_ostream_implINS0_12lazy_ostreamEA59_cRA59_KcEC2ERKS2_S6_
FN:72,_ZN5boost9unit_test17lazy_ostream_implINS0_12lazy_ostreamEA53_cRA53_KcEC2ERKS2_S6_
FNDA:3,_ZN5boost9unit_test17lazy_ostream_implINS0_12lazy_ostreamEA53_cRA53_KcEC2ERKS2_S6_
FN:72,_ZN5boost9unit_test17lazy_ostream_implINS0_12lazy_ostreamEA63_cRA63_KcEC2ERKS2_S6_
FNDA:0,_ZN5boost9unit_test17lazy_ostream_implINS0_12lazy_ostreamEA63_cRA63_KcEC2ERKS2_S6_
FN:72,_ZN5boost9unit_test17lazy_ostream_implINS0_12lazy_ostreamEA56_cRA56_KcEC2ERKS2_S6_
FNDA:2,_ZN5boost9unit_test17lazy_ostream_implINS0_12lazy_ostreamEA56_cRA56_KcEC2ERKS2_S6_
FN:72,_ZN5boost9unit_test17lazy_ostream_implINS0_12lazy_ostreamEA48_cRA48_KcEC2ERKS2_S6_
FNDA:0,_ZN5boost9unit_test17lazy_ostream_implINS0_12lazy_ostreamEA48_cRA48_KcEC2ERKS2_S6_
FN:72,_ZN5boost9unit_test17lazy_ostream_implINS0_12lazy_ostreamEA62_cRA62_KcEC2ERKS2_S6_
FNDA:0,_ZN5boost9unit_test17lazy_ostream_implINS0_12lazy_ostreamEA62_cRA62_KcEC2ERKS2_S6_
FN:72,_ZN5boost9unit_test17lazy_ostream_implINS0_12lazy_ostreamEA55_cRA55_KcEC2ERKS2_S6_
FNDA:2,_ZN5boost9unit_test17lazy_ostream_implINS0_12lazy_ostreamEA55_cRA55_KcEC2ERKS2_S6_
FN:72,_ZN5boost9unit_test17lazy_ostream_implINS0_12lazy_ostreamEA52_cRA52_KcEC2ERKS2_S6_
FNDA:2,_ZN5boost9unit_test17lazy_ostream_implINS0_12lazy_ostreamEA52_cRA52_KcEC2ERKS2_S6_
FN:72,_ZN5boost9unit_test17lazy_ostream_implINS0_12lazy_ostreamEA44_cRA44_KcEC2ERKS2_S6_
FNDA:0,_ZN5boost9unit_test17lazy_ostream_implINS0_12lazy_ostreamEA44_cRA44_KcEC2ERKS2_S6_
FN:72,_ZN5boost9unit_test17lazy_ostream_implINS0_12lazy_ostreamEA37_cRA37_KcEC2ERKS2_S6_
FNDA:6,_ZN5boost9unit_test17lazy_ostream_implINS0_12lazy_ostreamEA37_cRA37_KcEC2ERKS2_S6_
FN:72,_ZN5boost9unit_test17lazy_ostream_implINS0_12lazy_ostreamEA46_cRA46_KcEC2ERKS2_S6_
FNDA:6,_ZN5boost9unit_test17lazy_ostream_implINS0_12lazy_ostreamEA46_cRA46_KcEC2ERKS2_S6_
FN:72,_ZN5boost9unit_test17lazy_ostream_implINS0_12lazy_ostreamEA39_cRA39_KcEC2ERKS2_S6_
FNDA:1,_ZN5boost9unit_test17lazy_ostream_implINS0_12lazy_ostreamEA39_cRA39_KcEC2ERKS2_S6_
FN:72,_ZN5boost9unit_test17lazy_ostream_implINS0_12lazy_ostreamEA45_cRA45_KcEC2ERKS2_S6_
FNDA:37,_ZN5boost9unit_test17lazy_ostream_implINS0_12lazy_ostreamEA45_cRA45_KcEC2ERKS2_S6_
FN:72,_ZN5boost9unit_test17lazy_ostream_implINS0_12lazy_ostreamEA38_cRA38_KcEC2ERKS2_S6_
FNDA:5,_ZN5boost9unit_test17lazy_ostream_implINS0_12lazy_ostreamEA38_cRA38_KcEC2ERKS2_S6_
FN:72,_ZN5boost9unit_test17lazy_ostream_implINS0_12lazy_ostreamENS0_13basic_cstringIKcEERKS5_EC2ERKS2_S7_
FNDA:9,_ZN5boost9unit_test17lazy_ostream_implINS0_12lazy_ostreamENS0_13basic_cstringIKcEERKS5_EC2ERKS2_S7_
FN:72,_ZN5boost9unit_test17lazy_ostream_implINS0_12lazy_ostreamENS_10test_tools9tt_detail14print_helper_tINSt7__cxx1112basic_stringIcSt11char_traitsIcESaIcEEEEERKSC_EC2ERKS2_SE_
FNDA:54,_ZN5boost9unit_test17lazy_ostream_implINS0_12lazy_ostreamENS_10test_tools9tt_detail14print_helper_tINSt7__cxx1112basic_stringIcSt11char_traitsIcESaIcEEEEERKSC_EC2ERKS2_SE_
FN:72,_ZN5boost9unit_test17lazy_ostream_implINS0_12lazy_ostreamEA49_cRA49_KcEC2ERKS2_S6_
FNDA:4,_ZN5boost9unit_test17lazy_ostream_implINS0_12lazy_ostreamEA49_cRA49_KcEC2ERKS2_S6_
FN:79,_ZNK5boost9unit_test17lazy_ostream_implINS0_12lazy_ostreamEA45_cRA45_KcEclERSo
FNDA:0,_ZNK5boost9unit_test17lazy_ostream_implINS0_12lazy_ostreamEA45_cRA45_KcEclERSo
FN:79,_ZNK5boost9unit_test17lazy_ostream_implINS0_12lazy_ostreamEA39_cRA39_KcEclERSo
FNDA:0,_ZNK5boost9unit_test17lazy_ostream_implINS0_12lazy_ostreamEA39_cRA39_KcEclERSo
FN:79,_ZNK5boost9unit_test17lazy_ostream_implINS0_12lazy_ostreamEA46_cRA46_KcEclERSo
FNDA:0,_ZNK5boost9unit_test17lazy_ostream_implINS0_12lazy_ostreamEA46_cRA46_KcEclERSo
FN:79,_ZNK5boost9unit_test17lazy_ostream_implINS0_12lazy_ostreamEA37_cRA37_KcEclERSo
FNDA:0,_ZNK5boost9unit_test17lazy_ostream_implINS0_12lazy_ostreamEA37_cRA37_KcEclERSo
FN:79,_ZNK5boost9unit_test17lazy_ostream_implINS0_12lazy_ostreamEA44_cRA44_KcEclERSo
FNDA:0,_ZNK5boost9unit_test17lazy_ostream_implINS0_12lazy_ostreamEA44_cRA44_KcEclERSo
FN:79,_ZNK5boost9unit_test17lazy_ostream_implINS0_12lazy_ostreamEA52_cRA52_KcEclERSo
FNDA:0,_ZNK5boost9unit_test17lazy_ostream_implINS0_12lazy_ostreamEA52_cRA52_KcEclERSo
FN:79,_ZNK5boost9unit_test17lazy_ostream_implINS0_12lazy_ostreamEA1_cRA1_KcEclERSo
FNDA:0,_ZNK5boost9unit_test17lazy_ostream_implINS0_12lazy_ostreamEA1_cRA1_KcEclERSo
FN:79,_ZNK5boost9unit_test17lazy_ostream_implINS0_12lazy_ostreamEA55_cRA55_KcEclERSo
FNDA:0,_ZNK5boost9unit_test17lazy_ostream_implINS0_12lazy_ostreamEA55_cRA55_KcEclERSo
FN:79,_ZNK5boost9unit_test17lazy_ostream_implINS0_12lazy_ostreamEA62_cRA62_KcEclERSo
FNDA:0,_ZNK5boost9unit_test17lazy_ostream_implINS0_12lazy_ostreamEA62_cRA62_KcEclERSo
FN:79,_ZNK5boost9unit_test17lazy_ostream_implINS0_12lazy_ostreamEA48_cRA48_KcEclERSo
FNDA:0,_ZNK5boost9unit_test17lazy_ostream_implINS0_12lazy_ostreamEA48_cRA48_KcEclERSo
FN:79,_ZNK5boost9unit_test17lazy_ostream_implINS0_12lazy_ostreamEA63_cRA63_KcEclERSo
FNDA:0,_ZNK5boost9unit_test17lazy_ostream_implINS0_12lazy_ostreamEA63_cRA63_KcEclERSo
FN:79,_ZNK5boost9unit_test17lazy_ostream_implINS0_12lazy_ostreamENS_10test_tools9tt_detail14print_helper_tINSt7__cxx1112basic_stringIcSt11char_traitsIcESaIcEEEEERKSC_EclERSo
FNDA:0,_ZNK5boost9unit_test17lazy_ostream_implINS0_12lazy_ostreamENS_10test_tools9tt_detail14print_helper_tINSt7__cxx1112basic_stringIcSt11char_traitsIcESaIcEEEEERKSC_EclERSo
FN:79,_ZNK5boost9unit_test17lazy_ostream_implINS0_12lazy_ostreamENS0_13basic_cstringIKcEERKS5_EclERSo
FNDA:0,_ZNK5boost9unit_test17lazy_ostream_implINS0_12lazy_ostreamENS0_13basic_cstringIKcEERKS5_EclERSo
FN:79,_ZNK5boost9unit_test17lazy_ostream_implINS0_12lazy_ostreamEA49_cRA49_KcEclERSo
FNDA:0,_ZNK5boost9unit_test17lazy_ostream_implINS0_12lazy_ostreamEA49_cRA49_KcEclERSo
FN:79,_ZNK5boost9unit_test17lazy_ostream_implINS0_12lazy_ostreamEA60_cRA60_KcEclERSo
FNDA:0,_ZNK5boost9unit_test17lazy_ostream_implINS0_12lazy_ostreamEA60_cRA60_KcEclERSo
FN:79,_ZNK5boost9unit_test17lazy_ostream_implINS0_12lazy_ostreamEA59_cRA59_KcEclERSo
FNDA:0,_ZNK5boost9unit_test17lazy_ostream_implINS0_12lazy_ostreamEA59_cRA59_KcEclERSo
FN:79,_ZNK5boost9unit_test17lazy_ostream_implINS0_12lazy_ostreamEA56_cRA56_KcEclERSo
FNDA:0,_ZNK5boost9unit_test17lazy_ostream_implINS0_12lazy_ostreamEA56_cRA56_KcEclERSo
FN:79,_ZNK5boost9unit_test17lazy_ostream_implINS0_12lazy_ostreamEA38_cRA38_KcEclERSo
FNDA:0,_ZNK5boost9unit_test17lazy_ostream_implINS0_12lazy_ostreamEA38_cRA38_KcEclERSo
FN:79,_ZNK5boost9unit_test17lazy_ostream_implINS0_12lazy_ostreamEA53_cRA53_KcEclERSo
FNDA:0,_ZNK5boost9unit_test17lazy_ostream_implINS0_12lazy_ostreamEA53_cRA53_KcEclERSo
FN:93,_ZN5boost9unit_testlsIA44_cEENS0_17lazy_ostream_implINS0_12lazy_ostreamET_RKS5_EERKS4_S7_
FNDA:0,_ZN5boost9unit_testlsIA44_cEENS0_17lazy_ostream_implINS0_12lazy_ostreamET_RKS5_EERKS4_S7_
FN:93,_ZN5boost9unit_testlsINS_10test_tools9tt_detail14print_helper_tINSt7__cxx1112basic_stringIcSt11char_traitsIcESaIcEEEEEEENS0_17lazy_ostream_implINS0_12lazy_ostreamET_RKSE_EERKSD_SG_
FNDA:54,_ZN5boost9unit_testlsINS_10test_tools9tt_detail14print_helper_tINSt7__cxx1112basic_stringIcSt11char_traitsIcESaIcEEEEEEENS0_17lazy_ostream_implINS0_12lazy_ostreamET_RKSE_EERKSD_SG_
FN:93,_ZN5boost9unit_testlsINS0_13basic_cstringIKcEEEENS0_17lazy_ostream_implINS0_12lazy_ostreamET_RKS7_EERKS6_S9_
FNDA:9,_ZN5boost9unit_testlsINS0_13basic_cstringIKcEEEENS0_17lazy_ostream_implINS0_12lazy_ostreamET_RKS7_EERKS6_S9_
FN:93,_ZN5boost9unit_testlsIA38_cEENS0_17lazy_ostream_implINS0_12lazy_ostreamET_RKS5_EERKS4_S7_
FNDA:5,_ZN5boost9unit_testlsIA38_cEENS0_17lazy_ostream_implINS0_12lazy_ostreamET_RKS5_EERKS4_S7_
FN:93,_ZN5boost9unit_testlsIA45_cEENS0_17lazy_ostream_implINS0_12lazy_ostreamET_RKS5_EERKS4_S7_
FNDA:37,_ZN5boost9unit_testlsIA45_cEENS0_17lazy_ostream_implINS0_12lazy_ostreamET_RKS5_EERKS4_S7_
FN:93,_ZN5boost9unit_testlsIA39_cEENS0_17lazy_ostream_implINS0_12lazy_ostreamET_RKS5_EERKS4_S7_
FNDA:1,_ZN5boost9unit_testlsIA39_cEENS0_17lazy_ostream_implINS0_12lazy_ostreamET_RKS5_EERKS4_S7_
FN:93,_ZN5boost9unit_testlsIA46_cEENS0_17lazy_ostream_implINS0_12lazy_ostreamET_RKS5_EERKS4_S7_
FNDA:6,_ZN5boost9unit_testlsIA46_cEENS0_17lazy_ostream_implINS0_12lazy_ostreamET_RKS5_EERKS4_S7_
FN:93,_ZN5boost9unit_testlsIA37_cEENS0_17lazy_ostream_implINS0_12lazy_ostreamET_RKS5_EERKS4_S7_
FNDA:6,_ZN5boost9unit_testlsIA37_cEENS0_17lazy_ostream_implINS0_12lazy_ostreamET_RKS5_EERKS4_S7_
FN:93,_ZN5boost9unit_testlsIA49_cEENS0_17lazy_ostream_implINS0_12lazy_ostreamET_RKS5_EERKS4_S7_
FNDA:4,_ZN5boost9unit_testlsIA49_cEENS0_17lazy_ostream_implINS0_12lazy_ostreamET_RKS5_EERKS4_S7_
FN:93,_ZN5boost9unit_testlsIA52_cEENS0_17lazy_ostream_implINS0_12lazy_ostreamET_RKS5_EERKS4_S7_
FNDA:2,_ZN5boost9unit_testlsIA52_cEENS0_17lazy_ostream_implINS0_12lazy_ostreamET_RKS5_EERKS4_S7_
FN:93,_ZN5boost9unit_testlsIA1_cEENS0_17lazy_ostream_implINS0_12lazy_ostreamET_RKS5_EERKS4_S7_
FNDA:27,_ZN5boost9unit_testlsIA1_cEENS0_17lazy_ostream_implINS0_12lazy_ostreamET_RKS5_EERKS4_S7_
FN:93,_ZN5boost9unit_testlsIA55_cEENS0_17lazy_ostream_implINS0_12lazy_ostreamET_RKS5_EERKS4_S7_
FNDA:2,_ZN5boost9unit_testlsIA55_cEENS0_17lazy_ostream_implINS0_12lazy_ostreamET_RKS5_EERKS4_S7_
FN:93,_ZN5boost9unit_testlsIA62_cEENS0_17lazy_ostream_implINS0_12lazy_ostreamET_RKS5_EERKS4_S7_
FNDA:0,_ZN5boost9unit_testlsIA62_cEENS0_17lazy_ostream_implINS0_12lazy_ostreamET_RKS5_EERKS4_S7_
FN:93,_ZN5boost9unit_testlsIA48_cEENS0_17lazy_ostream_implINS0_12lazy_ostreamET_RKS5_EERKS4_S7_
FNDA:0,_ZN5boost9unit_testlsIA48_cEENS0_17lazy_ostream_implINS0_12lazy_ostreamET_RKS5_EERKS4_S7_
FN:93,_ZN5boost9unit_testlsIA56_cEENS0_17lazy_ostream_implINS0_12lazy_ostreamET_RKS5_EERKS4_S7_
FNDA:2,_ZN5boost9unit_testlsIA56_cEENS0_17lazy_ostream_implINS0_12lazy_ostreamET_RKS5_EERKS4_S7_
FN:93,_ZN5boost9unit_testlsIA63_cEENS0_17lazy_ostream_implINS0_12lazy_ostreamET_RKS5_EERKS4_S7_
FNDA:0,_ZN5boost9unit_testlsIA63_cEENS0_17lazy_ostream_implINS0_12lazy_ostreamET_RKS5_EERKS4_S7_
FN:93,_ZN5boost9unit_testlsIA53_cEENS0_17lazy_ostream_implINS0_12lazy_ostreamET_RKS5_EERKS4_S7_
FNDA:3,_ZN5boost9unit_testlsIA53_cEENS0_17lazy_ostream_implINS0_12lazy_ostreamET_RKS5_EERKS4_S7_
FN:93,_ZN5boost9unit_testlsIA59_cEENS0_17lazy_ostream_implINS0_12lazy_ostreamET_RKS5_EERKS4_S7_
FNDA:0,_ZN5boost9unit_testlsIA59_cEENS0_17lazy_ostream_implINS0_12lazy_ostreamET_RKS5_EERKS4_S7_
FN:93,_ZN5boost9unit_testlsIA60_cEENS0_17lazy_ostream_implINS0_12lazy_ostreamET_RKS5_EERKS4_S7_
FNDA:0,_ZN5boost9unit_testlsIA60_cEENS0_17lazy_ostream_implINS0_12lazy_ostreamET_RKS5_EERKS4_S7_
DA:33,0
DA:33,158
DA:35,158
DA:51,0
DA:53,158
DA:72,0
DA:74,0
DA:75,0
DA:77,0
DA:72,5
DA:74,5
DA:75,5
DA:77,5
DA:72,37
DA:74,37
DA:75,37
DA:77,37
DA:72,1
DA:74,1
DA:75,1
DA:77,1
DA:72,6
DA:74,6
DA:75,6
DA:77,6
DA:72,6
DA:74,6
DA:75,6
DA:77,6
DA:72,0
DA:74,0
DA:75,0
DA:77,0
DA:72,2
DA:74,2
DA:75,2
DA:77,2
DA:72,27
DA:74,27
DA:75,27
DA:77,27
DA:72,2
DA:74,2
DA:75,2
DA:77,2
DA:72,54
DA:74,54
DA:75,54
DA:77,54
DA:72,0
DA:74,0
DA:75,0
DA:77,0
DA:72,2
DA:74,2
DA:75,2
DA:77,2
DA:72,0
DA:74,0
DA:75,0
DA:77,0
DA:72,3
DA:74,3
DA:75,3
DA:77,3
DA:72,0
DA:74,0
DA:75,0
DA:77,0
DA:72,0
DA:74,0
DA:75,0
DA:77,0
DA:72,4
DA:74,4
DA:75,4
DA:77,4
DA:72,9
DA:74,9
DA:75,9
DA:77,9
DA:79,0
DA:81,0
DA:79,0
DA:81,0
DA:79,0
DA:81,0
DA:79,0
DA:81,0
DA:79,0
DA:81,0
DA:79,0
DA:81,0
DA:79,0
DA:81,0
DA:79,0
DA:81,0
DA:79,0
DA:81,0
DA:79,0
DA:81,0
DA:79,0
DA:81,0
DA:79,0
DA:81,0
DA:79,0
DA:81,0
DA:79,0
DA:81,0
DA:79,0
DA:81,0
DA:79,0
DA:81,0
DA:79,0
DA:81,0
DA:79,0
DA:81,0
DA:79,0
DA:81,0
DA:93,0
DA:95,0
DA:93,5
DA:95,5
DA:93,37
DA:95,37
DA:93,1
DA:95,1
DA:93,6
DA:95,6
DA:93,6
DA:95,6
DA:93,0
DA:95,0
DA:93,2
DA:95,2
DA:93,27
DA:95,27
DA:93,2
DA:95,2
DA:93,54
DA:95,54
DA:93,0
DA:95,0
DA:93,2
DA:95,2
DA:93,0
DA:95,0
DA:93,3
DA:95,3
DA:93,0
DA:95,0
DA:93,0
DA:95,0
DA:93,4
DA:95,4
DA:93,9
DA:95,9
end_of_record
SF:/usr/include/boost/function/function_template.hpp
FN:112,_ZN5boost6detail8function22void_function_invoker0IPFvvEvE6invokeERNS1_15function_bufferE
FNDA:15,_ZN5boost6detail8function22void_function_invoker0IPFvvEvE6invokeERNS1_15function_bufferE
FN:490,_ZNK5boost6detail8function13basic_vtable0IvE9assign_toIPFvvEEEbT_RNS1_15function_bufferE
FNDA:15,_ZNK5boost6detail8function13basic_vtable0IvE9assign_toIPFvvEEEbT_RNS1_15function_bufferE
FN:502,_ZNK5boost6detail8function13basic_vtable0IvE5clearERNS1_15function_bufferE
FNDA:15,_ZNK5boost6detail8function13basic_vtable0IvE5clearERNS1_15function_bufferE
FN:512,_ZNK5boost6detail8function13basic_vtable0IvE9assign_toIPFvvEEEbT_RNS1_15function_bufferENS1_16function_ptr_tagE
FNDA:15,_ZNK5boost6detail8function13basic_vtable0IvE9assign_toIPFvvEEEbT_RNS1_15function_bufferENS1_16function_ptr_tagE
FN:677,_ZNK5boost9function0IvE10get_vtableEv
FNDA:0,_ZNK5boost9function0IvE10get_vtableEv
FN:711,_ZN5boost9function0IvEC2IPFvvEEET_NS_10enable_if_IXntsrNS_11is_integralIS5_EE5valueEiE4typeE
FNDA:15,_ZN5boost9function0IvEC2IPFvvEEET_NS_10enable_if_IXntsrNS_11is_integralIS5_EE5valueEiE4typeE
FN:756,_ZN5boost9function0IvED2Ev
FNDA:15,_ZN5boost9function0IvED2Ev
FN:868,_ZN5boost9function0IvE5clearEv
FNDA:15,_ZN5boost9function0IvE5clearEv
FN:921,_ZN5boost9function0IvE9assign_toIPFvvEEEvT_
FNDA:15,_ZN5boost9function0IvE9assign_toIPFvvEEEvT_
FN:1079,_ZN5boost8functionIFvvEEC2IPS1_EET_NS_10enable_if_IXntsrNS_11is_integralIS5_EE5valueEiE4typeE
FNDA:15,_ZN5boost8functionIFvvEEC2IPS1_EET_NS_10enable_if_IXntsrNS_11is_integralIS5_EE5valueEiE4typeE
DA:112,15
DA:116,15
DA:117,15
DA:118,15
DA:490,15
DA:493,15
DA:502,15
DA:504,15
DA:505,15
DA:506,15
DA:512,15
DA:514,15
DA:515,15
DA:518,15
DA:519,15
DA:521,0
DA:677,0
DA:679,0
DA:711,15
DA:718,15
DA:720,15
DA:721,15
DA:756,15
DA:868,15
DA:870,15
DA:871,15
DA:872,0
DA:873,15
DA:875,15
DA:921,15
DA:942,15
DA:943,15
DA:948,15
DA:949,15
DA:951,0
DA:952,15
DA:1079,15
DA:1086,15
DA:1088,15
end_of_record
SF:/usr/include/c++/11/bits/stl_iterator_base_funcs.h
FN:98,_ZSt10__distanceIPcENSt15iterator_traitsIT_E15difference_typeES2_S2_St26random_access_iterator_tag
FNDA:0,_ZSt10__distanceIPcENSt15iterator_traitsIT_E15difference_typeES2_S2_St26random_access_iterator_tag
FN:98,_ZSt10__distanceIPKcENSt15iterator_traitsIT_E15difference_typeES3_S3_St26random_access_iterator_tag
FNDA:20,_ZSt10__distanceIPKcENSt15iterator_traitsIT_E15difference_typeES3_S3_St26random_access_iterator_tag
FN:138,_ZSt8distanceIPcENSt15iterator_traitsIT_E15difference_typeES2_S2_
FNDA:0,_ZSt8distanceIPcENSt15iterator_traitsIT_E15difference_typeES2_S2_
FN:138,_ZSt8distanceIPKcENSt15iterator_traitsIT_E15difference_typeES3_S3_
FNDA:20,_ZSt8distanceIPKcENSt15iterator_traitsIT_E15difference_typeES3_S3_
DA:98,0
DA:104,0
DA:98,20
DA:104,20
DA:138,0
DA:141,0
DA:142,0
DA:138,20
DA:141,20
DA:142,40
end_of_record
SF:/usr/include/boost/test/utils/basic_cstring/basic_cstring.hpp
FN:83,_ZN5boost9unit_test13basic_cstringIKcEC2IiEEPS2_T_
FNDA:0,_ZN5boost9unit_test13basic_cstringIKcEC2IiEEPS2_T_
FN:83,_ZN5boost9unit_test13basic_cstringIKcEC2ImEEPS2_T_
FNDA:324,_ZN5boost9unit_test13basic_cstringIKcEC2ImEEPS2_T_
FN:206,_ZN5boost9unit_test13basic_cstringIKcE8null_strEv
FNDA:135,_ZN5boost9unit_test13basic_cstringIKcE8null_strEv
FN:215,_ZN5boost9unit_test13basic_cstringIKcEC2Ev
FNDA:135,_ZN5boost9unit_test13basic_cstringIKcEC2Ev
FN:225,_ZN5boost9unit_test13basic_cstringIKcEC2ERKS3_
FNDA:60,_ZN5boost9unit_test13basic_cstringIKcEC2ERKS3_
FN:235,_ZN5boost9unit_test13basic_cstringIKcEC2ERKNSt7__cxx1112basic_stringIcSt11char_traitsIcESaIcEEE
FNDA:90,_ZN5boost9unit_test13basic_cstringIKcEC2ERKNSt7__cxx1112basic_stringIcSt11char_traitsIcESaIcEEE
FN:245,_ZN5boost9unit_test13basic_cstringIKcEC2EPS2_
FNDA:33,_ZN5boost9unit_test13basic_cstringIKcEC2EPS2_
FN:286,_ZNK5boost9unit_test13basic_cstringIKcE4sizeEv
FNDA:2,_ZNK5boost9unit_test13basic_cstringIKcE4sizeEv
FN:295,_ZNK5boost9unit_test13basic_cstringIKcE8is_emptyEv
FNDA:2,_ZNK5boost9unit_test13basic_cstringIKcE8is_emptyEv
FN:313,_ZN5boost9unit_test13basic_cstringIKcE5clearEv
FNDA:0,_ZN5boost9unit_test13basic_cstringIKcE5clearEv
FN:345,_ZN5boost9unit_test13basic_cstringIKcE9trim_leftEPS2_
FNDA:1,_ZN5boost9unit_test13basic_cstringIKcE9trim_leftEPS2_
FN:358,_ZN5boost9unit_test13basic_cstringIKcE9trim_leftES3_
FNDA:1,_ZN5boost9unit_test13basic_cstringIKcE9trim_leftES3_
FN:389,_ZN5boost9unit_test13basic_cstringIKcE10trim_rightEPS2_
FNDA:1,_ZN5boost9unit_test13basic_cstringIKcE10trim_rightEPS2_
FN:402,_ZN5boost9unit_test13basic_cstringIKcE10trim_rightES3_
FNDA:1,_ZN5boost9unit_test13basic_cstringIKcE10trim_rightES3_
FN:421,_ZN5boost9unit_test13basic_cstringIKcE4trimES3_
FNDA:1,_ZN5boost9unit_test13basic_cstringIKcE4trimES3_
FN:433,_ZN5boost9unit_test13basic_cstringIKcEaSERKS3_
FNDA:0,_ZN5boost9unit_test13basic_cstringIKcEaSERKS3_
FN:507,_ZN5boost9unit_test13basic_cstringIKcE5beginEv
FNDA:4,_ZN5boost9unit_test13basic_cstringIKcE5beginEv
FN:516,_ZNK5boost9unit_test13basic_cstringIKcE5beginEv
FNDA:0,_ZNK5boost9unit_test13basic_cstringIKcE5beginEv
FN:525,_ZN5boost9unit_test13basic_cstringIKcE3endEv
FNDA:2,_ZN5boost9unit_test13basic_cstringIKcE3endEv
FN:534,_ZNK5boost9unit_test13basic_cstringIKcE3endEv
FNDA:0,_ZNK5boost9unit_test13basic_cstringIKcE3endEv
FN:600,_ZN5boost9unit_test13basic_cstringIKcE15default_trim_exEv
FNDA:0,_ZN5boost9unit_test13basic_cstringIKcE15default_trim_exEv
DA:83,0
DA:83,324
DA:206,135
DA:208,135
DA:215,135
DA:216,135
DA:217,135
DA:219,135
DA:225,60
DA:226,60
DA:227,60
DA:229,60
DA:235,90
DA:236,90
DA:237,90
DA:239,90
DA:245,33
DA:246,33
DA:247,33
DA:249,33
DA:286,2
DA:288,2
DA:295,2
DA:297,2
DA:313,0
DA:315,0
DA:316,0
DA:345,1
DA:347,1
DA:348,1
DA:349,0
DA:351,1
DA:358,1
DA:360,1
DA:361,0
DA:364,1
DA:365,1
DA:366,1
DA:369,1
DA:389,1
DA:391,1
DA:392,1
DA:393,0
DA:395,1
DA:402,1
DA:404,1
DA:405,0
DA:409,1
DA:410,1
DA:411,1
DA:414,1
DA:421,1
DA:423,1
DA:424,1
DA:426,1
DA:433,0
DA:435,0
DA:436,0
DA:438,0
DA:507,4
DA:509,4
DA:516,0
DA:518,0
DA:525,2
DA:527,2
DA:534,0
DA:536,0
DA:600,0
DA:604,0
end_of_record
SF:/usr/include/c++/11/bits/char_traits.h
FN:106,_ZN9__gnu_cxx11char_traitsIcE2eqERKcS3_
FNDA:0,_ZN9__gnu_cxx11char_traitsIcE2eqERKcS3_
FN:167,_ZN9__gnu_cxx11char_traitsIcE6lengthEPKc
FNDA:0,_ZN9__gnu_cxx11char_traitsIcE6lengthEPKc
FN:364,_ZNSt11char_traitsIcE2ltERKcS2_
FNDA:0,_ZNSt11char_traitsIcE2ltERKcS2_
FN:372,_ZNSt11char_traitsIcE7compareEPKcS2_m
FNDA:144,_ZNSt11char_traitsIcE7compareEPKcS2_m
FN:393,_ZNSt11char_traitsIcE6lengthEPKc
FNDA:20,_ZNSt11char_traitsIcE6lengthEPKc
FN:429,_ZNSt11char_traitsIcE4copyEPcPKcm
FNDA:0,_ZNSt11char_traitsIcE4copyEPcPKcm
DA:106,0
DA:107,0
DA:167,0
DA:170,0
DA:171,0
DA:172,0
DA:173,0
DA:290,20
DA:364,0
DA:367,0
DA:368,0
DA:372,144
DA:374,144
DA:375,0
DA:377,144
DA:379,144
DA:381,0
DA:382,0
DA:383,0
DA:384,0
DA:385,0
DA:386,0
DA:389,144
DA:393,20
DA:396,20
DA:397,0
DA:399,20
DA:429,0
DA:431,0
DA:432,0
DA:437,0
end_of_record
SF:/usr/include/c++/11/bits/random.h
FN:136,_ZNSt8__detail4_ModImLm624ELm1ELm0ELb1ELb1EE6__calcEm
FNDA:623,_ZNSt8__detail4_ModImLm624ELm1ELm0ELb1ELb1EE6__calcEm
FN:136,_ZNSt8__detail4_ModImLm4294967296ELm1ELm0ELb1ELb1EE6__calcEm
FNDA:624,_ZNSt8__detail4_ModImLm4294967296ELm1ELm0ELb1ELb1EE6__calcEm
FN:147,_ZNSt8__detail5__modImLm624ELm1ELm0EEET_S1_
FNDA:623,_ZNSt8__detail5__modImLm624ELm1ELm0EEET_S1_
FN:147,_ZNSt8__detail5__modImLm4294967296ELm1ELm0EEET_S1_
FNDA:624,_ZNSt8__detail5__modImLm4294967296ELm1ELm0EEET_S1_
FN:530,_ZNSt23mersenne_twister_engineImLm32ELm624ELm397ELm31ELm2567483615ELm11ELm4294967295ELm7ELm2636928640ELm15ELm4022730752ELm18ELm1812433253EEC2Em
FNDA:1,_ZNSt23mersenne_twister_engineImLm32ELm624ELm397ELm31ELm2567483615ELm11ELm4294967295ELm7ELm2636928640ELm15ELm4022730752ELm18ELm1812433253EEC2Em
FN:1618,_ZNSt13random_deviceC2Ev
FNDA:1,_ZNSt13random_deviceC2Ev
FN:1624,_ZNSt13random_deviceD2Ev
FNDA:1,_ZNSt13random_deviceD2Ev
FN:1647,_ZNSt13random_deviceclEv
FNDA:1,_ZNSt13random_deviceclEv
DA:136,623
DA:138,623
DA:140,623
DA:141,623
DA:136,624
DA:138,624
DA:140,624
DA:141,624
DA:147,623
DA:154,623
DA:155,623
DA:147,624
DA:154,624
DA:155,624
DA:530,1
DA:531,1
DA:1618,1
DA:1624,1
DA:1625,1
DA:1647,1
DA:1648,1
end_of_record
SF:/usr/include/c++/11/bits/vector.tcc
FN:426,_ZNSt6vectorINSt7__cxx1112basic_stringIcSt11char_traitsIcESaIcEEESaIS5_EE17_M_realloc_insertIJRKS5_EEEvN9__gnu_cxx17__normal_iteratorIPS5_S7_EEDpOT_
FNDA:4,_ZNSt6vectorINSt7__cxx1112basic_stringIcSt11char_traitsIcESaIcEEESaIS5_EE17_M_realloc_insertIJRKS5_EEEvN9__gnu_cxx17__normal_iteratorIPS5_S7_EEDpOT_
DA:426,4
DA:436,4
DA:437,4
DA:438,4
DA:439,4
DA:440,4
DA:441,4
DA:449,4
DA:450,4
DA:456,4
DA:461,4
DA:462,4
DA:464,4
DA:466,4
DA:467,4
DA:485,0
DA:487,0
DA:488,0
DA:489,0
DA:491,0
DA:492,0
DA:493,0
DA:500,4
DA:501,4
DA:502,4
DA:503,4
DA:504,4
DA:505,4
end_of_record
SF:/usr/include/boost/test/utils/basic_cstring/io.hpp
FN:51,_ZN5boost9unit_testlsIcSt11char_traitsIcEKcEERSt13basic_ostreamIT_T0_ES9_RKNS0_13basic_cstringIT1_EE
FNDA:0,_ZN5boost9unit_testlsIcSt11char_traitsIcEKcEERSt13basic_ostreamIT_T0_ES9_RKNS0_13basic_cstringIT1_EE
DA:51,0
DA:53,0
DA:54,0
DA:55,0
DA:57,0
end_of_record
SF:/usr/include/c++/11/bits/alloc_traits.h
FN:463,_ZNSt16allocator_traitsISaINSt7__cxx1112basic_stringIcSt11char_traitsIcESaIcEEEEE8allocateERS6_m
FNDA:4,_ZNSt16allocator_traitsISaINSt7__cxx1112basic_stringIcSt11char_traitsIcESaIcEEEEE8allocateERS6_m
FN:495,_ZNSt16allocator_traitsISaINSt7__cxx1112basic_stringIcSt11char_traitsIcESaIcEEEEE10deallocateERS6_PS5_m
FNDA:4,_ZNSt16allocator_traitsISaINSt7__cxx1112basic_stringIcSt11char_traitsIcESaIcEEEEE10deallocateERS6_PS5_m
FN:511,_ZNSt16allocator_traitsISaINSt7__cxx1112basic_stringIcSt11char_traitsIcESaIcEEEEE9constructIS5_JS5_EEEvRS6_PT_DpOT0_
FNDA:7,_ZNSt16allocator_traitsISaINSt7__cxx1112basic_stringIcSt11char_traitsIcESaIcEEEEE9constructIS5_JS5_EEEvRS6_PT_DpOT0_
FN:511,_ZNSt16allocator_traitsISaINSt7__cxx1112basic_stringIcSt11char_traitsIcESaIcEEEEE9constructIS5_JRKS5_EEEvRS6_PT_DpOT0_
FNDA:5,_ZNSt16allocator_traitsISaINSt7__cxx1112basic_stringIcSt11char_traitsIcESaIcEEEEE9constructIS5_JRKS5_EEEvRS6_PT_DpOT0_
FN:531,_ZNSt16allocator_traitsISaINSt7__cxx1112basic_stringIcSt11char_traitsIcESaIcEEEEE7destroyIS5_EEvRS6_PT_
FNDA:7,_ZNSt16allocator_traitsISaINSt7__cxx1112basic_stringIcSt11char_traitsIcESaIcEEEEE7destroyIS5_EEvRS6_PT_
FN:547,_ZNSt16allocator_traitsISaINSt7__cxx1112basic_stringIcSt11char_traitsIcESaIcEEEEE8max_sizeERKS6_
FNDA:8,_ZNSt16allocator_traitsISaINSt7__cxx1112basic_stringIcSt11char_traitsIcESaIcEEEEE8max_sizeERKS6_
FN:562,_ZNSt16allocator_traitsISaIcEE37select_on_container_copy_constructionERKS0_
FNDA:0,_ZNSt16allocator_traitsISaIcEE37select_on_container_copy_constructionERKS0_
FN:845,_ZSt8_DestroyIPNSt7__cxx1112basic_stringIcSt11char_traitsIcESaIcEEES5_EvT_S7_RSaIT0_E
FNDA:1,_ZSt8_DestroyIPNSt7__cxx1112basic_stringIcSt11char_traitsIcESaIcEEES5_EvT_S7_RSaIT0_E
DA:463,4
DA:464,4
DA:495,4
DA:496,4
DA:511,7
DA:516,7
DA:520,7
DA:511,5
DA:516,5
DA:520,5
DA:531,7
DA:535,7
DA:539,7
DA:547,8
DA:550,8
DA:562,0
DA:563,0
DA:845,1
DA:848,1
DA:849,1
end_of_record
SF:/usr/include/c++/11/bits/stl_iterator.h
FN:1027,_ZN9__gnu_cxx17__normal_iteratorIPNSt7__cxx1112basic_stringIcSt11char_traitsIcESaIcEEESt6vectorIS6_SaIS6_EEEC2ERKS7_
FNDA:10,_ZN9__gnu_cxx17__normal_iteratorIPNSt7__cxx1112basic_stringIcSt11char_traitsIcESaIcEEESt6vectorIS6_SaIS6_EEEC2ERKS7_
FN:1042,_ZNK9__gnu_cxx17__normal_iteratorIPNSt7__cxx1112basic_stringIcSt11char_traitsIcESaIcEEESt6vectorIS6_SaIS6_EEEdeEv
FNDA:5,_ZNK9__gnu_cxx17__normal_iteratorIPNSt7__cxx1112basic_stringIcSt11char_traitsIcESaIcEEESt6vectorIS6_SaIS6_EEEdeEv
FN:1052,_ZN9__gnu_cxx17__normal_iteratorIPNSt7__cxx1112basic_stringIcSt11char_traitsIcESaIcEEESt6vectorIS6_SaIS6_EEEppEv
FNDA:5,_ZN9__gnu_cxx17__normal_iteratorIPNSt7__cxx1112basic_stringIcSt11char_traitsIcESaIcEEESt6vectorIS6_SaIS6_EEEppEv
FN:1105,_ZNK9__gnu_cxx17__normal_iteratorIPNSt7__cxx1112basic_stringIcSt11char_traitsIcESaIcEEESt6vectorIS6_SaIS6_EEE4baseEv
FNDA:28,_ZNK9__gnu_cxx17__normal_iteratorIPNSt7__cxx1112basic_stringIcSt11char_traitsIcESaIcEEESt6vectorIS6_SaIS6_EEE4baseEv
FN:1179,_ZN9__gnu_cxxneIPNSt7__cxx1112basic_stringIcSt11char_traitsIcESaIcEEESt6vectorIS6_SaIS6_EEEEbRKNS_17__normal_iteratorIT_T0_EESG_
FNDA:6,_ZN9__gnu_cxxneIPNSt7__cxx1112basic_stringIcSt11char_traitsIcESaIcEEESt6vectorIS6_SaIS6_EEEEbRKNS_17__normal_iteratorIT_T0_EESG_
FN:1268,_ZN9__gnu_cxxmiIPNSt7__cxx1112basic_stringIcSt11char_traitsIcESaIcEEESt6vectorIS6_SaIS6_EEEENS_17__normal_iteratorIT_T0_E15difference_typeERKSE_SH_
FNDA:4,_ZN9__gnu_cxxmiIPNSt7__cxx1112basic_stringIcSt11char_traitsIcESaIcEEESt6vectorIS6_SaIS6_EEEENS_17__normal_iteratorIT_T0_E15difference_typeERKSE_SH_
DA:1027,10
DA:1028,10
DA:1042,5
DA:1043,5
DA:1052,5
DA:1054,5
DA:1055,5
DA:1105,28
DA:1106,28
DA:1179,6
DA:1182,6
DA:1268,4
DA:1271,4
end_of_record
SF:/usr/include/c++/11/typeinfo
FN:120,_ZNKSt9type_infoeqERKS_
FNDA:0,_ZNKSt9type_infoeqERKS_
DA:120,0
DA:122,0
DA:123,0
DA:124,0
end_of_record
SF:/usr/include/boost/test/tools/detail/fwd.hpp
FN:45,_ZN5boost10test_tools9tt_detail10dummy_condEv
FNDA:172,_ZN5boost10test_tools9tt_detail10dummy_condEv
DA:45,172
end_of_record
SF:/usr/include/c++/11/bits/basic_string.h
FN:251,_ZNSt7__cxx1112basic_stringIcSt11char_traitsIcESaIcEE16_M_construct_auxIPcEEvT_S7_St12__false_type
FNDA:0,_ZNSt7__cxx1112basic_stringIcSt11char_traitsIcESaIcEE16_M_construct_auxIPcEEvT_S7_St12__false_type
FN:251,_ZNSt7__cxx1112basic_stringIcSt11char_traitsIcESaIcEE16_M_construct_auxIPKcEEvT_S8_St12__false_type
FNDA:0,_ZNSt7__cxx1112basic_stringIcSt11char_traitsIcESaIcEE16_M_construct_auxIPKcEEvT_S8_St12__false_type
FN:271,_ZNSt7__cxx1112basic_stringIcSt11char_traitsIcESaIcEE12_M_constructIPcEEvT_S7_
FNDA:0,_ZNSt7__cxx1112basic_stringIcSt11char_traitsIcESaIcEE12_M_constructIPcEEvT_S7_
FN:271,_ZNSt7__cxx1112basic_stringIcSt11char_traitsIcESaIcEE12_M_constructIPKcEEvT_S8_
FNDA:0,_ZNSt7__cxx1112basic_stringIcSt11char_traitsIcESaIcEE12_M_constructIPKcEEvT_S8_
FN:533,_ZNSt7__cxx1112basic_stringIcSt11char_traitsIcESaIcEEC2IS3_EEPKcRKS3_
FNDA:20,_ZNSt7__cxx1112basic_stringIcSt11char_traitsIcESaIcEEC2IS3_EEPKcRKS3_
FN:6234,_ZSteqIcEN9__gnu_cxx11__enable_ifIXsrSt9__is_charIT_E7__valueEbE6__typeERKNSt7__cxx1112basic_stringIS3_St11char_traitsIS3_ESaIS3_EEESE_
FNDA:164,_ZSteqIcEN9__gnu_cxx11__enable_ifIXsrSt9__is_charIT_E7__valueEbE6__typeERKNSt7__cxx1112basic_stringIS3_St11char_traitsIS3_ESaIS3_EEESE_
DA:251,0
DA:255,0
DA:256,0
DA:251,0
DA:255,0
DA:256,0
DA:271,0
DA:274,0
DA:275,0
DA:271,0
DA:274,0
DA:275,0
DA:533,20
DA:534,20
DA:536,20
DA:539,20
DA:540,20
DA:6234,164
DA:6236,164
DA:6237,164
DA:6238,164
end_of_record
SF:/usr/include/c++/11/iostream
end_of_record
SF:/usr/include/c++/11/bits/allocator.h
FN:156,_ZNSaINSt7__cxx1112basic_stringIcSt11char_traitsIcESaIcEEEEC2Ev
FNDA:1,_ZNSaINSt7__cxx1112basic_stringIcSt11char_traitsIcESaIcEEEEC2Ev
FN:174,_ZNSaINSt7__cxx1112basic_stringIcSt11char_traitsIcESaIcEEEED2Ev
FNDA:1,_ZNSaINSt7__cxx1112basic_stringIcSt11char_traitsIcESaIcEEEED2Ev
DA:156,1
DA:174,1
end_of_record
SF:/usr/include/boost/test/utils/class_properties.hpp
FN:54,_ZN5boost9unit_test14class_propertyIbEC2Eb
FNDA:104,_ZN5boost9unit_test14class_propertyIbEC2Eb
FN:131,_ZN5boost9unit_test17readonly_propertyIbEC2Eb
FNDA:104,_ZN5boost9unit_test17readonly_propertyIbEC2Eb
DA:54,104
DA:55,104
DA:131,104
end_of_record
SF:/usr/include/boost/test/tools/assertion_result.hpp
FN:52,_ZN5boost10test_tools16assertion_resultC2Eb
FNDA:104,_ZN5boost10test_tools16assertion_resultC2Eb
FN:65,_ZN5boost10test_tools16assertion_result19readonly_property65C2Eb
FNDA:104,_ZN5boost10test_tools16assertion_result19readonly_property65C2Eb
DA:52,104
DA:53,104
DA:54,104
DA:65,104
end_of_record
SF:/usr/include/boost/test/utils/wrap_stringstream.hpp
FN:64,_ZN5boostlsIcA25_cEERNS_23basic_wrap_stringstreamIT_EES5_RKT0_
FNDA:5,_ZN5boostlsIcA25_cEERNS_23basic_wrap_stringstreamIT_EES5_RKT0_
FN:64,_ZN5boostlsIcA22_cEERNS_23basic_wrap_stringstreamIT_EES5_RKT0_
FNDA:10,_ZN5boostlsIcA22_cEERNS_23basic_wrap_stringstreamIT_EES5_RKT0_
FN:64,_ZN5boostlsIcA21_cEERNS_23basic_wrap_stringstreamIT_EES5_RKT0_
FNDA:5,_ZN5boostlsIcA21_cEERNS_23basic_wrap_stringstreamIT_EES5_RKT0_
FN:64,_ZN5boostlsIcA18_cEERNS_23basic_wrap_stringstreamIT_EES5_RKT0_
FNDA:10,_ZN5boostlsIcA18_cEERNS_23basic_wrap_stringstreamIT_EES5_RKT0_
FN:64,_ZN5boostlsIcA14_cEERNS_23basic_wrap_stringstreamIT_EES5_RKT0_
FNDA:15,_ZN5boostlsIcA14_cEERNS_23basic_wrap_stringstreamIT_EES5_RKT0_
FN:64,_ZN5boostlsIcA19_cEERNS_23basic_wrap_stringstreamIT_EES5_RKT0_
FNDA:35,_ZN5boostlsIcA19_cEERNS_23basic_wrap_stringstreamIT_EES5_RKT0_
FN:64,_ZN5boostlsIcA13_cEERNS_23basic_wrap_stringstreamIT_EES5_RKT0_
FNDA:15,_ZN5boostlsIcA13_cEERNS_23basic_wrap_stringstreamIT_EES5_RKT0_
FN:64,_ZN5boostlsIcA16_cEERNS_23basic_wrap_stringstreamIT_EES5_RKT0_
FNDA:15,_ZN5boostlsIcA16_cEERNS_23basic_wrap_stringstreamIT_EES5_RKT0_
FN:64,_ZN5boostlsIcA15_cEERNS_23basic_wrap_stringstreamIT_EES5_RKT0_
FNDA:35,_ZN5boostlsIcA15_cEERNS_23basic_wrap_stringstreamIT_EES5_RKT0_
FN:64,_ZN5boostlsIcA26_cEERNS_23basic_wrap_stringstreamIT_EES5_RKT0_
FNDA:5,_ZN5boostlsIcA26_cEERNS_23basic_wrap_stringstreamIT_EES5_RKT0_
FN:64,_ZN5boostlsIccEERNS_23basic_wrap_stringstreamIT_EES4_RKT0_
FNDA:75,_ZN5boostlsIccEERNS_23basic_wrap_stringstreamIT_EES4_RKT0_
FN:74,_ZN5boost23basic_wrap_stringstreamIcE6streamB5cxx11Ev
FNDA:225,_ZN5boost23basic_wrap_stringstreamIcE6streamB5cxx11Ev
FN:83,_ZN5boost23basic_wrap_stringstreamIcE3refEv
FNDA:75,_ZN5boost23basic_wrap_stringstreamIcE3refEv
FN:92,_ZN5boost23basic_wrap_stringstreamIcE3strB5cxx11Ev
FNDA:75,_ZN5boost23basic_wrap_stringstreamIcE3strB5cxx11Ev
DA:64,5
DA:66,5
DA:67,5
DA:64,10
DA:66,10
DA:67,10
DA:64,5
DA:66,5
DA:67,5
DA:64,10
DA:66,10
DA:67,10
DA:64,15
DA:66,15
DA:67,15
DA:64,35
DA:66,35
DA:67,35
DA:64,15
DA:66,15
DA:67,15
DA:64,15
DA:66,15
DA:67,15
DA:64,35
DA:66,35
DA:67,35
DA:64,5
DA:66,5
DA:67,5
DA:64,75
DA:66,75
DA:67,75
DA:74,225
DA:76,225
DA:83,75
DA:85,75
DA:92,75
DA:99,75
DA:102,75
end_of_record
SF:/usr/include/boost/test/tree/test_unit.hpp
FN:263,_ZN5boost9unit_test14make_test_caseERKNS_8functionIFvvEEENS0_13basic_cstringIKcEES8_m
FNDA:15,_ZN5boost9unit_test14make_test_caseERKNS_8functionIFvvEEENS0_13basic_cstringIKcEES8_m
DA:263,15
DA:265,15
end_of_record
SF:/usr/include/c++/11/bits/stl_algobase.h
FN:230,_ZSt3minImERKT_S2_S2_
FNDA:8,_ZSt3minImERKT_S2_S2_
FN:254,_ZSt3maxImERKT_S2_S2_
FNDA:4,_ZSt3maxImERKT_S2_S2_
FN:313,_ZSt12__niter_baseIPNSt7__cxx1112basic_stringIcSt11char_traitsIcESaIcEEEET_S7_
FNDA:24,_ZSt12__niter_baseIPNSt7__cxx1112basic_stringIcSt11char_traitsIcESaIcEEEET_S7_
DA:230,8
DA:235,8
DA:236,0
DA:237,8
DA:254,4
DA:259,4
DA:260,1
DA:261,3
DA:313,24
DA:315,24
end_of_record
SF:/usr/include/c++/11/bits/stl_vector.h
FN:97,_ZNSt12_Vector_baseINSt7__cxx1112basic_stringIcSt11char_traitsIcESaIcEEESaIS5_EE17_Vector_impl_dataC2Ev
FNDA:1,_ZNSt12_Vector_baseINSt7__cxx1112basic_stringIcSt11char_traitsIcESaIcEEESaIS5_EE17_Vector_impl_dataC2Ev
FN:131,_ZNSt12_Vector_baseINSt7__cxx1112basic_stringIcSt11char_traitsIcESaIcEEESaIS5_EE12_Vector_implC2Ev
FNDA:1,_ZNSt12_Vector_baseINSt7__cxx1112basic_stringIcSt11char_traitsIcESaIcEEESaIS5_EE12_Vector_implC2Ev
FN:276,_ZNSt12_Vector_baseINSt7__cxx1112basic_stringIcSt11char_traitsIcESaIcEEESaIS5_EE19_M_get_Tp_allocatorEv
FNDA:9,_ZNSt12_Vector_baseINSt7__cxx1112basic_stringIcSt11char_traitsIcESaIcEEESaIS5_EE19_M_get_Tp_allocatorEv
FN:280,_ZNKSt12_Vector_baseINSt7__cxx1112basic_stringIcSt11char_traitsIcESaIcEEESaIS5_EE19_M_get_Tp_allocatorEv
FNDA:8,_ZNKSt12_Vector_baseINSt7__cxx1112basic_stringIcSt11char_traitsIcESaIcEEESaIS5_EE19_M_get_Tp_allocatorEv
FN:288,_ZNSt12_Vector_baseINSt7__cxx1112basic_stringIcSt11char_traitsIcESaIcEEESaIS5_EEC2Ev
FNDA:1,_ZNSt12_Vector_baseINSt7__cxx1112basic_stringIcSt11char_traitsIcESaIcEEESaIS5_EEC2Ev
FN:333,_ZNSt12_Vector_baseINSt7__cxx1112basic_stringIcSt11char_traitsIcESaIcEEESaIS5_EED2Ev
FNDA:1,_ZNSt12_Vector_baseINSt7__cxx1112basic_stringIcSt11char_traitsIcESaIcEEESaIS5_EED2Ev
FN:343,_ZNSt12_Vector_baseINSt7__cxx1112basic_stringIcSt11char_traitsIcESaIcEEESaIS5_EE11_M_allocateEm
FNDA:4,_ZNSt12_Vector_baseINSt7__cxx1112basic_stringIcSt11char_traitsIcESaIcEEESaIS5_EE11_M_allocateEm
FN:350,_ZNSt12_Vector_baseINSt7__cxx1112basic_stringIcSt11char_traitsIcESaIcEEESaIS5_EE13_M_deallocateEPS5_m
FNDA:5,_ZNSt12_Vector_baseINSt7__cxx1112basic_stringIcSt11char_traitsIcESaIcEEESaIS5_EE13_M_deallocateEPS5_m
FN:453,_ZNSt6vectorINSt7__cxx1112basic_stringIcSt11char_traitsIcESaIcEEESaIS5_EE14_S_do_relocateEPS5_S8_S8_RS6_St17integral_constantIbLb1EE
FNDA:8,_ZNSt6vectorINSt7__cxx1112basic_stringIcSt11char_traitsIcESaIcEEESaIS5_EE14_S_do_relocateEPS5_S8_S8_RS6_St17integral_constantIbLb1EE
FN:465,_ZNSt6vectorINSt7__cxx1112basic_stringIcSt11char_traitsIcESaIcEEESaIS5_EE11_S_relocateEPS5_S8_S8_RS6_
FNDA:8,_ZNSt6vectorINSt7__cxx1112basic_stringIcSt11char_traitsIcESaIcEEESaIS5_EE11_S_relocateEPS5_S8_S8_RS6_
FN:487,_ZNSt6vectorINSt7__cxx1112basic_stringIcSt11char_traitsIcESaIcEEESaIS5_EEC2Ev
FNDA:1,_ZNSt6vectorINSt7__cxx1112basic_stringIcSt11char_traitsIcESaIcEEESaIS5_EEC2Ev
FN:678,_ZNSt6vectorINSt7__cxx1112basic_stringIcSt11char_traitsIcESaIcEEESaIS5_EED2Ev
FNDA:1,_ZNSt6vectorINSt7__cxx1112basic_stringIcSt11char_traitsIcESaIcEEESaIS5_EED2Ev
FN:811,_ZNSt6vectorINSt7__cxx1112basic_stringIcSt11char_traitsIcESaIcEEESaIS5_EE5beginEv
FNDA:5,_ZNSt6vectorINSt7__cxx1112basic_stringIcSt11char_traitsIcESaIcEEESaIS5_EE5beginEv
FN:829,_ZNSt6vectorINSt7__cxx1112basic_stringIcSt11char_traitsIcESaIcEEESaIS5_EE3endEv
FNDA:5,_ZNSt6vectorINSt7__cxx1112basic_stringIcSt11char_traitsIcESaIcEEESaIS5_EE3endEv
FN:918,_ZNKSt6vectorINSt7__cxx1112basic_stringIcSt11char_traitsIcESaIcEEESaIS5_EE4sizeEv
FNDA:16,_ZNKSt6vectorINSt7__cxx1112basic_stringIcSt11char_traitsIcESaIcEEESaIS5_EE4sizeEv
FN:923,_ZNKSt6vectorINSt7__cxx1112basic_stringIcSt11char_traitsIcESaIcEEESaIS5_EE8max_sizeEv
FNDA:8,_ZNKSt6vectorINSt7__cxx1112basic_stringIcSt11char_traitsIcESaIcEEESaIS5_EE8max_sizeEv
FN:1187,_ZNSt6vectorINSt7__cxx1112basic_stringIcSt11char_traitsIcESaIcEEESaIS5_EE9push_backERKS5_
FNDA:5,_ZNSt6vectorINSt7__cxx1112basic_stringIcSt11char_traitsIcESaIcEEESaIS5_EE9push_backERKS5_
FN:1756,_ZNKSt6vectorINSt7__cxx1112basic_stringIcSt11char_traitsIcESaIcEEESaIS5_EE12_M_check_lenEmPKc
FNDA:4,_ZNKSt6vectorINSt7__cxx1112basic_stringIcSt11char_traitsIcESaIcEEESaIS5_EE12_M_check_lenEmPKc
FN:1776,_ZNSt6vectorINSt7__cxx1112basic_stringIcSt11char_traitsIcESaIcEEESaIS5_EE11_S_max_sizeERKS6_
FNDA:8,_ZNSt6vectorINSt7__cxx1112basic_stringIcSt11char_traitsIcESaIcEEESaIS5_EE11_S_max_sizeERKS6_
DA:97,1
DA:98,1
DA:99,1
DA:131,1
DA:133,1
DA:134,1
DA:276,9
DA:277,9
DA:280,8
DA:281,8
DA:288,1
DA:333,1
DA:335,1
DA:336,1
DA:337,1
DA:343,4
DA:346,4
DA:350,5
DA:353,5
DA:354,4
DA:355,5
DA:453,8
DA:456,8
DA:465,8
DA:469,8
DA:487,1
DA:678,1
DA:680,1
DA:681,1
DA:683,1
DA:811,5
DA:812,5
DA:829,5
DA:830,5
DA:918,16
DA:919,16
DA:923,8
DA:924,8
DA:1187,5
DA:1189,5
DA:1192,1
DA:1194,1
DA:1198,4
DA:1199,5
DA:1756,4
DA:1758,4
DA:1759,0
DA:1761,4
DA:1762,4
DA:1776,8
DA:1781,8
DA:1783,8
DA:1784,8
end_of_record
SF:/usr/include/c++/11/bits/stl_construct.h
FN:146,_ZSt8_DestroyINSt7__cxx1112basic_stringIcSt11char_traitsIcESaIcEEEEvPT_
FNDA:5,_ZSt8_DestroyINSt7__cxx1112basic_stringIcSt11char_traitsIcESaIcEEEEvPT_
FN:160,_ZNSt12_Destroy_auxILb0EE9__destroyIPNSt7__cxx1112basic_stringIcSt11char_traitsIcESaIcEEEEEvT_S9_
FNDA:1,_ZNSt12_Destroy_auxILb0EE9__destroyIPNSt7__cxx1112basic_stringIcSt11char_traitsIcESaIcEEEEEvT_S9_
FN:182,_ZSt8_DestroyIPNSt7__cxx1112basic_stringIcSt11char_traitsIcESaIcEEEEvT_S7_
FNDA:1,_ZSt8_DestroyIPNSt7__cxx1112basic_stringIcSt11char_traitsIcESaIcEEEEvT_S7_
DA:146,5
DA:151,5
DA:153,5
DA:160,1
DA:162,6
DA:163,5
DA:164,1
DA:182,1
DA:196,1
DA:197,1
end_of_record
SF:/home/danilglock-18/laba3/zad2/cpp/onelist/onelisttest.cpp
FN:10,_Z20generateRandomStringB5cxx11m
FNDA:54,_Z20generateRandomStringB5cxx11m
FN:29,_ZN12OneListTestsL33TestConstructorDestructor_invokerEv
FNDA:1,_ZN12OneListTestsL33TestConstructorDestructor_invokerEv
FN:29,_ZN12OneListTests25TestConstructorDestructor11test_methodEv
FNDA:1,_ZN12OneListTests25TestConstructorDestructor11test_methodEv
FN:38,_ZN12OneListTestsL21TestAddToHead_invokerEv
FNDA:1,_ZN12OneListTestsL21TestAddToHead_invokerEv
FN:38,_ZN12OneListTests13TestAddToHead11test_methodEv
FNDA:1,_ZN12OneListTests13TestAddToHead11test_methodEv
FN:50,_ZN12OneListTestsL21TestAddToTail_invokerEv
FNDA:1,_ZN12OneListTestsL21TestAddToTail_invokerEv
FN:50,_ZN12OneListTests13TestAddToTail11test_methodEv
FNDA:1,_ZN12OneListTests13TestAddToTail11test_methodEv
FN:65,_ZN12OneListTestsL25TestAddAfterValue_invokerEv
FNDA:1,_ZN12OneListTestsL25TestAddAfterValue_invokerEv
FN:65,_ZN12OneListTests17TestAddAfterValue11test_methodEv
FNDA:1,_ZN12OneListTests17TestAddAfterValue11test_methodEv
FN:87,_ZN12OneListTestsL26TestAddBeforeValue_invokerEv
FNDA:1,_ZN12OneListTestsL26TestAddBeforeValue_invokerEv
FN:87,_ZN12OneListTests18TestAddBeforeValue11test_methodEv
FNDA:1,_ZN12OneListTests18TestAddBeforeValue11test_methodEv
FN:109,_ZN12OneListTestsL26TestRemoveFromHead_invokerEv
FNDA:1,_ZN12OneListTestsL26TestRemoveFromHead_invokerEv
FN:109,_ZN12OneListTests18TestRemoveFromHead11test_methodEv
FNDA:1,_ZN12OneListTests18TestRemoveFromHead11test_methodEv
FN:134,_ZN12OneListTestsL26TestRemoveFromTail_invokerEv
FNDA:1,_ZN12OneListTestsL26TestRemoveFromTail_invokerEv
FN:134,_ZN12OneListTests18TestRemoveFromTail11test_methodEv
FNDA:1,_ZN12OneListTests18TestRemoveFromTail11test_methodEv
FN:159,_ZN12OneListTestsL28TestRemoveAfterValue_invokerEv
FNDA:1,_ZN12OneListTestsL28TestRemoveAfterValue_invokerEv
FN:159,_ZN12OneListTests20TestRemoveAfterValue11test_methodEv
FNDA:1,_ZN12OneListTests20TestRemoveAfterValue11test_methodEv
FN:187,_ZN12OneListTestsL29TestRemoveBeforeValue_invokerEv
FNDA:1,_ZN12OneListTestsL29TestRemoveBeforeValue_invokerEv
FN:187,_ZN12OneListTests21TestRemoveBeforeValue11test_methodEv
FNDA:1,_ZN12OneListTests21TestRemoveBeforeValue11test_methodEv
FN:221,_ZN12OneListTestsL25TestRemoveByValue_invokerEv
FNDA:1,_ZN12OneListTestsL25TestRemoveByValue_invokerEv
FN:221,_ZN12OneListTests17TestRemoveByValue11test_methodEv
FNDA:1,_ZN12OneListTests17TestRemoveByValue11test_methodEv
FN:252,_ZN12OneListTestsL29TestGetElementByValue_invokerEv
FNDA:1,_ZN12OneListTestsL29TestGetElementByValue_invokerEv
FN:252,_ZN12OneListTests21TestGetElementByValue11test_methodEv
FNDA:1,_ZN12OneListTests21TestGetElementByValue11test_methodEv
FN:270,_ZN12OneListTestsL21TestFindByVal_invokerEv
FNDA:1,_ZN12OneListTestsL21TestFindByVal_invokerEv
FN:270,_ZN12OneListTests13TestFindByVal11test_methodEv
FNDA:1,_ZN12OneListTests13TestFindByVal11test_methodEv
FN:288,_ZN12OneListTestsL22TestPrintEmpty_invokerEv
FNDA:1,_ZN12OneListTestsL22TestPrintEmpty_invokerEv
FN:288,_ZN12OneListTests14TestPrintEmpty11test_methodEv
FNDA:1,_ZN12OneListTests14TestPrintEmpty11test_methodEv
FN:295,_ZN12OneListTestsL26TestFileOperations_invokerEv
FNDA:1,_ZN12OneListTestsL26TestFileOperations_invokerEv
FN:295,_ZN12OneListTests18TestFileOperations11test_methodEv
FNDA:1,_ZN12OneListTests18TestFileOperations11test_methodEv
FN:320,_ZN12OneListTests24TestBinaryFileOperations11test_methodEv
FNDA:1,_ZN12OneListTests24TestBinaryFileOperations11test_methodEv
FN:320,_ZN12OneListTestsL32TestBinaryFileOperations_invokerEv
FNDA:1,_ZN12OneListTestsL32TestBinaryFileOperations_invokerEv
DA:10,54
DA:16,54
DA:17,54
DA:19,54
DA:20,54
DA:21,594
DA:22,540
DA:24,108
DA:25,0
DA:29,1
DA:30,1
DA:31,1
DA:33,1
DA:34,1
DA:35,2
DA:36,1
DA:29,1
DA:38,1
DA:39,1
DA:40,1
DA:41,1
DA:42,1
DA:44,1
DA:45,1
DA:46,1
DA:47,1
DA:48,1
DA:38,1
DA:50,1
DA:51,1
DA:52,1
DA:53,1
DA:54,1
DA:56,1
DA:57,1
DA:58,1
DA:59,1
DA:60,1
DA:61,1
DA:62,1
DA:63,1
DA:50,1
DA:65,1
DA:66,1
DA:67,1
DA:68,1
DA:69,1
DA:70,1
DA:72,1
DA:73,1
DA:74,1
DA:76,1
DA:77,1
DA:79,1
DA:80,1
DA:81,1
DA:83,1
DA:84,5
DA:85,1
DA:65,1
DA:87,1
DA:88,1
DA:89,1
DA:90,1
DA:91,1
DA:92,1
DA:94,1
DA:95,1
DA:96,1
DA:98,1
DA:99,1
DA:101,1
DA:102,1
DA:103,1
DA:105,1
DA:106,5
DA:107,1
DA:87,1
DA:109,1
DA:110,1
DA:111,2
DA:113,1
DA:114,1
DA:115,1
DA:117,1
DA:118,1
DA:119,1
DA:121,1
DA:122,2
DA:123,1
DA:125,1
DA:126,2
DA:127,1
DA:129,1
DA:130,2
DA:131,2
DA:132,1
DA:109,1
DA:134,1
DA:135,1
DA:136,2
DA:138,1
DA:139,1
DA:140,1
DA:142,1
DA:143,1
DA:144,1
DA:146,1
DA:147,2
DA:148,1
DA:150,1
DA:151,2
DA:152,1
DA:154,1
DA:155,2
DA:156,2
DA:157,1
DA:134,1
DA:159,1
DA:160,1
DA:161,4
DA:163,1
DA:164,1
DA:165,1
DA:167,1
DA:168,1
DA:169,1
DA:171,1
DA:172,2
DA:173,1
DA:175,2
DA:176,4
DA:178,1
DA:179,1
DA:180,1
DA:181,1
DA:183,1
DA:184,2
DA:185,1
DA:159,1
DA:187,1
DA:188,1
DA:189,4
DA:191,1
DA:192,1
DA:193,1
DA:194,1
DA:195,1
DA:197,1
DA:198,1
DA:199,1
DA:200,1
DA:201,1
DA:203,2
DA:205,1
DA:206,2
DA:207,1
DA:209,1
DA:210,2
DA:211,1
DA:213,1
DA:214,2
DA:215,1
DA:216,1
DA:218,4
DA:219,1
DA:187,1
DA:221,1
DA:222,1
DA:223,4
DA:225,1
DA:226,1
DA:227,1
DA:228,1
DA:230,1
DA:231,1
DA:232,1
DA:233,1
DA:235,1
DA:236,2
DA:237,1
DA:239,1
DA:240,2
DA:241,1
DA:243,1
DA:244,2
DA:245,1
DA:247,1
DA:248,2
DA:249,4
DA:250,1
DA:221,1
DA:252,1
DA:253,1
DA:254,4
DA:256,1
DA:257,1
DA:258,1
DA:260,1
DA:261,1
DA:262,1
DA:264,1
DA:265,1
DA:266,1
DA:267,4
DA:268,1
DA:252,1
DA:270,1
DA:271,1
DA:272,1
DA:274,1
DA:275,1
DA:276,1
DA:278,1
DA:279,1
DA:280,1
DA:282,1
DA:283,1
DA:284,1
DA:285,1
DA:286,1
DA:270,1
DA:288,1
DA:289,1
DA:290,1
DA:291,1
DA:288,1
DA:295,1
DA:296,1
DA:297,1
DA:299,6
DA:300,5
DA:301,5
DA:302,5
DA:304,1
DA:305,1
DA:306,1
DA:307,1
DA:309,1
DA:310,1
DA:311,1
DA:312,1
DA:314,1
DA:315,1
DA:317,1
DA:318,1
DA:295,1
DA:320,1
DA:321,1
DA:322,1
DA:324,1
DA:325,6
DA:326,5
DA:327,5
DA:328,5
DA:329,5
DA:331,1
DA:332,1
DA:333,1
DA:334,1
DA:336,1
DA:337,1
DA:338,1
DA:339,1
DA:341,1
DA:342,1
DA:344,6
DA:345,5
DA:348,1
DA:349,1
DA:320,1
end_of_record
SF:/usr/include/boost/smart_ptr/shared_ptr.hpp
FN:346,_ZN5boost10shared_ptrINS_23basic_wrap_stringstreamIcEEEC2Ev
FNDA:104,_ZN5boost10shared_ptrINS_23basic_wrap_stringstreamIcEEEC2Ev
DA:346,104
DA:348,104
end_of_record
SF:/usr/include/c++/11/ext/new_allocator.h
FN:79,_ZN9__gnu_cxx13new_allocatorINSt7__cxx1112basic_stringIcSt11char_traitsIcESaIcEEEEC2Ev
FNDA:1,_ZN9__gnu_cxx13new_allocatorINSt7__cxx1112basic_stringIcSt11char_traitsIcESaIcEEEEC2Ev
FN:79,_ZN9__gnu_cxx13new_allocatorIcEC2Ev
FNDA:0,_ZN9__gnu_cxx13new_allocatorIcEC2Ev
FN:82,_ZN9__gnu_cxx13new_allocatorIcEC2ERKS1_
FNDA:0,_ZN9__gnu_cxx13new_allocatorIcEC2ERKS1_
FN:89,_ZN9__gnu_cxx13new_allocatorINSt7__cxx1112basic_stringIcSt11char_traitsIcESaIcEEEED2Ev
FNDA:1,_ZN9__gnu_cxx13new_allocatorINSt7__cxx1112basic_stringIcSt11char_traitsIcESaIcEEEED2Ev
FN:89,_ZN9__gnu_cxx13new_allocatorIcED2Ev
FNDA:0,_ZN9__gnu_cxx13new_allocatorIcED2Ev
FN:103,_ZN9__gnu_cxx13new_allocatorINSt7__cxx1112basic_stringIcSt11char_traitsIcESaIcEEEE8allocateEmPKv
FNDA:4,_ZN9__gnu_cxx13new_allocatorINSt7__cxx1112basic_stringIcSt11char_traitsIcESaIcEEEE8allocateEmPKv
FN:132,_ZN9__gnu_cxx13new_allocatorINSt7__cxx1112basic_stringIcSt11char_traitsIcESaIcEEEE10deallocateEPS6_m
FNDA:4,_ZN9__gnu_cxx13new_allocatorINSt7__cxx1112basic_stringIcSt11char_traitsIcESaIcEEEE10deallocateEPS6_m
FN:154,_ZNK9__gnu_cxx13new_allocatorINSt7__cxx1112basic_stringIcSt11char_traitsIcESaIcEEEE8max_sizeEv
FNDA:8,_ZNK9__gnu_cxx13new_allocatorINSt7__cxx1112basic_stringIcSt11char_traitsIcESaIcEEEE8max_sizeEv
FN:160,_ZN9__gnu_cxx13new_allocatorINSt7__cxx1112basic_stringIcSt11char_traitsIcESaIcEEEE9constructIS6_JS6_EEEvPT_DpOT0_
FNDA:7,_ZN9__gnu_cxx13new_allocatorINSt7__cxx1112basic_stringIcSt11char_traitsIcESaIcEEEE9constructIS6_JS6_EEEvPT_DpOT0_
FN:160,_ZN9__gnu_cxx13new_allocatorINSt7__cxx1112basic_stringIcSt11char_traitsIcESaIcEEEE9constructIS6_JRKS6_EEEvPT_DpOT0_
FNDA:5,_ZN9__gnu_cxx13new_allocatorINSt7__cxx1112basic_stringIcSt11char_traitsIcESaIcEEEE9constructIS6_JRKS6_EEEvPT_DpOT0_
FN:166,_ZN9__gnu_cxx13new_allocatorINSt7__cxx1112basic_stringIcSt11char_traitsIcESaIcEEEE7destroyIS6_EEvPT_
FNDA:7,_ZN9__gnu_cxx13new_allocatorINSt7__cxx1112basic_stringIcSt11char_traitsIcESaIcEEEE7destroyIS6_EEvPT_
FN:197,_ZNK9__gnu_cxx13new_allocatorINSt7__cxx1112basic_stringIcSt11char_traitsIcESaIcEEEE11_M_max_sizeEv
FNDA:12,_ZNK9__gnu_cxx13new_allocatorINSt7__cxx1112basic_stringIcSt11char_traitsIcESaIcEEEE11_M_max_sizeEv
DA:79,1
DA:79,0
DA:82,0
DA:89,1
DA:89,0
DA:103,4
DA:111,4
DA:115,0
DA:116,0
DA:117,0
DA:127,4
DA:132,4
DA:145,4
DA:154,8
DA:155,8
DA:160,7
DA:162,7
DA:160,5
DA:162,5
DA:166,7
DA:168,7
DA:197,12
DA:200,12
end_of_record
SF:/usr/include/boost/test/utils/basic_cstring/bcs_char_traits.hpp
FN:60,_ZN5boost9unit_test9ut_detail20bcs_char_traits_implIKcE2eqEcc
FNDA:558,_ZN5boost9unit_test9ut_detail20bcs_char_traits_implIKcE2eqEcc
FN:82,_ZN5boost9unit_test9ut_detail20bcs_char_traits_implIKcE6lengthEPS3_
FNDA:33,_ZN5boost9unit_test9ut_detail20bcs_char_traits_implIKcE6lengthEPS3_
FN:93,_ZN5boost9unit_test9ut_detail20bcs_char_traits_implIKcE4findEPS3_mc
FNDA:2,_ZN5boost9unit_test9ut_detail20bcs_char_traits_implIKcE4findEPS3_mc
DA:60,558
DA:62,558
DA:82,33
DA:84,33
DA:86,33
DA:87,556
DA:88,523
DA:90,33
DA:93,2
DA:95,4
DA:96,2
DA:97,0
DA:99,2
DA:100,2
DA:102,2
end_of_record
SF:/usr/include/boost/test/unit_test_log.hpp
end_of_record
SF:/usr/include/c++/11/bits/move.h
FN:49,_ZSt11__addressofINSt7__cxx1112basic_stringIcSt11char_traitsIcESaIcEEEEPT_RS6_
FNDA:26,_ZSt11__addressofINSt7__cxx1112basic_stringIcSt11char_traitsIcESaIcEEEEPT_RS6_
FN:77,_ZSt7forwardINSt7__cxx1112basic_stringIcSt11char_traitsIcESaIcEEEEOT_RNSt16remove_referenceIS6_E4typeE
FNDA:14,_ZSt7forwardINSt7__cxx1112basic_stringIcSt11char_traitsIcESaIcEEEEOT_RNSt16remove_referenceIS6_E4typeE
FN:77,_ZSt7forwardIRKNSt7__cxx1112basic_stringIcSt11char_traitsIcESaIcEEEEOT_RNSt16remove_referenceIS8_E4typeE
FNDA:14,_ZSt7forwardIRKNSt7__cxx1112basic_stringIcSt11char_traitsIcESaIcEEEEOT_RNSt16remove_referenceIS8_E4typeE
FN:104,_ZSt4moveIRNSt7__cxx1112basic_stringIcSt11char_traitsIcESaIcEEEEONSt16remove_referenceIT_E4typeEOS8_
FNDA:69,_ZSt4moveIRNSt7__cxx1112basic_stringIcSt11char_traitsIcESaIcEEEEONSt16remove_referenceIT_E4typeEOS8_
FN:104,_ZSt4moveIRSaIcEEONSt16remove_referenceIT_E4typeEOS3_
FNDA:0,_ZSt4moveIRSaIcEEONSt16remove_referenceIT_E4typeEOS3_
DA:49,26
DA:50,26
DA:77,14
DA:78,14
DA:77,14
DA:78,14
DA:104,69
DA:105,69
DA:104,0
DA:105,0
end_of_record
SF:/usr/include/c++/11/ext/alloc_traits.h
FN:97,_ZN9__gnu_cxx14__alloc_traitsISaIcEcE17_S_select_on_copyERKS1_
FNDA:0,_ZN9__gnu_cxx14__alloc_traitsISaIcEcE17_S_select_on_copyERKS1_
DA:97,0
DA:98,0
end_of_record
SF:/usr/include/boost/test/unit_test.hpp
FN:62,main
FNDA:1,main
DA:62,1
DA:64,1
end_of_record
SF:/usr/include/boost/type_index/type_index_facade.hpp
FN:154,_ZN5boost9typeindexeqINS0_14stl_type_indexESt9type_infoEEbRKNS0_17type_index_facadeIT_T0_EES9_
FNDA:0,_ZN5boost9typeindexeqINS0_14stl_type_indexESt9type_infoEEbRKNS0_17type_index_facadeIT_T0_EES9_
FN:187,_ZN5boost9typeindexeqINS0_14stl_type_indexESt9type_infoEEbRKT0_RKNS0_17type_index_facadeIT_S4_EE
FNDA:0,_ZN5boost9typeindexeqINS0_14stl_type_indexESt9type_infoEEbRKT0_RKNS0_17type_index_facadeIT_S4_EE
DA:154,0
DA:155,0
DA:187,0
DA:188,0
end_of_record
SF:/usr/include/boost/smart_ptr/detail/shared_count.hpp
FN:127,_ZN5boost6detail12shared_countC2Ev
FNDA:104,_ZN5boost6detail12shared_countC2Ev
FN:430,_ZN5boost6detail12shared_countD2Ev
FNDA:104,_ZN5boost6detail12shared_countD2Ev
DA:127,104
DA:132,104
DA:430,104
DA:432,104
DA:436,104
end_of_record
SF:/usr/include/c++/11/ext/type_traits.h
FN:152,_ZN9__gnu_cxx17__is_null_pointerIcEEbPT_
FNDA:0,_ZN9__gnu_cxx17__is_null_pointerIcEEbPT_
FN:152,_ZN9__gnu_cxx17__is_null_pointerIKcEEbPT_
FNDA:20,_ZN9__gnu_cxx17__is_null_pointerIKcEEbPT_
DA:152,0
DA:153,0
DA:152,20
DA:153,20
end_of_record
SF:/usr/include/c++/11/bits/random.tcc
FN:323,_ZNSt23mersenne_twister_engineImLm32ELm624ELm397ELm31ELm2567483615ELm11ELm4294967295ELm7ELm2636928640ELm15ELm4022730752ELm18ELm1812433253EE4seedEm
FNDA:1,_ZNSt23mersenne_twister_engineImLm32ELm624ELm397ELm31ELm2567483615ELm11ELm4294967295ELm7ELm2636928640ELm15ELm4022730752ELm18ELm1812433253EE4seedEm
FN:394,_ZNSt23mersenne_twister_engineImLm32ELm624ELm397ELm31ELm2567483615ELm11ELm4294967295ELm7ELm2636928640ELm15ELm4022730752ELm18ELm1812433253EE11_M_gen_randEv
FNDA:1,_ZNSt23mersenne_twister_engineImLm32ELm624ELm397ELm31ELm2567483615ELm11ELm4294967295ELm7ELm2636928640ELm15ELm4022730752ELm18ELm1812433253EE11_M_gen_randEv
FN:450,_ZNSt23mersenne_twister_engineImLm32ELm624ELm397ELm31ELm2567483615ELm11ELm4294967295ELm7ELm2636928640ELm15ELm4022730752ELm18ELm1812433253EEclEv
FNDA:540,_ZNSt23mersenne_twister_engineImLm32ELm624ELm397ELm31ELm2567483615ELm11ELm4294967295ELm7ELm2636928640ELm15ELm4022730752ELm18ELm1812433253EEclEv
DA:323,1
DA:327,1
DA:328,1
DA:330,624
DA:332,623
DA:333,623
DA:334,623
DA:335,623
DA:336,623
DA:337,623
DA:339,1
DA:340,1
DA:394,1
DA:398,1
DA:399,1
DA:401,228
DA:403,227
DA:404,227
DA:405,454
DA:406,227
DA:409,397
DA:411,396
DA:412,396
DA:413,792
DA:414,396
DA:417,1
DA:418,1
DA:419,2
DA:420,1
DA:421,1
DA:422,1
DA:450,540
DA:455,540
DA:456,1
DA:459,540
DA:460,540
DA:461,540
DA:462,540
DA:463,540
DA:465,540
end_of_record
SF:/usr/include/boost/type_index/stl_type_index.hpp
FN:93,_ZN5boost9typeindex14stl_type_indexC2ERKSt9type_info
FNDA:0,_ZN5boost9typeindex14stl_type_indexC2ERKSt9type_info
FN:117,_ZNK5boost9typeindex14stl_type_index9type_infoEv
FNDA:0,_ZNK5boost9typeindex14stl_type_index9type_infoEv
FN:206,_ZNK5boost9typeindex14stl_type_index5equalERKS1_
FNDA:0,_ZNK5boost9typeindex14stl_type_index5equalERKS1_
FN:226,_ZN5boost9typeindex14stl_type_index7type_idIPFvvEEES1_v
FNDA:0,_ZN5boost9typeindex14stl_type_index7type_idIPFvvEEES1_v
DA:93,0
DA:94,0
DA:95,0
DA:117,0
DA:118,0
DA:206,0
DA:210,0
DA:226,0
DA:246,0
end_of_record
SF:/usr/include/c++/11/bits/stl_uninitialized.h
FN:986,_ZSt19__relocate_object_aINSt7__cxx1112basic_stringIcSt11char_traitsIcESaIcEEES5_SaIS5_EEvPT_PT0_RT1_
FNDA:7,_ZSt19__relocate_object_aINSt7__cxx1112basic_stringIcSt11char_traitsIcESaIcEEES5_SaIS5_EEvPT_PT0_RT1_
FN:1018,_ZSt14__relocate_a_1IPNSt7__cxx1112basic_stringIcSt11char_traitsIcESaIcEEES6_SaIS5_EET0_T_S9_S8_RT1_
FNDA:8,_ZSt14__relocate_a_1IPNSt7__cxx1112basic_stringIcSt11char_traitsIcESaIcEEES6_SaIS5_EET0_T_S9_S8_RT1_
FN:1040,_ZSt12__relocate_aIPNSt7__cxx1112basic_stringIcSt11char_traitsIcESaIcEEES6_SaIS5_EET0_T_S9_S8_RT1_
FNDA:8,_ZSt12__relocate_aIPNSt7__cxx1112basic_stringIcSt11char_traitsIcESaIcEEES6_SaIS5_EET0_T_S9_S8_RT1_
DA:986,7
DA:994,7
DA:995,7
DA:996,7
DA:1018,8
DA:1030,8
DA:1031,15
DA:1032,7
DA:1034,8
DA:1040,8
DA:1046,8
DA:1048,8
end_of_record
SF:/usr/include/boost/type_traits/integral_constant.hpp
FN:80,_ZNK5boost17integral_constantIbLb0EEcvRKN4mpl_5bool_ILb0EEEEv
FNDA:27,_ZNK5boost17integral_constantIbLb0EEcvRKN4mpl_5bool_ILb0EEEEv
DA:80,27
DA:84,27
end_of_record
SF:/usr/include/boost/smart_ptr/detail/sp_counted_base_gcc_atomic.hpp
FN:38,_ZN5boost6detail16atomic_decrementEPj
FNDA:0,_ZN5boost6detail16atomic_decrementEPj
FN:116,_ZN5boost6detail15sp_counted_base7releaseEv
FNDA:0,_ZN5boost6detail15sp_counted_base7releaseEv
FN:130,_ZN5boost6detail15sp_counted_base12weak_releaseEv
FNDA:0,_ZN5boost6detail15sp_counted_base12weak_releaseEv
DA:38,0
DA:40,0
DA:116,0
DA:118,0
DA:120,0
DA:121,0
DA:123,0
DA:130,0
DA:132,0
DA:134,0
DA:136,0
end_of_record
SF:/usr/include/c++/11/bits/uniform_int_dist.h
FN:93,_ZNSt24uniform_int_distributionImE10param_typeC2Emm
FNDA:54,_ZNSt24uniform_int_distributionImE10param_typeC2Emm
FN:101,_ZNKSt24uniform_int_distributionImE10param_type1aEv
FNDA:1080,_ZNKSt24uniform_int_distributionImE10param_type1aEv
FN:105,_ZNKSt24uniform_int_distributionImE10param_type1bEv
FNDA:540,_ZNKSt24uniform_int_distributionImE10param_type1bEv
FN:131,_ZNSt24uniform_int_distributionImEC2Emm
FNDA:54,_ZNSt24uniform_int_distributionImEC2Emm
FN:192,_ZNSt24uniform_int_distributionImEclISt23mersenne_twister_engineImLm32ELm624ELm397ELm31ELm2567483615ELm11ELm4294967295ELm7ELm2636928640ELm15ELm4022730752ELm18ELm1812433253EEEEmRT_
FNDA:540,_ZNSt24uniform_int_distributionImEclISt23mersenne_twister_engineImLm32ELm624ELm397ELm31ELm2567483615ELm11ELm4294967295ELm7ELm2636928640ELm15ELm4022730752ELm18ELm1812433253EEEEmRT_
FN:246,_ZNSt24uniform_int_distributionImE5_S_ndImSt23mersenne_twister_engineImLm32ELm624ELm397ELm31ELm2567483615ELm11ELm4294967295ELm7ELm2636928640ELm15ELm4022730752ELm18ELm1812433253EEjEET1_RT0_S4_
FNDA:540,_ZNSt24uniform_int_distributionImE5_S_ndImSt23mersenne_twister_engineImLm32ELm624ELm397ELm31ELm2567483615ELm11ELm4294967295ELm7ELm2636928640ELm15ELm4022730752ELm18ELm1812433253EEjEET1_RT0_S4_
FN:276,_ZNSt24uniform_int_distributionImEclISt23mersenne_twister_engineImLm32ELm624ELm397ELm31ELm2567483615ELm11ELm4294967295ELm7ELm2636928640ELm15ELm4022730752ELm18ELm1812433253EEEEmRT_RKNS0_10param_typeE
FNDA:540,_ZNSt24uniform_int_distributionImEclISt23mersenne_twister_engineImLm32ELm624ELm397ELm31ELm2567483615ELm11ELm4294967295ELm7ELm2636928640ELm15ELm4022730752ELm18ELm1812433253EEEEmRT_RKNS0_10param_typeE
DA:93,54
DA:95,54
DA:98,54
DA:101,1080
DA:102,1080
DA:105,540
DA:106,540
DA:131,54
DA:134,54
DA:135,54
DA:192,540
DA:193,540
DA:246,540
DA:258,540
DA:259,540
DA:260,540
DA:262,0
DA:263,0
DA:265,0
DA:266,0
DA:269,540
DA:276,540
DA:284,540
DA:285,540
DA:288,540
DA:290,540
DA:291,540
DA:294,540
DA:298,540
DA:315,540
DA:316,540
DA:330,0
DA:350,0
DA:351,0
DA:352,0
DA:353,0
DA:355,0
DA:358,0
DA:360,540
end_of_record
SF:/usr/include/boost/type_index.hpp
FN:211,_ZN5boost9typeindex7type_idIPFvvEEENS0_14stl_type_indexEv
FNDA:0,_ZN5boost9typeindex7type_idIPFvvEEENS0_14stl_type_indexEv
DA:211,0
DA:212,0
end_of_record
SF:/usr/include/boost/test/tools/old/impl.hpp
FN:92,_ZN5boost10test_tools9tt_detail10check_frwdINS1_15equal_impl_frwdENSt7__cxx1112basic_stringIcSt11char_traitsIcESaIcEEES9_EEbT_RKNS_9unit_test12lazy_ostreamENSB_13basic_cstringIKcEEmNS1_10tool_levelENS1_10check_typeERKT0_PSG_RKT1_SN_
FNDA:27,_ZN5boost10test_tools9tt_detail10check_frwdINS1_15equal_impl_frwdENSt7__cxx1112basic_stringIcSt11char_traitsIcESaIcEEES9_EEbT_RKNS_9unit_test12lazy_ostreamENSB_13basic_cstringIKcEEmNS1_10tool_levelENS1_10check_typeERKT0_PSG_RKT1_SN_
FN:105,_ZN5boost10test_tools9tt_detail10equal_implINSt7__cxx1112basic_stringIcSt11char_traitsIcESaIcEEES8_EENS0_16assertion_resultERKT_RKT0_
FNDA:27,_ZN5boost10test_tools9tt_detail10equal_implINSt7__cxx1112basic_stringIcSt11char_traitsIcESaIcEEES8_EENS0_16assertion_resultERKT_RKT0_
FN:128,_ZNK5boost10test_tools9tt_detail15equal_impl_frwd9call_implINSt7__cxx1112basic_stringIcSt11char_traitsIcESaIcEEES9_EENS0_16assertion_resultERKT_RKT0_N4mpl_5bool_ILb0EEE
FNDA:27,_ZNK5boost10test_tools9tt_detail15equal_impl_frwd9call_implINSt7__cxx1112basic_stringIcSt11char_traitsIcESaIcEEES9_EENS0_16assertion_resultERKT_RKT0_N4mpl_5bool_ILb0EEE
FN:142,_ZNK5boost10test_tools9tt_detail15equal_impl_frwdclINSt7__cxx1112basic_stringIcSt11char_traitsIcESaIcEEES9_EENS0_16assertion_resultERKT_RKT0_
FNDA:27,_ZNK5boost10test_tools9tt_detail15equal_impl_frwdclINSt7__cxx1112basic_stringIcSt11char_traitsIcESaIcEEES9_EENS0_16assertion_resultERKT_RKT0_
DA:92,27
DA:105,27
DA:107,27
DA:128,27
DA:130,27
DA:142,27
DA:145,54
end_of_record
SF:/usr/include/boost/function/function_base.hpp
FN:259,_ZN5boost6detail8function22functor_manager_commonIPFvvEE10manage_ptrERKNS1_15function_bufferERS6_NS1_30functor_manager_operation_typeE
FNDA:15,_ZN5boost6detail8function22functor_manager_commonIPFvvEE10manage_ptrERKNS1_15function_bufferERS6_NS1_30functor_manager_operation_typeE
FN:322,_ZN5boost6detail8function15functor_managerIPFvvEE7managerERKNS1_15function_bufferERS6_NS1_30functor_manager_operation_typeENS1_16function_ptr_tagE
FNDA:15,_ZN5boost6detail8function15functor_managerIPFvvEE7managerERKNS1_15function_bufferERS6_NS1_30functor_manager_operation_typeENS1_16function_ptr_tagE
FN:395,_ZN5boost6detail8function15functor_managerIPFvvEE6manageERKNS1_15function_bufferERS6_NS1_30functor_manager_operation_typeE
FNDA:15,_ZN5boost6detail8function15functor_managerIPFvvEE6manageERKNS1_15function_bufferERS6_NS1_30functor_manager_operation_typeE
FN:603,_ZN5boost13function_baseC2Ev
FNDA:15,_ZN5boost13function_baseC2Ev
FN:689,_ZNK5boost13function_base28has_trivial_copy_and_destroyEv
FNDA:15,_ZNK5boost13function_base28has_trivial_copy_and_destroyEv
DA:259,15
DA:262,15
DA:263,0
DA:264,15
DA:265,0
DA:266,0
DA:267,15
DA:268,15
DA:269,0
DA:270,0
DA:271,0
DA:273,0
DA:275,0
DA:276,0
DA:277,0
DA:279,15
DA:322,15
DA:325,15
DA:326,15
DA:395,15
DA:399,15
DA:400,0
DA:401,0
DA:402,0
DA:404,15
DA:406,15
DA:603,15
DA:689,15
DA:690,15
end_of_record
SF:/usr/include/c++/11/bits/ios_base.h
FN:728,_ZNSt8ios_base9precisionEl
FNDA:0,_ZNSt8ios_base9precisionEl
DA:728,0
DA:730,0
DA:731,0
DA:732,0
end_of_record
SF:/usr/include/boost/test/tools/detail/print_helper.hpp
FN:52,_ZN5boost10test_tools9tt_detail4impl21boost_test_print_typeINSt7__cxx1112basic_stringIcSt11char_traitsIcESaIcEEEEERSoSA_RKT_
FNDA:0,_ZN5boost10test_tools9tt_detail4impl21boost_test_print_typeINSt7__cxx1112basic_stringIcSt11char_traitsIcESaIcEEEEERSoSA_RKT_
FN:61,_ZNK5boost10test_tools9tt_detail4impl26boost_test_print_type_implclINSt7__cxx1112basic_stringIcSt11char_traitsIcESaIcEEEEERSoSB_RKT_
FNDA:0,_ZNK5boost10test_tools9tt_detail4impl26boost_test_print_type_implclINSt7__cxx1112basic_stringIcSt11char_traitsIcESaIcEEEEERSoSB_RKT_
FN:83,_ZN5boost10test_tools9tt_detail15print_log_valueINSt7__cxx1112basic_stringIcSt11char_traitsIcESaIcEEEEclERSoRKS8_
FNDA:0,_ZN5boost10test_tools9tt_detail15print_log_valueINSt7__cxx1112basic_stringIcSt11char_traitsIcESaIcEEEEclERSoRKS8_
FN:97,_ZN5boost10test_tools9tt_detail15print_log_valueINSt7__cxx1112basic_stringIcSt11char_traitsIcESaIcEEEE13set_precisionERSoN4mpl_5bool_ILb0EEE
FNDA:0,_ZN5boost10test_tools9tt_detail15print_log_valueINSt7__cxx1112basic_stringIcSt11char_traitsIcESaIcEEEE13set_precisionERSoN4mpl_5bool_ILb0EEE
FN:188,_ZN5boost10test_tools9tt_detail14print_helper_tINSt7__cxx1112basic_stringIcSt11char_traitsIcESaIcEEEEC2ERKS8_
FNDA:54,_ZN5boost10test_tools9tt_detail14print_helper_tINSt7__cxx1112basic_stringIcSt11char_traitsIcESaIcEEEEC2ERKS8_
FN:209,_ZN5boost10test_tools9tt_detail12print_helperINSt7__cxx1112basic_stringIcSt11char_traitsIcESaIcEEEEENS1_14print_helper_tIT_EERKSA_
FNDA:54,_ZN5boost10test_tools9tt_detail12print_helperINSt7__cxx1112basic_stringIcSt11char_traitsIcESaIcEEEEENS1_14print_helper_tIT_EERKSA_
FN:218,_ZN5boost10test_tools9tt_detaillsINSt7__cxx1112basic_stringIcSt11char_traitsIcESaIcEEEEERSoS9_RKNS1_14print_helper_tIT_EE
FNDA:0,_ZN5boost10test_tools9tt_detaillsINSt7__cxx1112basic_stringIcSt11char_traitsIcESaIcEEEEERSoS9_RKNS1_14print_helper_tIT_EE
DA:52,0
DA:55,0
DA:56,0
DA:61,0
DA:62,0
DA:83,0
DA:87,0
DA:91,0
DA:93,0
DA:94,0
DA:95,0
DA:97,0
DA:115,0
DA:188,54
DA:209,54
DA:211,54
DA:218,0
DA:220,0
DA:222,0
end_of_record
SF:/usr/include/c++/11/bits/stl_iterator_base_types.h
FN:238,_ZSt19__iterator_categoryIPcENSt15iterator_traitsIT_E17iterator_categoryERKS2_
FNDA:0,_ZSt19__iterator_categoryIPcENSt15iterator_traitsIT_E17iterator_categoryERKS2_
FN:238,_ZSt19__iterator_categoryIPKcENSt15iterator_traitsIT_E17iterator_categoryERKS3_
FNDA:20,_ZSt19__iterator_categoryIPKcENSt15iterator_traitsIT_E17iterator_categoryERKS3_
DA:238,0
DA:239,0
DA:238,20
DA:239,20
end_of_record
SF:/usr/include/boost/test/tree/fixture.hpp
FN:98,_ZN5boost9unit_test12impl_fixture10call_setupILb0EEclIN12OneListTests24TestBinaryFileOperationsEEEvRT_
FNDA:1,_ZN5boost9unit_test12impl_fixture10call_setupILb0EEclIN12OneListTests24TestBinaryFileOperationsEEEvRT_
FN:98,_ZN5boost9unit_test12impl_fixture10call_setupILb0EEclIN12OneListTests18TestAddBeforeValueEEEvRT_
FNDA:1,_ZN5boost9unit_test12impl_fixture10call_setupILb0EEclIN12OneListTests18TestAddBeforeValueEEEvRT_
FN:98,_ZN5boost9unit_test12impl_fixture10call_setupILb0EEclIN12OneListTests18TestRemoveFromHeadEEEvRT_
FNDA:1,_ZN5boost9unit_test12impl_fixture10call_setupILb0EEclIN12OneListTests18TestRemoveFromHeadEEEvRT_
FN:98,_ZN5boost9unit_test12impl_fixture10call_setupILb0EEclIN12OneListTests18TestRemoveFromTailEEEvRT_
FNDA:1,_ZN5boost9unit_test12impl_fixture10call_setupILb0EEclIN12OneListTests18TestRemoveFromTailEEEvRT_
FN:98,_ZN5boost9unit_test12impl_fixture10call_setupILb0EEclIN12OneListTests17TestAddAfterValueEEEvRT_
FNDA:1,_ZN5boost9unit_test12impl_fixture10call_setupILb0EEclIN12OneListTests17TestAddAfterValueEEEvRT_
FN:98,_ZN5boost9unit_test12impl_fixture10call_setupILb0EEclIN12OneListTests20TestRemoveAfterValueEEEvRT_
FNDA:1,_ZN5boost9unit_test12impl_fixture10call_setupILb0EEclIN12OneListTests20TestRemoveAfterValueEEEvRT_
FN:98,_ZN5boost9unit_test12impl_fixture10call_setupILb0EEclIN12OneListTests21TestRemoveBeforeValueEEEvRT_
FNDA:1,_ZN5boost9unit_test12impl_fixture10call_setupILb0EEclIN12OneListTests21TestRemoveBeforeValueEEEvRT_
FN:98,_ZN5boost9unit_test12impl_fixture10call_setupILb0EEclIN12OneListTests13TestAddToTailEEEvRT_
FNDA:1,_ZN5boost9unit_test12impl_fixture10call_setupILb0EEclIN12OneListTests13TestAddToTailEEEvRT_
FN:98,_ZN5boost9unit_test12impl_fixture10call_setupILb0EEclIN12OneListTests17TestRemoveByValueEEEvRT_
FNDA:1,_ZN5boost9unit_test12impl_fixture10call_setupILb0EEclIN12OneListTests17TestRemoveByValueEEEvRT_
FN:98,_ZN5boost9unit_test12impl_fixture10call_setupILb0EEclIN12OneListTests21TestGetElementByValueEEEvRT_
FNDA:1,_ZN5boost9unit_test12impl_fixture10call_setupILb0EEclIN12OneListTests21TestGetElementByValueEEEvRT_
FN:98,_ZN5boost9unit_test12impl_fixture10call_setupILb0EEclIN12OneListTests13TestAddToHeadEEEvRT_
FNDA:1,_ZN5boost9unit_test12impl_fixture10call_setupILb0EEclIN12OneListTests13TestAddToHeadEEEvRT_
FN:98,_ZN5boost9unit_test12impl_fixture10call_setupILb0EEclIN12OneListTests13TestFindByValEEEvRT_
FNDA:1,_ZN5boost9unit_test12impl_fixture10call_setupILb0EEclIN12OneListTests13TestFindByValEEEvRT_
FN:98,_ZN5boost9unit_test12impl_fixture10call_setupILb0EEclIN12OneListTests14TestPrintEmptyEEEvRT_
FNDA:1,_ZN5boost9unit_test12impl_fixture10call_setupILb0EEclIN12OneListTests14TestPrintEmptyEEEvRT_
FN:98,_ZN5boost9unit_test12impl_fixture10call_setupILb0EEclIN12OneListTests25TestConstructorDestructorEEEvRT_
FNDA:1,_ZN5boost9unit_test12impl_fixture10call_setupILb0EEclIN12OneListTests25TestConstructorDestructorEEEvRT_
FN:98,_ZN5boost9unit_test12impl_fixture10call_setupILb0EEclIN12OneListTests18TestFileOperationsEEEvRT_
FNDA:1,_ZN5boost9unit_test12impl_fixture10call_setupILb0EEclIN12OneListTests18TestFileOperationsEEEvRT_
FN:104,_ZN5boost9unit_test12impl_fixture13call_teardownILb0EEclIN12OneListTests13TestAddToHeadEEEvRT_
FNDA:1,_ZN5boost9unit_test12impl_fixture13call_teardownILb0EEclIN12OneListTests13TestAddToHeadEEEvRT_
FN:104,_ZN5boost9unit_test12impl_fixture13call_teardownILb0EEclIN12OneListTests25TestConstructorDestructorEEEvRT_
FNDA:1,_ZN5boost9unit_test12impl_fixture13call_teardownILb0EEclIN12OneListTests25TestConstructorDestructorEEEvRT_
FN:104,_ZN5boost9unit_test12impl_fixture13call_teardownILb0EEclIN12OneListTests13TestAddToTailEEEvRT_
FNDA:1,_ZN5boost9unit_test12impl_fixture13call_teardownILb0EEclIN12OneListTests13TestAddToTailEEEvRT_
FN:104,_ZN5boost9unit_test12impl_fixture13call_teardownILb0EEclIN12OneListTests17TestAddAfterValueEEEvRT_
FNDA:1,_ZN5boost9unit_test12impl_fixture13call_teardownILb0EEclIN12OneListTests17TestAddAfterValueEEEvRT_
FN:104,_ZN5boost9unit_test12impl_fixture13call_teardownILb0EEclIN12OneListTests24TestBinaryFileOperationsEEEvRT_
FNDA:1,_ZN5boost9unit_test12impl_fixture13call_teardownILb0EEclIN12OneListTests24TestBinaryFileOperationsEEEvRT_
FN:104,_ZN5boost9unit_test12impl_fixture13call_teardownILb0EEclIN12OneListTests18TestAddBeforeValueEEEvRT_
FNDA:1,_ZN5boost9unit_test12impl_fixture13call_teardownILb0EEclIN12OneListTests18TestAddBeforeValueEEEvRT_
FN:104,_ZN5boost9unit_test12impl_fixture13call_teardownILb0EEclIN12OneListTests18TestRemoveFromHeadEEEvRT_
FNDA:1,_ZN5boost9unit_test12impl_fixture13call_teardownILb0EEclIN12OneListTests18TestRemoveFromHeadEEEvRT_
FN:104,_ZN5boost9unit_test12impl_fixture13call_teardownILb0EEclIN12OneListTests18TestFileOperationsEEEvRT_
FNDA:1,_ZN5boost9unit_test12impl_fixture13call_teardownILb0EEclIN12OneListTests18TestFileOperationsEEEvRT_
FN:104,_ZN5boost9unit_test12impl_fixture13call_teardownILb0EEclIN12OneListTests14TestPrintEmptyEEEvRT_
FNDA:1,_ZN5boost9unit_test12impl_fixture13call_teardownILb0EEclIN12OneListTests14TestPrintEmptyEEEvRT_
FN:104,_ZN5boost9unit_test12impl_fixture13call_teardownILb0EEclIN12OneListTests13TestFindByValEEEvRT_
FNDA:1,_ZN5boost9unit_test12impl_fixture13call_teardownILb0EEclIN12OneListTests13TestFindByValEEEvRT_
FN:104,_ZN5boost9unit_test12impl_fixture13call_teardownILb0EEclIN12OneListTests21TestGetElementByValueEEEvRT_
FNDA:1,_ZN5boost9unit_test12impl_fixture13call_teardownILb0EEclIN12OneListTests21TestGetElementByValueEEEvRT_
FN:104,_ZN5boost9unit_test12impl_fixture13call_teardownILb0EEclIN12OneListTests17TestRemoveByValueEEEvRT_
FNDA:1,_ZN5boost9unit_test12impl_fixture13call_teardownILb0EEclIN12OneListTests17TestRemoveByValueEEEvRT_
FN:104,_ZN5boost9unit_test12impl_fixture13call_teardownILb0EEclIN12OneListTests21TestRemoveBeforeValueEEEvRT_
FNDA:1,_ZN5boost9unit_test12impl_fixture13call_teardownILb0EEclIN12OneListTests21TestRemoveBeforeValueEEEvRT_
FN:104,_ZN5boost9unit_test12impl_fixture13call_teardownILb0EEclIN12OneListTests20TestRemoveAfterValueEEEvRT_
FNDA:1,_ZN5boost9unit_test12impl_fixture13call_teardownILb0EEclIN12OneListTests20TestRemoveAfterValueEEEvRT_
FN:104,_ZN5boost9unit_test12impl_fixture13call_teardownILb0EEclIN12OneListTests18TestRemoveFromTailEEEvRT_
FNDA:1,_ZN5boost9unit_test12impl_fixture13call_teardownILb0EEclIN12OneListTests18TestRemoveFromTailEEEvRT_
FN:112,_ZN5boost9unit_test17setup_conditionalIN12OneListTests25TestConstructorDestructorEEEvRT_
FNDA:1,_ZN5boost9unit_test17setup_conditionalIN12OneListTests25TestConstructorDestructorEEEvRT_
FN:112,_ZN5boost9unit_test17setup_conditionalIN12OneListTests13TestAddToHeadEEEvRT_
FNDA:1,_ZN5boost9unit_test17setup_conditionalIN12OneListTests13TestAddToHeadEEEvRT_
FN:112,_ZN5boost9unit_test17setup_conditionalIN12OneListTests13TestAddToTailEEEvRT_
FNDA:1,_ZN5boost9unit_test17setup_conditionalIN12OneListTests13TestAddToTailEEEvRT_
FN:112,_ZN5boost9unit_test17setup_conditionalIN12OneListTests17TestAddAfterValueEEEvRT_
FNDA:1,_ZN5boost9unit_test17setup_conditionalIN12OneListTests17TestAddAfterValueEEEvRT_
FN:112,_ZN5boost9unit_test17setup_conditionalIN12OneListTests18TestAddBeforeValueEEEvRT_
FNDA:1,_ZN5boost9unit_test17setup_conditionalIN12OneListTests18TestAddBeforeValueEEEvRT_
FN:112,_ZN5boost9unit_test17setup_conditionalIN12OneListTests18TestRemoveFromHeadEEEvRT_
FNDA:1,_ZN5boost9unit_test17setup_conditionalIN12OneListTests18TestRemoveFromHeadEEEvRT_
FN:112,_ZN5boost9unit_test17setup_conditionalIN12OneListTests18TestRemoveFromTailEEEvRT_
FNDA:1,_ZN5boost9unit_test17setup_conditionalIN12OneListTests18TestRemoveFromTailEEEvRT_
FN:112,_ZN5boost9unit_test17setup_conditionalIN12OneListTests20TestRemoveAfterValueEEEvRT_
FNDA:1,_ZN5boost9unit_test17setup_conditionalIN12OneListTests20TestRemoveAfterValueEEEvRT_
FN:112,_ZN5boost9unit_test17setup_conditionalIN12OneListTests21TestRemoveBeforeValueEEEvRT_
FNDA:1,_ZN5boost9unit_test17setup_conditionalIN12OneListTests21TestRemoveBeforeValueEEEvRT_
FN:112,_ZN5boost9unit_test17setup_conditionalIN12OneListTests17TestRemoveByValueEEEvRT_
FNDA:1,_ZN5boost9unit_test17setup_conditionalIN12OneListTests17TestRemoveByValueEEEvRT_
FN:112,_ZN5boost9unit_test17setup_conditionalIN12OneListTests21TestGetElementByValueEEEvRT_
FNDA:1,_ZN5boost9unit_test17setup_conditionalIN12OneListTests21TestGetElementByValueEEEvRT_
FN:112,_ZN5boost9unit_test17setup_conditionalIN12OneListTests24TestBinaryFileOperationsEEEvRT_
FNDA:1,_ZN5boost9unit_test17setup_conditionalIN12OneListTests24TestBinaryFileOperationsEEEvRT_
FN:112,_ZN5boost9unit_test17setup_conditionalIN12OneListTests13TestFindByValEEEvRT_
FNDA:1,_ZN5boost9unit_test17setup_conditionalIN12OneListTests13TestFindByValEEEvRT_
FN:112,_ZN5boost9unit_test17setup_conditionalIN12OneListTests14TestPrintEmptyEEEvRT_
FNDA:1,_ZN5boost9unit_test17setup_conditionalIN12OneListTests14TestPrintEmptyEEEvRT_
FN:112,_ZN5boost9unit_test17setup_conditionalIN12OneListTests18TestFileOperationsEEEvRT_
FNDA:1,_ZN5boost9unit_test17setup_conditionalIN12OneListTests18TestFileOperationsEEEvRT_
FN:118,_ZN5boost9unit_test20teardown_conditionalIN12OneListTests24TestBinaryFileOperationsEEEvRT_
FNDA:1,_ZN5boost9unit_test20teardown_conditionalIN12OneListTests24TestBinaryFileOperationsEEEvRT_
FN:118,_ZN5boost9unit_test20teardown_conditionalIN12OneListTests17TestRemoveByValueEEEvRT_
FNDA:1,_ZN5boost9unit_test20teardown_conditionalIN12OneListTests17TestRemoveByValueEEEvRT_
FN:118,_ZN5boost9unit_test20teardown_conditionalIN12OneListTests25TestConstructorDestructorEEEvRT_
FNDA:1,_ZN5boost9unit_test20teardown_conditionalIN12OneListTests25TestConstructorDestructorEEEvRT_
FN:118,_ZN5boost9unit_test20teardown_conditionalIN12OneListTests13TestAddToHeadEEEvRT_
FNDA:1,_ZN5boost9unit_test20teardown_conditionalIN12OneListTests13TestAddToHeadEEEvRT_
FN:118,_ZN5boost9unit_test20teardown_conditionalIN12OneListTests18TestFileOperationsEEEvRT_
FNDA:1,_ZN5boost9unit_test20teardown_conditionalIN12OneListTests18TestFileOperationsEEEvRT_
FN:118,_ZN5boost9unit_test20teardown_conditionalIN12OneListTests13TestAddToTailEEEvRT_
FNDA:1,_ZN5boost9unit_test20teardown_conditionalIN12OneListTests13TestAddToTailEEEvRT_
FN:118,_ZN5boost9unit_test20teardown_conditionalIN12OneListTests17TestAddAfterValueEEEvRT_
FNDA:1,_ZN5boost9unit_test20teardown_conditionalIN12OneListTests17TestAddAfterValueEEEvRT_
FN:118,_ZN5boost9unit_test20teardown_conditionalIN12OneListTests14TestPrintEmptyEEEvRT_
FNDA:1,_ZN5boost9unit_test20teardown_conditionalIN12OneListTests14TestPrintEmptyEEEvRT_
FN:118,_ZN5boost9unit_test20teardown_conditionalIN12OneListTests18TestAddBeforeValueEEEvRT_
FNDA:1,_ZN5boost9unit_test20teardown_conditionalIN12OneListTests18TestAddBeforeValueEEEvRT_
FN:118,_ZN5boost9unit_test20teardown_conditionalIN12OneListTests18TestRemoveFromHeadEEEvRT_
FNDA:1,_ZN5boost9unit_test20teardown_conditionalIN12OneListTests18TestRemoveFromHeadEEEvRT_
FN:118,_ZN5boost9unit_test20teardown_conditionalIN12OneListTests13TestFindByValEEEvRT_
FNDA:1,_ZN5boost9unit_test20teardown_conditionalIN12OneListTests13TestFindByValEEEvRT_
FN:118,_ZN5boost9unit_test20teardown_conditionalIN12OneListTests18TestRemoveFromTailEEEvRT_
FNDA:1,_ZN5boost9unit_test20teardown_conditionalIN12OneListTests18TestRemoveFromTailEEEvRT_
FN:118,_ZN5boost9unit_test20teardown_conditionalIN12OneListTests20TestRemoveAfterValueEEEvRT_
FNDA:1,_ZN5boost9unit_test20teardown_conditionalIN12OneListTests20TestRemoveAfterValueEEEvRT_
FN:118,_ZN5boost9unit_test20teardown_conditionalIN12OneListTests21TestGetElementByValueEEEvRT_
FNDA:1,_ZN5boost9unit_test20teardown_conditionalIN12OneListTests21TestGetElementByValueEEEvRT_
FN:118,_ZN5boost9unit_test20teardown_conditionalIN12OneListTests21TestRemoveBeforeValueEEEvRT_
FNDA:1,_ZN5boost9unit_test20teardown_conditionalIN12OneListTests21TestRemoveBeforeValueEEEvRT_
DA:98,1
DA:98,1
DA:98,1
DA:98,1
DA:98,1
DA:98,1
DA:98,1
DA:98,1
DA:98,1
DA:98,1
DA:98,1
DA:98,1
DA:98,1
DA:98,1
DA:98,1
DA:104,1
DA:104,1
DA:104,1
DA:104,1
DA:104,1
DA:104,1
DA:104,1
DA:104,1
DA:104,1
DA:104,1
DA:104,1
DA:104,1
DA:104,1
DA:104,1
DA:104,1
DA:112,1
DA:113,1
DA:112,1
DA:113,1
DA:112,1
DA:113,1
DA:112,1
DA:113,1
DA:112,1
DA:113,1
DA:112,1
DA:113,1
DA:112,1
DA:113,1
DA:112,1
DA:113,1
DA:112,1
DA:113,1
DA:112,1
DA:113,1
DA:112,1
DA:113,1
DA:112,1
DA:113,1
DA:112,1
DA:113,1
DA:112,1
DA:113,1
DA:112,1
DA:113,1
DA:118,1
DA:119,1
DA:118,1
DA:119,1
DA:118,1
DA:119,1
DA:118,1
DA:119,1
DA:118,1
DA:119,1
DA:118,1
DA:119,1
DA:118,1
DA:119,1
DA:118,1
DA:119,1
DA:118,1
DA:119,1
DA:118,1
DA:119,1
DA:118,1
DA:119,1
DA:118,1
DA:119,1
DA:118,1
DA:119,1
DA:118,1
DA:119,1
DA:118,1
DA:119,1
end_of_record
SF:/usr/include/c++/11/new
FN:174,_ZnwmPv
FNDA:12,_ZnwmPv
FN:180,_ZdlPvS_
FNDA:0,_ZdlPvS_
DA:174,12
DA:175,12
DA:180,0
end_of_record
TN:
SF:/usr/include/c++/11/bits/stl_iterator_base_types.h
FN:238,_ZSt19__iterator_categoryIPcENSt15iterator_traitsIT_E17iterator_categoryERKS2_
FNDA:0,_ZSt19__iterator_categoryIPcENSt15iterator_traitsIT_E17iterator_categoryERKS2_
FN:238,_ZSt19__iterator_categoryIPKcENSt15iterator_traitsIT_E17iterator_categoryERKS3_
FNDA:0,_ZSt19__iterator_categoryIPKcENSt15iterator_traitsIT_E17iterator_categoryERKS3_
DA:238,0
DA:239,0
DA:238,0
DA:239,0
end_of_record
SF:/usr/include/c++/11/ext/type_traits.h
FN:152,_ZN9__gnu_cxx17__is_null_pointerIcEEbPT_
FNDA:0,_ZN9__gnu_cxx17__is_null_pointerIcEEbPT_
FN:152,_ZN9__gnu_cxx17__is_null_pointerIKcEEbPT_
FNDA:0,_ZN9__gnu_cxx17__is_null_pointerIKcEEbPT_
DA:152,0
DA:153,0
DA:152,0
DA:153,0
end_of_record
SF:/home/danilglock-18/laba3/zad1/cpp/onelist.cpp
FN:8,_ZN7OneListC2Ev
FNDA:18,_ZN7OneListC2Ev
FN:13,_ZN7OneListD2Ev
FNDA:18,_ZN7OneListD2Ev
FN:22,_ZN7OneList9addToHeadERKNSt7__cxx1112basic_stringIcSt11char_traitsIcESaIcEEE
FNDA:4,_ZN7OneList9addToHeadERKNSt7__cxx1112basic_stringIcSt11char_traitsIcESaIcEEE
FN:31,_ZN7OneList9addToTailERKNSt7__cxx1112basic_stringIcSt11char_traitsIcESaIcEEE
FNDA:53,_ZN7OneList9addToTailERKNSt7__cxx1112basic_stringIcSt11char_traitsIcESaIcEEE
FN:43,_ZN7OneList13addAfterValueERKNSt7__cxx1112basic_stringIcSt11char_traitsIcESaIcEEES7_
FNDA:5,_ZN7OneList13addAfterValueERKNSt7__cxx1112basic_stringIcSt11char_traitsIcESaIcEEES7_
FN:58,_ZN7OneList14addBeforeValueERKNSt7__cxx1112basic_stringIcSt11char_traitsIcESaIcEEES7_
FNDA:3,_ZN7OneList14addBeforeValueERKNSt7__cxx1112basic_stringIcSt11char_traitsIcESaIcEEES7_
FN:83,_ZN7OneList14removeFromHeadEv
FNDA:10,_ZN7OneList14removeFromHeadEv
FN:95,_ZN7OneList14removeFromTailEv
FNDA:5,_ZN7OneList14removeFromTailEv
FN:114,_ZN7OneList16removeAfterValueERKNSt7__cxx1112basic_stringIcSt11char_traitsIcESaIcEEE
FNDA:5,_ZN7OneList16removeAfterValueERKNSt7__cxx1112basic_stringIcSt11char_traitsIcESaIcEEE
FN:130,_ZN7OneList17removeBeforeValueERKNSt7__cxx1112basic_stringIcSt11char_traitsIcESaIcEEE
FNDA:6,_ZN7OneList17removeBeforeValueERKNSt7__cxx1112basic_stringIcSt11char_traitsIcESaIcEEE
FN:151,_ZN7OneList13removeByValueERKNSt7__cxx1112basic_stringIcSt11char_traitsIcESaIcEEE
FNDA:6,_ZN7OneList13removeByValueERKNSt7__cxx1112basic_stringIcSt11char_traitsIcESaIcEEE
FN:180,_ZNK7OneList17getElementByValueERKNSt7__cxx1112basic_stringIcSt11char_traitsIcESaIcEEE
FNDA:44,_ZNK7OneList17getElementByValueERKNSt7__cxx1112basic_stringIcSt11char_traitsIcESaIcEEE
FN:189,_ZNK7OneList9findByValERKNSt7__cxx1112basic_stringIcSt11char_traitsIcESaIcEEE
FNDA:74,_ZNK7OneList9findByValERKNSt7__cxx1112basic_stringIcSt11char_traitsIcESaIcEEE
FN:201,_ZNK7OneList5printEv
FNDA:11,_ZNK7OneList5printEv
FN:219,_ZNK7OneList10saveToFileERSt14basic_ofstreamIcSt11char_traitsIcEE
FNDA:1,_ZNK7OneList10saveToFileERSt14basic_ofstreamIcSt11char_traitsIcEE
FN:230,_ZN7OneList12loadFromFileERSt14basic_ifstreamIcSt11char_traitsIcEE
FNDA:1,_ZN7OneList12loadFromFileERSt14basic_ifstreamIcSt11char_traitsIcEE
FN:240,_ZNK7OneList16saveToBinaryFileERSt14basic_ofstreamIcSt11char_traitsIcEE
FNDA:1,_ZNK7OneList16saveToBinaryFileERSt14basic_ofstreamIcSt11char_traitsIcEE
FN:254,_ZN7OneList18loadFromBinaryFileERSt14basic_ifstreamIcSt11char_traitsIcEE
FNDA:1,_ZN7OneList18loadFromBinaryFileERSt14basic_ifstreamIcSt11char_traitsIcEE
DA:8,18
DA:9,18
DA:10,18
DA:11,18
DA:13,18
DA:14,18
DA:15,65
DA:16,47
DA:17,47
DA:18,47
DA:20,18
DA:22,4
DA:23,4
DA:24,4
DA:25,4
DA:26,4
DA:27,1
DA:29,4
DA:31,53
DA:32,53
DA:33,53
DA:34,53
DA:35,14
DA:36,14
DA:38,39
DA:39,39
DA:41,53
DA:43,5
DA:44,5
DA:45,5
DA:46,1
DA:49,4
DA:50,4
DA:51,4
DA:53,4
DA:54,1
DA:56,4
DA:58,3
DA:59,3
DA:60,3
DA:61,1
DA:64,2
DA:65,1
DA:66,1
DA:69,1
DA:70,1
DA:71,0
DA:74,1
DA:75,0
DA:78,1
DA:79,1
DA:80,1
DA:83,10
DA:84,10
DA:85,2
DA:87,8
DA:88,8
DA:89,8
DA:90,2
DA:92,8
DA:93,8
DA:95,5
DA:96,5
DA:97,2
DA:99,3
DA:100,1
DA:101,1
DA:102,1
DA:104,2
DA:105,3
DA:106,1
DA:108,2
DA:109,2
DA:110,2
DA:112,3
DA:114,5
DA:115,5
DA:116,5
DA:117,3
DA:120,2
DA:121,2
DA:123,2
DA:124,0
DA:127,2
DA:128,2
DA:130,6
DA:131,6
DA:132,6
DA:133,3
DA:136,3
DA:137,2
DA:138,2
DA:140,1
DA:141,1
DA:142,0
DA:145,1
DA:146,1
DA:148,1
DA:151,6
DA:152,6
DA:153,6
DA:154,2
DA:157,4
DA:158,3
DA:159,3
DA:162,1
DA:163,2
DA:164,1
DA:167,1
DA:168,0
DA:171,1
DA:173,1
DA:174,1
DA:177,1
DA:180,44
DA:182,44
DA:183,44
DA:184,17
DA:186,27
DA:189,74
DA:191,74
DA:192,164
DA:193,137
DA:194,47
DA:196,90
DA:198,27
DA:201,11
DA:202,11
DA:203,3
DA:204,3
DA:207,8
DA:208,8
DA:209,44
DA:210,36
DA:211,36
DA:212,28
DA:214,36
DA:216,8
DA:219,1
DA:220,1
DA:221,0
DA:223,1
DA:224,6
DA:225,5
DA:226,5
DA:230,1
DA:231,1
DA:232,0
DA:234,1
DA:235,6
DA:236,5
DA:238,1
DA:240,1
DA:241,1
DA:242,0
DA:244,1
DA:245,6
DA:246,5
DA:247,5
DA:248,5
DA:249,5
DA:250,5
DA:254,1
DA:255,1
DA:256,0
DA:258,6
DA:260,5
DA:261,5
DA:262,0
DA:264,5
DA:265,5
DA:266,5
DA:267,5
DA:268,5
DA:269,5
end_of_record
SF:/usr/include/c++/11/ext/alloc_traits.h
FN:97,_ZN9__gnu_cxx14__alloc_traitsISaIcEcE17_S_select_on_copyERKS1_
FNDA:0,_ZN9__gnu_cxx14__alloc_traitsISaIcEcE17_S_select_on_copyERKS1_
DA:97,0
DA:98,0
end_of_record
SF:/usr/include/c++/11/bits/move.h
FN:104,_ZSt4moveIRSaIcEEONSt16remove_referenceIT_E4typeEOS3_
FNDA:0,_ZSt4moveIRSaIcEEONSt16remove_referenceIT_E4typeEOS3_
FN:104,_ZSt4moveIRNSt7__cxx1112basic_stringIcSt11char_traitsIcESaIcEEEEONSt16remove_referenceIT_E4typeEOS8_
FNDA:0,_ZSt4moveIRNSt7__cxx1112basic_stringIcSt11char_traitsIcESaIcEEEEONSt16remove_referenceIT_E4typeEOS8_
DA:104,0
DA:105,0
DA:104,0
DA:105,0
end_of_record
SF:/home/danilglock-18/laba3/zad1/cpp/node.h
FN:12,_ZN11OneListNodeC2ENSt7__cxx1112basic_stringIcSt11char_traitsIcESaIcEEE
FNDA:62,_ZN11OneListNodeC2ENSt7__cxx1112basic_stringIcSt11char_traitsIcESaIcEEE
DA:12,62
end_of_record
SF:/usr/include/c++/11/ext/new_allocator.h
FN:79,_ZN9__gnu_cxx13new_allocatorIcEC2Ev
FNDA:0,_ZN9__gnu_cxx13new_allocatorIcEC2Ev
FN:82,_ZN9__gnu_cxx13new_allocatorIcEC2ERKS1_
FNDA:0,_ZN9__gnu_cxx13new_allocatorIcEC2ERKS1_
FN:89,_ZN9__gnu_cxx13new_allocatorIcED2Ev
FNDA:0,_ZN9__gnu_cxx13new_allocatorIcED2Ev
DA:79,0
DA:82,0
DA:89,0
end_of_record
SF:/usr/include/c++/11/iostream
end_of_record
SF:/usr/include/c++/11/bits/basic_string.h
FN:251,_ZNSt7__cxx1112basic_stringIcSt11char_traitsIcESaIcEE16_M_construct_auxIPcEEvT_S7_St12__false_type
FNDA:0,_ZNSt7__cxx1112basic_stringIcSt11char_traitsIcESaIcEE16_M_construct_auxIPcEEvT_S7_St12__false_type
FN:271,_ZNSt7__cxx1112basic_stringIcSt11char_traitsIcESaIcEE12_M_constructIPcEEvT_S7_
FNDA:0,_ZNSt7__cxx1112basic_stringIcSt11char_traitsIcESaIcEE12_M_constructIPcEEvT_S7_
FN:533,_ZNSt7__cxx1112basic_stringIcSt11char_traitsIcESaIcEEC2IS3_EEPKcRKS3_
FNDA:0,_ZNSt7__cxx1112basic_stringIcSt11char_traitsIcESaIcEEC2IS3_EEPKcRKS3_
FN:6234,_ZSteqIcEN9__gnu_cxx11__enable_ifIXsrSt9__is_charIT_E7__valueEbE6__typeERKNSt7__cxx1112basic_stringIS3_St11char_traitsIS3_ESaIS3_EEESE_
FNDA:0,_ZSteqIcEN9__gnu_cxx11__enable_ifIXsrSt9__is_charIT_E7__valueEbE6__typeERKNSt7__cxx1112basic_stringIS3_St11char_traitsIS3_ESaIS3_EEESE_
DA:251,0
DA:255,0
DA:256,0
DA:271,0
DA:274,0
DA:275,0
DA:533,0
DA:534,0
DA:536,0
DA:539,0
DA:540,0
DA:6234,0
DA:6236,0
DA:6237,0
DA:6238,0
end_of_record
SF:/usr/include/c++/11/bits/alloc_traits.h
FN:562,_ZNSt16allocator_traitsISaIcEE37select_on_container_copy_constructionERKS0_
FNDA:0,_ZNSt16allocator_traitsISaIcEE37select_on_container_copy_constructionERKS0_
DA:562,0
DA:563,0
end_of_record
SF:/usr/include/c++/11/bits/char_traits.h
FN:106,_ZN9__gnu_cxx11char_traitsIcE2eqERKcS3_
FNDA:0,_ZN9__gnu_cxx11char_traitsIcE2eqERKcS3_
FN:167,_ZN9__gnu_cxx11char_traitsIcE6lengthEPKc
FNDA:0,_ZN9__gnu_cxx11char_traitsIcE6lengthEPKc
FN:364,_ZNSt11char_traitsIcE2ltERKcS2_
FNDA:0,_ZNSt11char_traitsIcE2ltERKcS2_
FN:372,_ZNSt11char_traitsIcE7compareEPKcS2_m
FNDA:0,_ZNSt11char_traitsIcE7compareEPKcS2_m
FN:393,_ZNSt11char_traitsIcE6lengthEPKc
FNDA:0,_ZNSt11char_traitsIcE6lengthEPKc
FN:429,_ZNSt11char_traitsIcE4copyEPcPKcm
FNDA:0,_ZNSt11char_traitsIcE4copyEPcPKcm
DA:106,0
DA:107,0
DA:167,0
DA:170,0
DA:171,0
DA:172,0
DA:173,0
DA:290,0
DA:364,0
DA:367,0
DA:368,0
DA:372,0
DA:374,0
DA:375,0
DA:377,0
DA:379,0
DA:381,0
DA:382,0
DA:383,0
DA:384,0
DA:385,0
DA:386,0
DA:389,0
DA:393,0
DA:396,0
DA:397,0
DA:399,0
DA:429,0
DA:431,0
DA:432,0
DA:437,0
end_of_record
SF:/usr/include/c++/11/bits/stl_iterator_base_funcs.h
FN:98,_ZSt10__distanceIPcENSt15iterator_traitsIT_E15difference_typeES2_S2_St26random_access_iterator_tag
FNDA:0,_ZSt10__distanceIPcENSt15iterator_traitsIT_E15difference_typeES2_S2_St26random_access_iterator_tag
FN:98,_ZSt10__distanceIPKcENSt15iterator_traitsIT_E15difference_typeES3_S3_St26random_access_iterator_tag
FNDA:0,_ZSt10__distanceIPKcENSt15iterator_traitsIT_E15difference_typeES3_S3_St26random_access_iterator_tag
FN:138,_ZSt8distanceIPcENSt15iterator_traitsIT_E15difference_typeES2_S2_
FNDA:0,_ZSt8distanceIPcENSt15iterator_traitsIT_E15difference_typeES2_S2_
FN:138,_ZSt8distanceIPKcENSt15iterator_traitsIT_E15difference_typeES3_S3_
FNDA:0,_ZSt8distanceIPKcENSt15iterator_traitsIT_E15difference_typeES3_S3_
DA:98,0
DA:104,0
DA:98,0
DA:104,0
DA:138,0
DA:141,0
DA:142,0
DA:138,0
DA:141,0
DA:142,0
end_of_record
SF:/usr/include/c++/11/bits/basic_string.tcc
FN:206,_ZNSt7__cxx1112basic_stringIcSt11char_traitsIcESaIcEE12_M_constructIPcEEvT_S7_St20forward_iterator_tag
FNDA:0,_ZNSt7__cxx1112basic_stringIcSt11char_traitsIcESaIcEE12_M_constructIPcEEvT_S7_St20forward_iterator_tag
FN:206,_ZNSt7__cxx1112basic_stringIcSt11char_traitsIcESaIcEE12_M_constructIPKcEEvT_S8_St20forward_iterator_tag
FNDA:0,_ZNSt7__cxx1112basic_stringIcSt11char_traitsIcESaIcEE12_M_constructIPKcEEvT_S8_St20forward_iterator_tag
DA:206,0
DA:211,0
DA:212,0
DA:215,0
DA:217,0
DA:219,0
DA:220,0
DA:225,0
DA:226,0
DA:228,0
DA:229,0
DA:232,0
DA:233,0
DA:206,0
DA:211,0
DA:212,0
DA:215,0
DA:217,0
DA:219,0
DA:220,0
DA:225,0
DA:226,0
DA:228,0
DA:229,0
DA:232,0
DA:233,0
end_of_record
