TN:
SF:/usr/include/c++/11/bits/uniform_int_dist.h
FN:93,_ZNSt24uniform_int_distributionImE10param_typeC2Emm
FNDA:45,_ZNSt24uniform_int_distributionImE10param_typeC2Emm
FN:101,_ZNKSt24uniform_int_distributionImE10param_type1aEv
FNDA:900,_ZNKSt24uniform_int_distributionImE10param_type1aEv
FN:105,_ZNKSt24uniform_int_distributionImE10param_type1bEv
FNDA:450,_ZNKSt24uniform_int_distributionImE10param_type1bEv
FN:131,_ZNSt24uniform_int_distributionImEC2Emm
FNDA:45,_ZNSt24uniform_int_distributionImEC2Emm
FN:192,_ZNSt24uniform_int_distributionImEclISt23mersenne_twister_engineImLm32ELm624ELm397ELm31ELm2567483615ELm11ELm4294967295ELm7ELm2636928640ELm15ELm4022730752ELm18ELm1812433253EEEEmRT_
FNDA:450,_ZNSt24uniform_int_distributionImEclISt23mersenne_twister_engineImLm32ELm624ELm397ELm31ELm2567483615ELm11ELm4294967295ELm7ELm2636928640ELm15ELm4022730752ELm18ELm1812433253EEEEmRT_
FN:246,_ZNSt24uniform_int_distributionImE5_S_ndImSt23mersenne_twister_engineImLm32ELm624ELm397ELm31ELm2567483615ELm11ELm4294967295ELm7ELm2636928640ELm15ELm4022730752ELm18ELm1812433253EEjEET1_RT0_S4_
FNDA:450,_ZNSt24uniform_int_distributionImE5_S_ndImSt23mersenne_twister_engineImLm32ELm624ELm397ELm31ELm2567483615ELm11ELm4294967295ELm7ELm2636928640ELm15ELm4022730752ELm18ELm1812433253EEjEET1_RT0_S4_
FN:276,_ZNSt24uniform_int_distributionImEclISt23mersenne_twister_engineImLm32ELm624ELm397ELm31ELm2567483615ELm11ELm4294967295ELm7ELm2636928640ELm15ELm4022730752ELm18ELm1812433253EEEEmRT_RKNS0_10param_typeE
FNDA:450,_ZNSt24uniform_int_distributionImEclISt23mersenne_twister_engineImLm32ELm624ELm397ELm31ELm2567483615ELm11ELm4294967295ELm7ELm2636928640ELm15ELm4022730752ELm18ELm1812433253EEEEmRT_RKNS0_10param_typeE
DA:93,45
DA:95,45
DA:98,45
DA:101,900
DA:102,900
DA:105,450
DA:106,450
DA:131,45
DA:134,45
DA:135,45
DA:192,450
DA:193,450
DA:246,450
DA:258,450
DA:259,450
DA:260,450
DA:262,0
DA:263,0
DA:265,0
DA:266,0
DA:269,450
DA:276,450
DA:284,450
DA:285,450
DA:288,450
DA:290,450
DA:291,450
DA:294,450
DA:298,450
DA:315,450
DA:316,450
DA:330,0
DA:350,0
DA:351,0
DA:352,0
DA:353,0
DA:355,0
DA:358,0
DA:360,450
end_of_record
SF:/usr/include/c++/11/bits/move.h
FN:104,_ZSt4moveIRSaIcEEONSt16remove_referenceIT_E4typeEOS3_
FNDA:0,_ZSt4moveIRSaIcEEONSt16remove_referenceIT_E4typeEOS3_
DA:104,0
DA:105,0
end_of_record
SF:/usr/include/boost/test/tools/old/impl.hpp
FN:92,_ZN5boost10test_tools9tt_detail10check_frwdINS1_15equal_impl_frwdENSt7__cxx1112basic_stringIcSt11char_traitsIcESaIcEEES9_EEbT_RKNS_9unit_test12lazy_ostreamENSB_13basic_cstringIKcEEmNS1_10tool_levelENS1_10check_typeERKT0_PSG_RKT1_SN_
FNDA:3,_ZN5boost10test_tools9tt_detail10check_frwdINS1_15equal_impl_frwdENSt7__cxx1112basic_stringIcSt11char_traitsIcESaIcEEES9_EEbT_RKNS_9unit_test12lazy_ostreamENSB_13basic_cstringIKcEEmNS1_10tool_levelENS1_10check_typeERKT0_PSG_RKT1_SN_
FN:105,_ZN5boost10test_tools9tt_detail10equal_implINSt7__cxx1112basic_stringIcSt11char_traitsIcESaIcEEES8_EENS0_16assertion_resultERKT_RKT0_
FNDA:3,_ZN5boost10test_tools9tt_detail10equal_implINSt7__cxx1112basic_stringIcSt11char_traitsIcESaIcEEES8_EENS0_16assertion_resultERKT_RKT0_
FN:128,_ZNK5boost10test_tools9tt_detail15equal_impl_frwd9call_implINSt7__cxx1112basic_stringIcSt11char_traitsIcESaIcEEES9_EENS0_16assertion_resultERKT_RKT0_N4mpl_5bool_ILb0EEE
FNDA:3,_ZNK5boost10test_tools9tt_detail15equal_impl_frwd9call_implINSt7__cxx1112basic_stringIcSt11char_traitsIcESaIcEEES9_EENS0_16assertion_resultERKT_RKT0_N4mpl_5bool_ILb0EEE
FN:142,_ZNK5boost10test_tools9tt_detail15equal_impl_frwdclINSt7__cxx1112basic_stringIcSt11char_traitsIcESaIcEEES9_EENS0_16assertion_resultERKT_RKT0_
FNDA:3,_ZNK5boost10test_tools9tt_detail15equal_impl_frwdclINSt7__cxx1112basic_stringIcSt11char_traitsIcESaIcEEES9_EENS0_16assertion_resultERKT_RKT0_
DA:92,3
DA:105,3
DA:107,3
DA:128,3
DA:130,3
DA:142,3
DA:145,6
end_of_record
SF:/usr/include/c++/11/typeinfo
FN:120,_ZNKSt9type_infoeqERKS_
FNDA:0,_ZNKSt9type_infoeqERKS_
DA:120,0
DA:122,0
DA:123,0
DA:124,0
end_of_record
SF:/usr/include/boost/type_index/type_index_facade.hpp
FN:154,_ZN5boost9typeindexeqINS0_14stl_type_indexESt9type_infoEEbRKNS0_17type_index_facadeIT_T0_EES9_
FNDA:0,_ZN5boost9typeindexeqINS0_14stl_type_indexESt9type_infoEEbRKNS0_17type_index_facadeIT_T0_EES9_
FN:187,_ZN5boost9typeindexeqINS0_14stl_type_indexESt9type_infoEEbRKT0_RKNS0_17type_index_facadeIT_S4_EE
FNDA:0,_ZN5boost9typeindexeqINS0_14stl_type_indexESt9type_infoEEbRKT0_RKNS0_17type_index_facadeIT_S4_EE
DA:154,0
DA:155,0
DA:187,0
DA:188,0
end_of_record
SF:/usr/include/boost/test/unit_test_log.hpp
end_of_record
SF:/usr/include/boost/test/utils/class_properties.hpp
FN:54,_ZN5boost9unit_test14class_propertyIbEC2Eb
FNDA:54,_ZN5boost9unit_test14class_propertyIbEC2Eb
FN:131,_ZN5boost9unit_test17readonly_propertyIbEC2Eb
FNDA:54,_ZN5boost9unit_test17readonly_propertyIbEC2Eb
DA:54,54
DA:55,54
DA:131,54
end_of_record
SF:/usr/include/boost/test/utils/lazy_ostream.hpp
FN:33,_ZN5boost9unit_test12lazy_ostreamD2Ev
FNDA:60,_ZN5boost9unit_test12lazy_ostreamD2Ev
FN:33,_ZN5boost9unit_test12lazy_ostreamD0Ev
FNDA:0,_ZN5boost9unit_test12lazy_ostreamD0Ev
FN:35,_ZN5boost9unit_test12lazy_ostream8instanceEv
FNDA:60,_ZN5boost9unit_test12lazy_ostream8instanceEv
FN:51,_ZNK5boost9unit_test12lazy_ostreamclERSo
FNDA:0,_ZNK5boost9unit_test12lazy_ostreamclERSo
FN:53,_ZN5boost9unit_test12lazy_ostreamC2Eb
FNDA:60,_ZN5boost9unit_test12lazy_ostreamC2Eb
FN:72,_ZN5boost9unit_test17lazy_ostream_implINS0_12lazy_ostreamEA1_cRA1_KcEC2ERKS2_S6_
FNDA:3,_ZN5boost9unit_test17lazy_ostream_implINS0_12lazy_ostreamEA1_cRA1_KcEC2ERKS2_S6_
FN:72,_ZN5boost9unit_test17lazy_ostream_implINS0_12lazy_ostreamEA56_cRA56_KcEC2ERKS2_S6_
FNDA:2,_ZN5boost9unit_test17lazy_ostream_implINS0_12lazy_ostreamEA56_cRA56_KcEC2ERKS2_S6_
FN:72,_ZN5boost9unit_test17lazy_ostream_implINS0_12lazy_ostreamEA49_cRA49_KcEC2ERKS2_S6_
FNDA:3,_ZN5boost9unit_test17lazy_ostream_implINS0_12lazy_ostreamEA49_cRA49_KcEC2ERKS2_S6_
FN:72,_ZN5boost9unit_test17lazy_ostream_implINS0_12lazy_ostreamEA60_cRA60_KcEC2ERKS2_S6_
FNDA:0,_ZN5boost9unit_test17lazy_ostream_implINS0_12lazy_ostreamEA60_cRA60_KcEC2ERKS2_S6_
FN:72,_ZN5boost9unit_test17lazy_ostream_implINS0_12lazy_ostreamEA59_cRA59_KcEC2ERKS2_S6_
FNDA:0,_ZN5boost9unit_test17lazy_ostream_implINS0_12lazy_ostreamEA59_cRA59_KcEC2ERKS2_S6_
FN:72,_ZN5boost9unit_test17lazy_ostream_implINS0_12lazy_ostreamEA48_cRA48_KcEC2ERKS2_S6_
FNDA:0,_ZN5boost9unit_test17lazy_ostream_implINS0_12lazy_ostreamEA48_cRA48_KcEC2ERKS2_S6_
FN:72,_ZN5boost9unit_test17lazy_ostream_implINS0_12lazy_ostreamEA53_cRA53_KcEC2ERKS2_S6_
FNDA:2,_ZN5boost9unit_test17lazy_ostream_implINS0_12lazy_ostreamEA53_cRA53_KcEC2ERKS2_S6_
FN:72,_ZN5boost9unit_test17lazy_ostream_implINS0_12lazy_ostreamEA46_cRA46_KcEC2ERKS2_S6_
FNDA:4,_ZN5boost9unit_test17lazy_ostream_implINS0_12lazy_ostreamEA46_cRA46_KcEC2ERKS2_S6_
FN:72,_ZN5boost9unit_test17lazy_ostream_implINS0_12lazy_ostreamEA63_cRA63_KcEC2ERKS2_S6_
FNDA:0,_ZN5boost9unit_test17lazy_ostream_implINS0_12lazy_ostreamEA63_cRA63_KcEC2ERKS2_S6_
FN:72,_ZN5boost9unit_test17lazy_ostream_implINS0_12lazy_ostreamEA62_cRA62_KcEC2ERKS2_S6_
FNDA:0,_ZN5boost9unit_test17lazy_ostream_implINS0_12lazy_ostreamEA62_cRA62_KcEC2ERKS2_S6_
FN:72,_ZN5boost9unit_test17lazy_ostream_implINS0_12lazy_ostreamEA55_cRA55_KcEC2ERKS2_S6_
FNDA:2,_ZN5boost9unit_test17lazy_ostream_implINS0_12lazy_ostreamEA55_cRA55_KcEC2ERKS2_S6_
FN:72,_ZN5boost9unit_test17lazy_ostream_implINS0_12lazy_ostreamEA52_cRA52_KcEC2ERKS2_S6_
FNDA:1,_ZN5boost9unit_test17lazy_ostream_implINS0_12lazy_ostreamEA52_cRA52_KcEC2ERKS2_S6_
FN:72,_ZN5boost9unit_test17lazy_ostream_implINS0_12lazy_ostreamEA44_cRA44_KcEC2ERKS2_S6_
FNDA:0,_ZN5boost9unit_test17lazy_ostream_implINS0_12lazy_ostreamEA44_cRA44_KcEC2ERKS2_S6_
FN:72,_ZN5boost9unit_test17lazy_ostream_implINS0_12lazy_ostreamEA37_cRA37_KcEC2ERKS2_S6_
FNDA:16,_ZN5boost9unit_test17lazy_ostream_implINS0_12lazy_ostreamEA37_cRA37_KcEC2ERKS2_S6_
FN:72,_ZN5boost9unit_test17lazy_ostream_implINS0_12lazy_ostreamEA45_cRA45_KcEC2ERKS2_S6_
FNDA:10,_ZN5boost9unit_test17lazy_ostream_implINS0_12lazy_ostreamEA45_cRA45_KcEC2ERKS2_S6_
FN:72,_ZN5boost9unit_test17lazy_ostream_implINS0_12lazy_ostreamEA38_cRA38_KcEC2ERKS2_S6_
FNDA:5,_ZN5boost9unit_test17lazy_ostream_implINS0_12lazy_ostreamEA38_cRA38_KcEC2ERKS2_S6_
FN:72,_ZN5boost9unit_test17lazy_ostream_implINS0_12lazy_ostreamENS0_13basic_cstringIKcEERKS5_EC2ERKS2_S7_
FNDA:6,_ZN5boost9unit_test17lazy_ostream_implINS0_12lazy_ostreamENS0_13basic_cstringIKcEERKS5_EC2ERKS2_S7_
FN:72,_ZN5boost9unit_test17lazy_ostream_implINS0_12lazy_ostreamENS_10test_tools9tt_detail14print_helper_tINSt7__cxx1112basic_stringIcSt11char_traitsIcESaIcEEEEERKSC_EC2ERKS2_SE_
FNDA:6,_ZN5boost9unit_test17lazy_ostream_implINS0_12lazy_ostreamENS_10test_tools9tt_detail14print_helper_tINSt7__cxx1112basic_stringIcSt11char_traitsIcESaIcEEEEERKSC_EC2ERKS2_SE_
FN:79,_ZNK5boost9unit_test17lazy_ostream_implINS0_12lazy_ostreamEA45_cRA45_KcEclERSo
FNDA:0,_ZNK5boost9unit_test17lazy_ostream_implINS0_12lazy_ostreamEA45_cRA45_KcEclERSo
FN:79,_ZNK5boost9unit_test17lazy_ostream_implINS0_12lazy_ostreamEA37_cRA37_KcEclERSo
FNDA:0,_ZNK5boost9unit_test17lazy_ostream_implINS0_12lazy_ostreamEA37_cRA37_KcEclERSo
FN:79,_ZNK5boost9unit_test17lazy_ostream_implINS0_12lazy_ostreamEA44_cRA44_KcEclERSo
FNDA:0,_ZNK5boost9unit_test17lazy_ostream_implINS0_12lazy_ostreamEA44_cRA44_KcEclERSo
FN:79,_ZNK5boost9unit_test17lazy_ostream_implINS0_12lazy_ostreamEA52_cRA52_KcEclERSo
FNDA:0,_ZNK5boost9unit_test17lazy_ostream_implINS0_12lazy_ostreamEA52_cRA52_KcEclERSo
FN:79,_ZNK5boost9unit_test17lazy_ostream_implINS0_12lazy_ostreamEA55_cRA55_KcEclERSo
FNDA:0,_ZNK5boost9unit_test17lazy_ostream_implINS0_12lazy_ostreamEA55_cRA55_KcEclERSo
FN:79,_ZNK5boost9unit_test17lazy_ostream_implINS0_12lazy_ostreamEA62_cRA62_KcEclERSo
FNDA:0,_ZNK5boost9unit_test17lazy_ostream_implINS0_12lazy_ostreamEA62_cRA62_KcEclERSo
FN:79,_ZNK5boost9unit_test17lazy_ostream_implINS0_12lazy_ostreamEA56_cRA56_KcEclERSo
FNDA:0,_ZNK5boost9unit_test17lazy_ostream_implINS0_12lazy_ostreamEA56_cRA56_KcEclERSo
FN:79,_ZNK5boost9unit_test17lazy_ostream_implINS0_12lazy_ostreamEA63_cRA63_KcEclERSo
FNDA:0,_ZNK5boost9unit_test17lazy_ostream_implINS0_12lazy_ostreamEA63_cRA63_KcEclERSo
FN:79,_ZNK5boost9unit_test17lazy_ostream_implINS0_12lazy_ostreamEA46_cRA46_KcEclERSo
FNDA:0,_ZNK5boost9unit_test17lazy_ostream_implINS0_12lazy_ostreamEA46_cRA46_KcEclERSo
FN:79,_ZNK5boost9unit_test17lazy_ostream_implINS0_12lazy_ostreamEA48_cRA48_KcEclERSo
FNDA:0,_ZNK5boost9unit_test17lazy_ostream_implINS0_12lazy_ostreamEA48_cRA48_KcEclERSo
FN:79,_ZNK5boost9unit_test17lazy_ostream_implINS0_12lazy_ostreamEA59_cRA59_KcEclERSo
FNDA:0,_ZNK5boost9unit_test17lazy_ostream_implINS0_12lazy_ostreamEA59_cRA59_KcEclERSo
FN:79,_ZNK5boost9unit_test17lazy_ostream_implINS0_12lazy_ostreamEA38_cRA38_KcEclERSo
FNDA:0,_ZNK5boost9unit_test17lazy_ostream_implINS0_12lazy_ostreamEA38_cRA38_KcEclERSo
FN:79,_ZNK5boost9unit_test17lazy_ostream_implINS0_12lazy_ostreamEA60_cRA60_KcEclERSo
FNDA:0,_ZNK5boost9unit_test17lazy_ostream_implINS0_12lazy_ostreamEA60_cRA60_KcEclERSo
FN:79,_ZNK5boost9unit_test17lazy_ostream_implINS0_12lazy_ostreamEA53_cRA53_KcEclERSo
FNDA:0,_ZNK5boost9unit_test17lazy_ostream_implINS0_12lazy_ostreamEA53_cRA53_KcEclERSo
FN:79,_ZNK5boost9unit_test17lazy_ostream_implINS0_12lazy_ostreamENS_10test_tools9tt_detail14print_helper_tINSt7__cxx1112basic_stringIcSt11char_traitsIcESaIcEEEEERKSC_EclERSo
FNDA:0,_ZNK5boost9unit_test17lazy_ostream_implINS0_12lazy_ostreamENS_10test_tools9tt_detail14print_helper_tINSt7__cxx1112basic_stringIcSt11char_traitsIcESaIcEEEEERKSC_EclERSo
FN:79,_ZNK5boost9unit_test17lazy_ostream_implINS0_12lazy_ostreamENS0_13basic_cstringIKcEERKS5_EclERSo
FNDA:0,_ZNK5boost9unit_test17lazy_ostream_implINS0_12lazy_ostreamENS0_13basic_cstringIKcEERKS5_EclERSo
FN:79,_ZNK5boost9unit_test17lazy_ostream_implINS0_12lazy_ostreamEA1_cRA1_KcEclERSo
FNDA:0,_ZNK5boost9unit_test17lazy_ostream_implINS0_12lazy_ostreamEA1_cRA1_KcEclERSo
FN:79,_ZNK5boost9unit_test17lazy_ostream_implINS0_12lazy_ostreamEA49_cRA49_KcEclERSo
FNDA:0,_ZNK5boost9unit_test17lazy_ostream_implINS0_12lazy_ostreamEA49_cRA49_KcEclERSo
FN:93,_ZN5boost9unit_testlsINS_10test_tools9tt_detail14print_helper_tINSt7__cxx1112basic_stringIcSt11char_traitsIcESaIcEEEEEEENS0_17lazy_ostream_implINS0_12lazy_ostreamET_RKSE_EERKSD_SG_
FNDA:6,_ZN5boost9unit_testlsINS_10test_tools9tt_detail14print_helper_tINSt7__cxx1112basic_stringIcSt11char_traitsIcESaIcEEEEEEENS0_17lazy_ostream_implINS0_12lazy_ostreamET_RKSE_EERKSD_SG_
FN:93,_ZN5boost9unit_testlsIA38_cEENS0_17lazy_ostream_implINS0_12lazy_ostreamET_RKS5_EERKS4_S7_
FNDA:5,_ZN5boost9unit_testlsIA38_cEENS0_17lazy_ostream_implINS0_12lazy_ostreamET_RKS5_EERKS4_S7_
FN:93,_ZN5boost9unit_testlsIA45_cEENS0_17lazy_ostream_implINS0_12lazy_ostreamET_RKS5_EERKS4_S7_
FNDA:10,_ZN5boost9unit_testlsIA45_cEENS0_17lazy_ostream_implINS0_12lazy_ostreamET_RKS5_EERKS4_S7_
FN:93,_ZN5boost9unit_testlsIA37_cEENS0_17lazy_ostream_implINS0_12lazy_ostreamET_RKS5_EERKS4_S7_
FNDA:16,_ZN5boost9unit_testlsIA37_cEENS0_17lazy_ostream_implINS0_12lazy_ostreamET_RKS5_EERKS4_S7_
FN:93,_ZN5boost9unit_testlsIA44_cEENS0_17lazy_ostream_implINS0_12lazy_ostreamET_RKS5_EERKS4_S7_
FNDA:0,_ZN5boost9unit_testlsIA44_cEENS0_17lazy_ostream_implINS0_12lazy_ostreamET_RKS5_EERKS4_S7_
FN:93,_ZN5boost9unit_testlsIA52_cEENS0_17lazy_ostream_implINS0_12lazy_ostreamET_RKS5_EERKS4_S7_
FNDA:1,_ZN5boost9unit_testlsIA52_cEENS0_17lazy_ostream_implINS0_12lazy_ostreamET_RKS5_EERKS4_S7_
FN:93,_ZN5boost9unit_testlsIA55_cEENS0_17lazy_ostream_implINS0_12lazy_ostreamET_RKS5_EERKS4_S7_
FNDA:2,_ZN5boost9unit_testlsIA55_cEENS0_17lazy_ostream_implINS0_12lazy_ostreamET_RKS5_EERKS4_S7_
FN:93,_ZN5boost9unit_testlsIA62_cEENS0_17lazy_ostream_implINS0_12lazy_ostreamET_RKS5_EERKS4_S7_
FNDA:0,_ZN5boost9unit_testlsIA62_cEENS0_17lazy_ostream_implINS0_12lazy_ostreamET_RKS5_EERKS4_S7_
FN:93,_ZN5boost9unit_testlsIA56_cEENS0_17lazy_ostream_implINS0_12lazy_ostreamET_RKS5_EERKS4_S7_
FNDA:2,_ZN5boost9unit_testlsIA56_cEENS0_17lazy_ostream_implINS0_12lazy_ostreamET_RKS5_EERKS4_S7_
FN:93,_ZN5boost9unit_testlsIA63_cEENS0_17lazy_ostream_implINS0_12lazy_ostreamET_RKS5_EERKS4_S7_
FNDA:0,_ZN5boost9unit_testlsIA63_cEENS0_17lazy_ostream_implINS0_12lazy_ostreamET_RKS5_EERKS4_S7_
FN:93,_ZN5boost9unit_testlsIA46_cEENS0_17lazy_ostream_implINS0_12lazy_ostreamET_RKS5_EERKS4_S7_
FNDA:4,_ZN5boost9unit_testlsIA46_cEENS0_17lazy_ostream_implINS0_12lazy_ostreamET_RKS5_EERKS4_S7_
FN:93,_ZN5boost9unit_testlsIA53_cEENS0_17lazy_ostream_implINS0_12lazy_ostreamET_RKS5_EERKS4_S7_
FNDA:2,_ZN5boost9unit_testlsIA53_cEENS0_17lazy_ostream_implINS0_12lazy_ostreamET_RKS5_EERKS4_S7_
FN:93,_ZN5boost9unit_testlsIA48_cEENS0_17lazy_ostream_implINS0_12lazy_ostreamET_RKS5_EERKS4_S7_
FNDA:0,_ZN5boost9unit_testlsIA48_cEENS0_17lazy_ostream_implINS0_12lazy_ostreamET_RKS5_EERKS4_S7_
FN:93,_ZN5boost9unit_testlsIA59_cEENS0_17lazy_ostream_implINS0_12lazy_ostreamET_RKS5_EERKS4_S7_
FNDA:0,_ZN5boost9unit_testlsIA59_cEENS0_17lazy_ostream_implINS0_12lazy_ostreamET_RKS5_EERKS4_S7_
FN:93,_ZN5boost9unit_testlsIA60_cEENS0_17lazy_ostream_implINS0_12lazy_ostreamET_RKS5_EERKS4_S7_
FNDA:0,_ZN5boost9unit_testlsIA60_cEENS0_17lazy_ostream_implINS0_12lazy_ostreamET_RKS5_EERKS4_S7_
FN:93,_ZN5boost9unit_testlsIA49_cEENS0_17lazy_ostream_implINS0_12lazy_ostreamET_RKS5_EERKS4_S7_
FNDA:3,_ZN5boost9unit_testlsIA49_cEENS0_17lazy_ostream_implINS0_12lazy_ostreamET_RKS5_EERKS4_S7_
FN:93,_ZN5boost9unit_testlsIA1_cEENS0_17lazy_ostream_implINS0_12lazy_ostreamET_RKS5_EERKS4_S7_
FNDA:3,_ZN5boost9unit_testlsIA1_cEENS0_17lazy_ostream_implINS0_12lazy_ostreamET_RKS5_EERKS4_S7_
FN:93,_ZN5boost9unit_testlsINS0_13basic_cstringIKcEEEENS0_17lazy_ostream_implINS0_12lazy_ostreamET_RKS7_EERKS6_S9_
FNDA:6,_ZN5boost9unit_testlsINS0_13basic_cstringIKcEEEENS0_17lazy_ostream_implINS0_12lazy_ostreamET_RKS7_EERKS6_S9_
DA:33,0
DA:33,60
DA:35,60
DA:51,0
DA:53,60
DA:72,0
DA:74,0
DA:75,0
DA:77,0
DA:72,5
DA:74,5
DA:75,5
DA:77,5
DA:72,10
DA:74,10
DA:75,10
DA:77,10
DA:72,16
DA:74,16
DA:75,16
DA:77,16
DA:72,0
DA:74,0
DA:75,0
DA:77,0
DA:72,1
DA:74,1
DA:75,1
DA:77,1
DA:72,2
DA:74,2
DA:75,2
DA:77,2
DA:72,0
DA:74,0
DA:75,0
DA:77,0
DA:72,2
DA:74,2
DA:75,2
DA:77,2
DA:72,6
DA:74,6
DA:75,6
DA:77,6
DA:72,4
DA:74,4
DA:75,4
DA:77,4
DA:72,2
DA:74,2
DA:75,2
DA:77,2
DA:72,0
DA:74,0
DA:75,0
DA:77,0
DA:72,0
DA:74,0
DA:75,0
DA:77,0
DA:72,0
DA:74,0
DA:75,0
DA:77,0
DA:72,3
DA:74,3
DA:75,3
DA:77,3
DA:72,3
DA:74,3
DA:75,3
DA:77,3
DA:72,6
DA:74,6
DA:75,6
DA:77,6
DA:79,0
DA:81,0
DA:79,0
DA:81,0
DA:79,0
DA:81,0
DA:79,0
DA:81,0
DA:79,0
DA:81,0
DA:79,0
DA:81,0
DA:79,0
DA:81,0
DA:79,0
DA:81,0
DA:79,0
DA:81,0
DA:79,0
DA:81,0
DA:79,0
DA:81,0
DA:79,0
DA:81,0
DA:79,0
DA:81,0
DA:79,0
DA:81,0
DA:79,0
DA:81,0
DA:79,0
DA:81,0
DA:79,0
DA:81,0
DA:79,0
DA:81,0
DA:93,0
DA:95,0
DA:93,5
DA:95,5
DA:93,10
DA:95,10
DA:93,16
DA:95,16
DA:93,0
DA:95,0
DA:93,1
DA:95,1
DA:93,2
DA:95,2
DA:93,0
DA:95,0
DA:93,2
DA:95,2
DA:93,6
DA:95,6
DA:93,4
DA:95,4
DA:93,2
DA:95,2
DA:93,0
DA:95,0
DA:93,0
DA:95,0
DA:93,0
DA:95,0
DA:93,3
DA:95,3
DA:93,3
DA:95,3
DA:93,6
DA:95,6
end_of_record
SF:/usr/include/boost/function/function_base.hpp
FN:259,_ZN5boost6detail8function22functor_manager_commonIPFvvEE10manage_ptrERKNS1_15function_bufferERS6_NS1_30functor_manager_operation_typeE
FNDA:15,_ZN5boost6detail8function22functor_manager_commonIPFvvEE10manage_ptrERKNS1_15function_bufferERS6_NS1_30functor_manager_operation_typeE
FN:322,_ZN5boost6detail8function15functor_managerIPFvvEE7managerERKNS1_15function_bufferERS6_NS1_30functor_manager_operation_typeENS1_16function_ptr_tagE
FNDA:15,_ZN5boost6detail8function15functor_managerIPFvvEE7managerERKNS1_15function_bufferERS6_NS1_30functor_manager_operation_typeENS1_16function_ptr_tagE
FN:395,_ZN5boost6detail8function15functor_managerIPFvvEE6manageERKNS1_15function_bufferERS6_NS1_30functor_manager_operation_typeE
FNDA:15,_ZN5boost6detail8function15functor_managerIPFvvEE6manageERKNS1_15function_bufferERS6_NS1_30functor_manager_operation_typeE
FN:603,_ZN5boost13function_baseC2Ev
FNDA:15,_ZN5boost13function_baseC2Ev
FN:689,_ZNK5boost13function_base28has_trivial_copy_and_destroyEv
FNDA:15,_ZNK5boost13function_base28has_trivial_copy_and_destroyEv
DA:259,15
DA:262,15
DA:263,0
DA:264,15
DA:265,0
DA:266,0
DA:267,15
DA:268,15
DA:269,0
DA:270,0
DA:271,0
DA:273,0
DA:275,0
DA:276,0
DA:277,0
DA:279,15
DA:322,15
DA:325,15
DA:326,15
DA:395,15
DA:399,15
DA:400,0
DA:401,0
DA:402,0
DA:404,15
DA:406,15
DA:603,15
DA:689,15
DA:690,15
end_of_record
SF:/usr/include/boost/test/tree/fixture.hpp
FN:98,_ZN5boost9unit_test12impl_fixture10call_setupILb0EEclIN12TwoListTests24TestBinaryFileOperationsEEEvRT_
FNDA:1,_ZN5boost9unit_test12impl_fixture10call_setupILb0EEclIN12TwoListTests24TestBinaryFileOperationsEEEvRT_
FN:98,_ZN5boost9unit_test12impl_fixture10call_setupILb0EEclIN12TwoListTests18TestAddBeforeValueEEEvRT_
FNDA:1,_ZN5boost9unit_test12impl_fixture10call_setupILb0EEclIN12TwoListTests18TestAddBeforeValueEEEvRT_
FN:98,_ZN5boost9unit_test12impl_fixture10call_setupILb0EEclIN12TwoListTests18TestRemoveFromHeadEEEvRT_
FNDA:1,_ZN5boost9unit_test12impl_fixture10call_setupILb0EEclIN12TwoListTests18TestRemoveFromHeadEEEvRT_
FN:98,_ZN5boost9unit_test12impl_fixture10call_setupILb0EEclIN12TwoListTests18TestRemoveFromTailEEEvRT_
FNDA:1,_ZN5boost9unit_test12impl_fixture10call_setupILb0EEclIN12TwoListTests18TestRemoveFromTailEEEvRT_
FN:98,_ZN5boost9unit_test12impl_fixture10call_setupILb0EEclIN12TwoListTests17TestAddAfterValueEEEvRT_
FNDA:1,_ZN5boost9unit_test12impl_fixture10call_setupILb0EEclIN12TwoListTests17TestAddAfterValueEEEvRT_
FN:98,_ZN5boost9unit_test12impl_fixture10call_setupILb0EEclIN12TwoListTests20TestRemoveAfterValueEEEvRT_
FNDA:1,_ZN5boost9unit_test12impl_fixture10call_setupILb0EEclIN12TwoListTests20TestRemoveAfterValueEEEvRT_
FN:98,_ZN5boost9unit_test12impl_fixture10call_setupILb0EEclIN12TwoListTests21TestRemoveBeforeValueEEEvRT_
FNDA:1,_ZN5boost9unit_test12impl_fixture10call_setupILb0EEclIN12TwoListTests21TestRemoveBeforeValueEEEvRT_
FN:98,_ZN5boost9unit_test12impl_fixture10call_setupILb0EEclIN12TwoListTests13TestAddToTailEEEvRT_
FNDA:1,_ZN5boost9unit_test12impl_fixture10call_setupILb0EEclIN12TwoListTests13TestAddToTailEEEvRT_
FN:98,_ZN5boost9unit_test12impl_fixture10call_setupILb0EEclIN12TwoListTests17TestRemoveByValueEEEvRT_
FNDA:1,_ZN5boost9unit_test12impl_fixture10call_setupILb0EEclIN12TwoListTests17TestRemoveByValueEEEvRT_
FN:98,_ZN5boost9unit_test12impl_fixture10call_setupILb0EEclIN12TwoListTests21TestGetElementByValueEEEvRT_
FNDA:1,_ZN5boost9unit_test12impl_fixture10call_setupILb0EEclIN12TwoListTests21TestGetElementByValueEEEvRT_
FN:98,_ZN5boost9unit_test12impl_fixture10call_setupILb0EEclIN12TwoListTests13TestAddToHeadEEEvRT_
FNDA:1,_ZN5boost9unit_test12impl_fixture10call_setupILb0EEclIN12TwoListTests13TestAddToHeadEEEvRT_
FN:98,_ZN5boost9unit_test12impl_fixture10call_setupILb0EEclIN12TwoListTests13TestFindByValEEEvRT_
FNDA:1,_ZN5boost9unit_test12impl_fixture10call_setupILb0EEclIN12TwoListTests13TestFindByValEEEvRT_
FN:98,_ZN5boost9unit_test12impl_fixture10call_setupILb0EEclIN12TwoListTests14TestPrintEmptyEEEvRT_
FNDA:1,_ZN5boost9unit_test12impl_fixture10call_setupILb0EEclIN12TwoListTests14TestPrintEmptyEEEvRT_
FN:98,_ZN5boost9unit_test12impl_fixture10call_setupILb0EEclIN12TwoListTests25TestConstructorDestructorEEEvRT_
FNDA:1,_ZN5boost9unit_test12impl_fixture10call_setupILb0EEclIN12TwoListTests25TestConstructorDestructorEEEvRT_
FN:98,_ZN5boost9unit_test12impl_fixture10call_setupILb0EEclIN12TwoListTests18TestFileOperationsEEEvRT_
FNDA:1,_ZN5boost9unit_test12impl_fixture10call_setupILb0EEclIN12TwoListTests18TestFileOperationsEEEvRT_
FN:104,_ZN5boost9unit_test12impl_fixture13call_teardownILb0EEclIN12TwoListTests13TestAddToHeadEEEvRT_
FNDA:1,_ZN5boost9unit_test12impl_fixture13call_teardownILb0EEclIN12TwoListTests13TestAddToHeadEEEvRT_
FN:104,_ZN5boost9unit_test12impl_fixture13call_teardownILb0EEclIN12TwoListTests25TestConstructorDestructorEEEvRT_
FNDA:1,_ZN5boost9unit_test12impl_fixture13call_teardownILb0EEclIN12TwoListTests25TestConstructorDestructorEEEvRT_
FN:104,_ZN5boost9unit_test12impl_fixture13call_teardownILb0EEclIN12TwoListTests13TestAddToTailEEEvRT_
FNDA:1,_ZN5boost9unit_test12impl_fixture13call_teardownILb0EEclIN12TwoListTests13TestAddToTailEEEvRT_
FN:104,_ZN5boost9unit_test12impl_fixture13call_teardownILb0EEclIN12TwoListTests17TestAddAfterValueEEEvRT_
FNDA:1,_ZN5boost9unit_test12impl_fixture13call_teardownILb0EEclIN12TwoListTests17TestAddAfterValueEEEvRT_
FN:104,_ZN5boost9unit_test12impl_fixture13call_teardownILb0EEclIN12TwoListTests24TestBinaryFileOperationsEEEvRT_
FNDA:1,_ZN5boost9unit_test12impl_fixture13call_teardownILb0EEclIN12TwoListTests24TestBinaryFileOperationsEEEvRT_
FN:104,_ZN5boost9unit_test12impl_fixture13call_teardownILb0EEclIN12TwoListTests18TestAddBeforeValueEEEvRT_
FNDA:1,_ZN5boost9unit_test12impl_fixture13call_teardownILb0EEclIN12TwoListTests18TestAddBeforeValueEEEvRT_
FN:104,_ZN5boost9unit_test12impl_fixture13call_teardownILb0EEclIN12TwoListTests18TestRemoveFromHeadEEEvRT_
FNDA:1,_ZN5boost9unit_test12impl_fixture13call_teardownILb0EEclIN12TwoListTests18TestRemoveFromHeadEEEvRT_
FN:104,_ZN5boost9unit_test12impl_fixture13call_teardownILb0EEclIN12TwoListTests18TestFileOperationsEEEvRT_
FNDA:1,_ZN5boost9unit_test12impl_fixture13call_teardownILb0EEclIN12TwoListTests18TestFileOperationsEEEvRT_
FN:104,_ZN5boost9unit_test12impl_fixture13call_teardownILb0EEclIN12TwoListTests14TestPrintEmptyEEEvRT_
FNDA:1,_ZN5boost9unit_test12impl_fixture13call_teardownILb0EEclIN12TwoListTests14TestPrintEmptyEEEvRT_
FN:104,_ZN5boost9unit_test12impl_fixture13call_teardownILb0EEclIN12TwoListTests13TestFindByValEEEvRT_
FNDA:1,_ZN5boost9unit_test12impl_fixture13call_teardownILb0EEclIN12TwoListTests13TestFindByValEEEvRT_
FN:104,_ZN5boost9unit_test12impl_fixture13call_teardownILb0EEclIN12TwoListTests21TestGetElementByValueEEEvRT_
FNDA:1,_ZN5boost9unit_test12impl_fixture13call_teardownILb0EEclIN12TwoListTests21TestGetElementByValueEEEvRT_
FN:104,_ZN5boost9unit_test12impl_fixture13call_teardownILb0EEclIN12TwoListTests17TestRemoveByValueEEEvRT_
FNDA:1,_ZN5boost9unit_test12impl_fixture13call_teardownILb0EEclIN12TwoListTests17TestRemoveByValueEEEvRT_
FN:104,_ZN5boost9unit_test12impl_fixture13call_teardownILb0EEclIN12TwoListTests21TestRemoveBeforeValueEEEvRT_
FNDA:1,_ZN5boost9unit_test12impl_fixture13call_teardownILb0EEclIN12TwoListTests21TestRemoveBeforeValueEEEvRT_
FN:104,_ZN5boost9unit_test12impl_fixture13call_teardownILb0EEclIN12TwoListTests20TestRemoveAfterValueEEEvRT_
FNDA:1,_ZN5boost9unit_test12impl_fixture13call_teardownILb0EEclIN12TwoListTests20TestRemoveAfterValueEEEvRT_
FN:104,_ZN5boost9unit_test12impl_fixture13call_teardownILb0EEclIN12TwoListTests18TestRemoveFromTailEEEvRT_
FNDA:1,_ZN5boost9unit_test12impl_fixture13call_teardownILb0EEclIN12TwoListTests18TestRemoveFromTailEEEvRT_
FN:112,_ZN5boost9unit_test17setup_conditionalIN12TwoListTests25TestConstructorDestructorEEEvRT_
FNDA:1,_ZN5boost9unit_test17setup_conditionalIN12TwoListTests25TestConstructorDestructorEEEvRT_
FN:112,_ZN5boost9unit_test17setup_conditionalIN12TwoListTests13TestAddToHeadEEEvRT_
FNDA:1,_ZN5boost9unit_test17setup_conditionalIN12TwoListTests13TestAddToHeadEEEvRT_
FN:112,_ZN5boost9unit_test17setup_conditionalIN12TwoListTests13TestAddToTailEEEvRT_
FNDA:1,_ZN5boost9unit_test17setup_conditionalIN12TwoListTests13TestAddToTailEEEvRT_
FN:112,_ZN5boost9unit_test17setup_conditionalIN12TwoListTests17TestAddAfterValueEEEvRT_
FNDA:1,_ZN5boost9unit_test17setup_conditionalIN12TwoListTests17TestAddAfterValueEEEvRT_
FN:112,_ZN5boost9unit_test17setup_conditionalIN12TwoListTests18TestAddBeforeValueEEEvRT_
FNDA:1,_ZN5boost9unit_test17setup_conditionalIN12TwoListTests18TestAddBeforeValueEEEvRT_
FN:112,_ZN5boost9unit_test17setup_conditionalIN12TwoListTests18TestRemoveFromHeadEEEvRT_
FNDA:1,_ZN5boost9unit_test17setup_conditionalIN12TwoListTests18TestRemoveFromHeadEEEvRT_
FN:112,_ZN5boost9unit_test17setup_conditionalIN12TwoListTests18TestRemoveFromTailEEEvRT_
FNDA:1,_ZN5boost9unit_test17setup_conditionalIN12TwoListTests18TestRemoveFromTailEEEvRT_
FN:112,_ZN5boost9unit_test17setup_conditionalIN12TwoListTests20TestRemoveAfterValueEEEvRT_
FNDA:1,_ZN5boost9unit_test17setup_conditionalIN12TwoListTests20TestRemoveAfterValueEEEvRT_
FN:112,_ZN5boost9unit_test17setup_conditionalIN12TwoListTests21TestRemoveBeforeValueEEEvRT_
FNDA:1,_ZN5boost9unit_test17setup_conditionalIN12TwoListTests21TestRemoveBeforeValueEEEvRT_
FN:112,_ZN5boost9unit_test17setup_conditionalIN12TwoListTests17TestRemoveByValueEEEvRT_
FNDA:1,_ZN5boost9unit_test17setup_conditionalIN12TwoListTests17TestRemoveByValueEEEvRT_
FN:112,_ZN5boost9unit_test17setup_conditionalIN12TwoListTests21TestGetElementByValueEEEvRT_
FNDA:1,_ZN5boost9unit_test17setup_conditionalIN12TwoListTests21TestGetElementByValueEEEvRT_
FN:112,_ZN5boost9unit_test17setup_conditionalIN12TwoListTests24TestBinaryFileOperationsEEEvRT_
FNDA:1,_ZN5boost9unit_test17setup_conditionalIN12TwoListTests24TestBinaryFileOperationsEEEvRT_
FN:112,_ZN5boost9unit_test17setup_conditionalIN12TwoListTests13TestFindByValEEEvRT_
FNDA:1,_ZN5boost9unit_test17setup_conditionalIN12TwoListTests13TestFindByValEEEvRT_
FN:112,_ZN5boost9unit_test17setup_conditionalIN12TwoListTests14TestPrintEmptyEEEvRT_
FNDA:1,_ZN5boost9unit_test17setup_conditionalIN12TwoListTests14TestPrintEmptyEEEvRT_
FN:112,_ZN5boost9unit_test17setup_conditionalIN12TwoListTests18TestFileOperationsEEEvRT_
FNDA:1,_ZN5boost9unit_test17setup_conditionalIN12TwoListTests18TestFileOperationsEEEvRT_
FN:118,_ZN5boost9unit_test20teardown_conditionalIN12TwoListTests24TestBinaryFileOperationsEEEvRT_
FNDA:1,_ZN5boost9unit_test20teardown_conditionalIN12TwoListTests24TestBinaryFileOperationsEEEvRT_
FN:118,_ZN5boost9unit_test20teardown_conditionalIN12TwoListTests17TestRemoveByValueEEEvRT_
FNDA:1,_ZN5boost9unit_test20teardown_conditionalIN12TwoListTests17TestRemoveByValueEEEvRT_
FN:118,_ZN5boost9unit_test20teardown_conditionalIN12TwoListTests25TestConstructorDestructorEEEvRT_
FNDA:1,_ZN5boost9unit_test20teardown_conditionalIN12TwoListTests25TestConstructorDestructorEEEvRT_
FN:118,_ZN5boost9unit_test20teardown_conditionalIN12TwoListTests13TestAddToHeadEEEvRT_
FNDA:1,_ZN5boost9unit_test20teardown_conditionalIN12TwoListTests13TestAddToHeadEEEvRT_
FN:118,_ZN5boost9unit_test20teardown_conditionalIN12TwoListTests18TestFileOperationsEEEvRT_
FNDA:1,_ZN5boost9unit_test20teardown_conditionalIN12TwoListTests18TestFileOperationsEEEvRT_
FN:118,_ZN5boost9unit_test20teardown_conditionalIN12TwoListTests13TestAddToTailEEEvRT_
FNDA:1,_ZN5boost9unit_test20teardown_conditionalIN12TwoListTests13TestAddToTailEEEvRT_
FN:118,_ZN5boost9unit_test20teardown_conditionalIN12TwoListTests17TestAddAfterValueEEEvRT_
FNDA:1,_ZN5boost9unit_test20teardown_conditionalIN12TwoListTests17TestAddAfterValueEEEvRT_
FN:118,_ZN5boost9unit_test20teardown_conditionalIN12TwoListTests14TestPrintEmptyEEEvRT_
FNDA:1,_ZN5boost9unit_test20teardown_conditionalIN12TwoListTests14TestPrintEmptyEEEvRT_
FN:118,_ZN5boost9unit_test20teardown_conditionalIN12TwoListTests18TestAddBeforeValueEEEvRT_
FNDA:1,_ZN5boost9unit_test20teardown_conditionalIN12TwoListTests18TestAddBeforeValueEEEvRT_
FN:118,_ZN5boost9unit_test20teardown_conditionalIN12TwoListTests18TestRemoveFromHeadEEEvRT_
FNDA:1,_ZN5boost9unit_test20teardown_conditionalIN12TwoListTests18TestRemoveFromHeadEEEvRT_
FN:118,_ZN5boost9unit_test20teardown_conditionalIN12TwoListTests13TestFindByValEEEvRT_
FNDA:1,_ZN5boost9unit_test20teardown_conditionalIN12TwoListTests13TestFindByValEEEvRT_
FN:118,_ZN5boost9unit_test20teardown_conditionalIN12TwoListTests18TestRemoveFromTailEEEvRT_
FNDA:1,_ZN5boost9unit_test20teardown_conditionalIN12TwoListTests18TestRemoveFromTailEEEvRT_
FN:118,_ZN5boost9unit_test20teardown_conditionalIN12TwoListTests20TestRemoveAfterValueEEEvRT_
FNDA:1,_ZN5boost9unit_test20teardown_conditionalIN12TwoListTests20TestRemoveAfterValueEEEvRT_
FN:118,_ZN5boost9unit_test20teardown_conditionalIN12TwoListTests21TestGetElementByValueEEEvRT_
FNDA:1,_ZN5boost9unit_test20teardown_conditionalIN12TwoListTests21TestGetElementByValueEEEvRT_
FN:118,_ZN5boost9unit_test20teardown_conditionalIN12TwoListTests21TestRemoveBeforeValueEEEvRT_
FNDA:1,_ZN5boost9unit_test20teardown_conditionalIN12TwoListTests21TestRemoveBeforeValueEEEvRT_
DA:98,1
DA:98,1
DA:98,1
DA:98,1
DA:98,1
DA:98,1
DA:98,1
DA:98,1
DA:98,1
DA:98,1
DA:98,1
DA:98,1
DA:98,1
DA:98,1
DA:98,1
DA:104,1
DA:104,1
DA:104,1
DA:104,1
DA:104,1
DA:104,1
DA:104,1
DA:104,1
DA:104,1
DA:104,1
DA:104,1
DA:104,1
DA:104,1
DA:104,1
DA:104,1
DA:112,1
DA:113,1
DA:112,1
DA:113,1
DA:112,1
DA:113,1
DA:112,1
DA:113,1
DA:112,1
DA:113,1
DA:112,1
DA:113,1
DA:112,1
DA:113,1
DA:112,1
DA:113,1
DA:112,1
DA:113,1
DA:112,1
DA:113,1
DA:112,1
DA:113,1
DA:112,1
DA:113,1
DA:112,1
DA:113,1
DA:112,1
DA:113,1
DA:112,1
DA:113,1
DA:118,1
DA:119,1
DA:118,1
DA:119,1
DA:118,1
DA:119,1
DA:118,1
DA:119,1
DA:118,1
DA:119,1
DA:118,1
DA:119,1
DA:118,1
DA:119,1
DA:118,1
DA:119,1
DA:118,1
DA:119,1
DA:118,1
DA:119,1
DA:118,1
DA:119,1
DA:118,1
DA:119,1
DA:118,1
DA:119,1
DA:118,1
DA:119,1
DA:118,1
DA:119,1
end_of_record
SF:/usr/include/c++/11/bits/char_traits.h
FN:106,_ZN9__gnu_cxx11char_traitsIcE2eqERKcS3_
FNDA:0,_ZN9__gnu_cxx11char_traitsIcE2eqERKcS3_
FN:167,_ZN9__gnu_cxx11char_traitsIcE6lengthEPKc
FNDA:0,_ZN9__gnu_cxx11char_traitsIcE6lengthEPKc
FN:364,_ZNSt11char_traitsIcE2ltERKcS2_
FNDA:0,_ZNSt11char_traitsIcE2ltERKcS2_
FN:372,_ZNSt11char_traitsIcE7compareEPKcS2_m
FNDA:37,_ZNSt11char_traitsIcE7compareEPKcS2_m
FN:393,_ZNSt11char_traitsIcE6lengthEPKc
FNDA:8,_ZNSt11char_traitsIcE6lengthEPKc
DA:106,0
DA:107,0
DA:167,0
DA:170,0
DA:171,0
DA:172,0
DA:173,0
DA:290,8
DA:364,0
DA:367,0
DA:368,0
DA:372,37
DA:374,37
DA:375,0
DA:377,37
DA:379,37
DA:381,0
DA:382,0
DA:383,0
DA:384,0
DA:385,0
DA:386,0
DA:389,37
DA:393,8
DA:396,8
DA:397,0
DA:399,8
end_of_record
SF:/usr/include/c++/11/bits/basic_string.h
FN:251,_ZNSt7__cxx1112basic_stringIcSt11char_traitsIcESaIcEE16_M_construct_auxIPKcEEvT_S8_St12__false_type
FNDA:0,_ZNSt7__cxx1112basic_stringIcSt11char_traitsIcESaIcEE16_M_construct_auxIPKcEEvT_S8_St12__false_type
FN:271,_ZNSt7__cxx1112basic_stringIcSt11char_traitsIcESaIcEE12_M_constructIPKcEEvT_S8_
FNDA:0,_ZNSt7__cxx1112basic_stringIcSt11char_traitsIcESaIcEE12_M_constructIPKcEEvT_S8_
FN:533,_ZNSt7__cxx1112basic_stringIcSt11char_traitsIcESaIcEEC2IS3_EEPKcRKS3_
FNDA:8,_ZNSt7__cxx1112basic_stringIcSt11char_traitsIcESaIcEEC2IS3_EEPKcRKS3_
FN:6234,_ZSteqIcEN9__gnu_cxx11__enable_ifIXsrSt9__is_charIT_E7__valueEbE6__typeERKNSt7__cxx1112basic_stringIS3_St11char_traitsIS3_ESaIS3_EEESE_
FNDA:37,_ZSteqIcEN9__gnu_cxx11__enable_ifIXsrSt9__is_charIT_E7__valueEbE6__typeERKNSt7__cxx1112basic_stringIS3_St11char_traitsIS3_ESaIS3_EEESE_
DA:251,0
DA:255,0
DA:256,0
DA:271,0
DA:274,0
DA:275,0
DA:533,8
DA:534,8
DA:536,8
DA:539,8
DA:540,8
DA:6234,37
DA:6236,37
DA:6237,37
DA:6238,37
end_of_record
SF:/usr/include/boost/type_index.hpp
FN:211,_ZN5boost9typeindex7type_idIPFvvEEENS0_14stl_type_indexEv
FNDA:0,_ZN5boost9typeindex7type_idIPFvvEEENS0_14stl_type_indexEv
DA:211,0
DA:212,0
end_of_record
SF:/usr/include/boost/smart_ptr/detail/sp_counted_base_gcc_atomic.hpp
FN:38,_ZN5boost6detail16atomic_decrementEPj
FNDA:0,_ZN5boost6detail16atomic_decrementEPj
FN:116,_ZN5boost6detail15sp_counted_base7releaseEv
FNDA:0,_ZN5boost6detail15sp_counted_base7releaseEv
FN:130,_ZN5boost6detail15sp_counted_base12weak_releaseEv
FNDA:0,_ZN5boost6detail15sp_counted_base12weak_releaseEv
DA:38,0
DA:40,0
DA:116,0
DA:118,0
DA:120,0
DA:121,0
DA:123,0
DA:130,0
DA:132,0
DA:134,0
DA:136,0
end_of_record
SF:/usr/include/boost/smart_ptr/shared_ptr.hpp
FN:346,_ZN5boost10shared_ptrINS_23basic_wrap_stringstreamIcEEEC2Ev
FNDA:54,_ZN5boost10shared_ptrINS_23basic_wrap_stringstreamIcEEEC2Ev
DA:346,54
DA:348,54
end_of_record
SF:/home/danilglock-18/laba3/zad2/cpp/twolist/twolisttest.cpp
FN:10,_Z20generateRandomStringB5cxx11m
FNDA:45,_Z20generateRandomStringB5cxx11m
FN:29,_ZN12TwoListTestsL33TestConstructorDestructor_invokerEv
FNDA:1,_ZN12TwoListTestsL33TestConstructorDestructor_invokerEv
FN:29,_ZN12TwoListTests25TestConstructorDestructor11test_methodEv
FNDA:1,_ZN12TwoListTests25TestConstructorDestructor11test_methodEv
FN:37,_ZN12TwoListTestsL21TestAddToHead_invokerEv
FNDA:1,_ZN12TwoListTestsL21TestAddToHead_invokerEv
FN:37,_ZN12TwoListTests13TestAddToHead11test_methodEv
FNDA:1,_ZN12TwoListTests13TestAddToHead11test_methodEv
FN:50,_ZN12TwoListTestsL21TestAddToTail_invokerEv
FNDA:1,_ZN12TwoListTestsL21TestAddToTail_invokerEv
FN:50,_ZN12TwoListTests13TestAddToTail11test_methodEv
FNDA:1,_ZN12TwoListTests13TestAddToTail11test_methodEv
FN:63,_ZN12TwoListTestsL25TestAddAfterValue_invokerEv
FNDA:1,_ZN12TwoListTestsL25TestAddAfterValue_invokerEv
FN:63,_ZN12TwoListTests17TestAddAfterValue11test_methodEv
FNDA:1,_ZN12TwoListTests17TestAddAfterValue11test_methodEv
FN:80,_ZN12TwoListTestsL26TestAddBeforeValue_invokerEv
FNDA:1,_ZN12TwoListTestsL26TestAddBeforeValue_invokerEv
FN:80,_ZN12TwoListTests18TestAddBeforeValue11test_methodEv
FNDA:1,_ZN12TwoListTests18TestAddBeforeValue11test_methodEv
FN:98,_ZN12TwoListTestsL26TestRemoveFromHead_invokerEv
FNDA:1,_ZN12TwoListTestsL26TestRemoveFromHead_invokerEv
FN:98,_ZN12TwoListTests18TestRemoveFromHead11test_methodEv
FNDA:1,_ZN12TwoListTests18TestRemoveFromHead11test_methodEv
FN:112,_ZN12TwoListTestsL26TestRemoveFromTail_invokerEv
FNDA:1,_ZN12TwoListTestsL26TestRemoveFromTail_invokerEv
FN:112,_ZN12TwoListTests18TestRemoveFromTail11test_methodEv
FNDA:1,_ZN12TwoListTests18TestRemoveFromTail11test_methodEv
FN:126,_ZN12TwoListTestsL28TestRemoveAfterValue_invokerEv
FNDA:1,_ZN12TwoListTestsL28TestRemoveAfterValue_invokerEv
FN:126,_ZN12TwoListTests20TestRemoveAfterValue11test_methodEv
FNDA:1,_ZN12TwoListTests20TestRemoveAfterValue11test_methodEv
FN:142,_ZN12TwoListTestsL29TestRemoveBeforeValue_invokerEv
FNDA:1,_ZN12TwoListTestsL29TestRemoveBeforeValue_invokerEv
FN:142,_ZN12TwoListTests21TestRemoveBeforeValue11test_methodEv
FNDA:1,_ZN12TwoListTests21TestRemoveBeforeValue11test_methodEv
FN:159,_ZN12TwoListTestsL25TestRemoveByValue_invokerEv
FNDA:1,_ZN12TwoListTestsL25TestRemoveByValue_invokerEv
FN:159,_ZN12TwoListTests17TestRemoveByValue11test_methodEv
FNDA:1,_ZN12TwoListTests17TestRemoveByValue11test_methodEv
FN:179,_ZN12TwoListTestsL29TestGetElementByValue_invokerEv
FNDA:1,_ZN12TwoListTestsL29TestGetElementByValue_invokerEv
FN:179,_ZN12TwoListTests21TestGetElementByValue11test_methodEv
FNDA:1,_ZN12TwoListTests21TestGetElementByValue11test_methodEv
FN:195,_ZN12TwoListTestsL21TestFindByVal_invokerEv
FNDA:1,_ZN12TwoListTestsL21TestFindByVal_invokerEv
FN:195,_ZN12TwoListTests13TestFindByVal11test_methodEv
FNDA:1,_ZN12TwoListTests13TestFindByVal11test_methodEv
FN:207,_ZN12TwoListTestsL22TestPrintEmpty_invokerEv
FNDA:1,_ZN12TwoListTestsL22TestPrintEmpty_invokerEv
FN:207,_ZN12TwoListTests14TestPrintEmpty11test_methodEv
FNDA:1,_ZN12TwoListTests14TestPrintEmpty11test_methodEv
FN:212,_ZN12TwoListTestsL26TestFileOperations_invokerEv
FNDA:1,_ZN12TwoListTestsL26TestFileOperations_invokerEv
FN:212,_ZN12TwoListTests18TestFileOperations11test_methodEv
FNDA:1,_ZN12TwoListTests18TestFileOperations11test_methodEv
FN:237,_ZN12TwoListTests24TestBinaryFileOperations11test_methodEv
FNDA:1,_ZN12TwoListTests24TestBinaryFileOperations11test_methodEv
FN:237,_ZN12TwoListTestsL32TestBinaryFileOperations_invokerEv
FNDA:1,_ZN12TwoListTestsL32TestBinaryFileOperations_invokerEv
DA:10,45
DA:16,45
DA:17,45
DA:19,45
DA:20,45
DA:21,495
DA:22,450
DA:24,90
DA:25,0
DA:29,1
DA:30,1
DA:31,1
DA:33,1
DA:34,2
DA:35,1
DA:29,1
DA:37,1
DA:38,1
DA:39,1
DA:40,1
DA:41,1
DA:43,1
DA:44,1
DA:45,1
DA:47,1
DA:48,1
DA:37,1
DA:50,1
DA:51,1
DA:52,1
DA:53,1
DA:54,1
DA:56,1
DA:57,1
DA:58,1
DA:60,1
DA:61,1
DA:50,1
DA:63,1
DA:64,1
DA:65,1
DA:66,1
DA:67,1
DA:68,1
DA:69,1
DA:70,1
DA:71,1
DA:72,1
DA:74,1
DA:75,1
DA:76,1
DA:77,1
DA:78,1
DA:63,1
DA:80,1
DA:81,1
DA:82,1
DA:83,1
DA:84,1
DA:85,1
DA:86,1
DA:87,1
DA:88,1
DA:89,1
DA:91,1
DA:92,1
DA:93,1
DA:94,1
DA:96,1
DA:80,1
DA:98,1
DA:99,1
DA:100,1
DA:101,1
DA:103,1
DA:104,1
DA:106,1
DA:107,1
DA:108,1
DA:109,2
DA:110,1
DA:98,1
DA:112,1
DA:113,1
DA:114,1
DA:115,1
DA:117,1
DA:118,1
DA:120,1
DA:121,1
DA:122,1
DA:123,2
DA:124,1
DA:112,1
DA:126,1
DA:127,1
DA:128,1
DA:129,1
DA:130,1
DA:132,1
DA:133,1
DA:134,1
DA:136,1
DA:137,1
DA:139,2
DA:140,1
DA:126,1
DA:142,1
DA:143,1
DA:144,1
DA:145,1
DA:146,1
DA:147,1
DA:148,1
DA:149,1
DA:150,1
DA:151,1
DA:152,1
DA:153,1
DA:154,1
DA:155,1
DA:156,2
DA:157,1
DA:142,1
DA:159,1
DA:160,1
DA:161,1
DA:162,1
DA:163,1
DA:165,1
DA:166,1
DA:167,1
DA:169,1
DA:170,1
DA:172,1
DA:173,1
DA:175,1
DA:176,1
DA:177,1
DA:159,1
DA:179,1
DA:180,1
DA:181,1
DA:182,1
DA:183,1
DA:185,1
DA:186,1
DA:187,1
DA:189,1
DA:190,1
DA:191,1
DA:193,1
DA:179,1
DA:195,1
DA:196,1
DA:197,1
DA:198,1
DA:200,1
DA:201,1
DA:203,1
DA:204,1
DA:205,1
DA:195,1
DA:207,1
DA:208,1
DA:209,1
DA:210,1
DA:207,1
DA:212,1
DA:213,1
DA:214,1
DA:216,6
DA:217,5
DA:218,5
DA:219,5
DA:221,1
DA:222,1
DA:223,1
DA:224,1
DA:226,1
DA:227,1
DA:228,1
DA:229,1
DA:231,1
DA:232,1
DA:234,1
DA:235,1
DA:212,1
DA:237,1
DA:238,1
DA:239,1
DA:241,6
DA:242,5
DA:243,5
DA:244,5
DA:246,1
DA:247,1
DA:248,1
DA:249,1
DA:251,1
DA:252,1
DA:253,1
DA:254,1
DA:256,1
DA:257,1
DA:259,1
DA:260,1
DA:237,1
end_of_record
SF:/usr/include/boost/test/utils/basic_cstring/bcs_char_traits.hpp
FN:60,_ZN5boost9unit_test9ut_detail20bcs_char_traits_implIKcE2eqEcc
FNDA:558,_ZN5boost9unit_test9ut_detail20bcs_char_traits_implIKcE2eqEcc
FN:82,_ZN5boost9unit_test9ut_detail20bcs_char_traits_implIKcE6lengthEPS3_
FNDA:33,_ZN5boost9unit_test9ut_detail20bcs_char_traits_implIKcE6lengthEPS3_
FN:93,_ZN5boost9unit_test9ut_detail20bcs_char_traits_implIKcE4findEPS3_mc
FNDA:2,_ZN5boost9unit_test9ut_detail20bcs_char_traits_implIKcE4findEPS3_mc
DA:60,558
DA:62,558
DA:82,33
DA:84,33
DA:86,33
DA:87,556
DA:88,523
DA:90,33
DA:93,2
DA:95,4
DA:96,2
DA:97,0
DA:99,2
DA:100,2
DA:102,2
end_of_record
SF:/usr/include/boost/test/utils/wrap_stringstream.hpp
FN:64,_ZN5boostlsIcA25_cEERNS_23basic_wrap_stringstreamIT_EES5_RKT0_
FNDA:5,_ZN5boostlsIcA25_cEERNS_23basic_wrap_stringstreamIT_EES5_RKT0_
FN:64,_ZN5boostlsIcA22_cEERNS_23basic_wrap_stringstreamIT_EES5_RKT0_
FNDA:10,_ZN5boostlsIcA22_cEERNS_23basic_wrap_stringstreamIT_EES5_RKT0_
FN:64,_ZN5boostlsIcA21_cEERNS_23basic_wrap_stringstreamIT_EES5_RKT0_
FNDA:5,_ZN5boostlsIcA21_cEERNS_23basic_wrap_stringstreamIT_EES5_RKT0_
FN:64,_ZN5boostlsIcA18_cEERNS_23basic_wrap_stringstreamIT_EES5_RKT0_
FNDA:10,_ZN5boostlsIcA18_cEERNS_23basic_wrap_stringstreamIT_EES5_RKT0_
FN:64,_ZN5boostlsIcA14_cEERNS_23basic_wrap_stringstreamIT_EES5_RKT0_
FNDA:15,_ZN5boostlsIcA14_cEERNS_23basic_wrap_stringstreamIT_EES5_RKT0_
FN:64,_ZN5boostlsIcA19_cEERNS_23basic_wrap_stringstreamIT_EES5_RKT0_
FNDA:35,_ZN5boostlsIcA19_cEERNS_23basic_wrap_stringstreamIT_EES5_RKT0_
FN:64,_ZN5boostlsIcA13_cEERNS_23basic_wrap_stringstreamIT_EES5_RKT0_
FNDA:15,_ZN5boostlsIcA13_cEERNS_23basic_wrap_stringstreamIT_EES5_RKT0_
FN:64,_ZN5boostlsIcA16_cEERNS_23basic_wrap_stringstreamIT_EES5_RKT0_
FNDA:15,_ZN5boostlsIcA16_cEERNS_23basic_wrap_stringstreamIT_EES5_RKT0_
FN:64,_ZN5boostlsIcA15_cEERNS_23basic_wrap_stringstreamIT_EES5_RKT0_
FNDA:35,_ZN5boostlsIcA15_cEERNS_23basic_wrap_stringstreamIT_EES5_RKT0_
FN:64,_ZN5boostlsIcA26_cEERNS_23basic_wrap_stringstreamIT_EES5_RKT0_
FNDA:5,_ZN5boostlsIcA26_cEERNS_23basic_wrap_stringstreamIT_EES5_RKT0_
FN:64,_ZN5boostlsIccEERNS_23basic_wrap_stringstreamIT_EES4_RKT0_
FNDA:75,_ZN5boostlsIccEERNS_23basic_wrap_stringstreamIT_EES4_RKT0_
FN:74,_ZN5boost23basic_wrap_stringstreamIcE6streamB5cxx11Ev
FNDA:225,_ZN5boost23basic_wrap_stringstreamIcE6streamB5cxx11Ev
FN:83,_ZN5boost23basic_wrap_stringstreamIcE3refEv
FNDA:75,_ZN5boost23basic_wrap_stringstreamIcE3refEv
FN:92,_ZN5boost23basic_wrap_stringstreamIcE3strB5cxx11Ev
FNDA:75,_ZN5boost23basic_wrap_stringstreamIcE3strB5cxx11Ev
DA:64,5
DA:66,5
DA:67,5
DA:64,10
DA:66,10
DA:67,10
DA:64,5
DA:66,5
DA:67,5
DA:64,10
DA:66,10
DA:67,10
DA:64,15
DA:66,15
DA:67,15
DA:64,35
DA:66,35
DA:67,35
DA:64,15
DA:66,15
DA:67,15
DA:64,15
DA:66,15
DA:67,15
DA:64,35
DA:66,35
DA:67,35
DA:64,5
DA:66,5
DA:67,5
DA:64,75
DA:66,75
DA:67,75
DA:74,225
DA:76,225
DA:83,75
DA:85,75
DA:92,75
DA:99,75
DA:102,75
end_of_record
SF:/usr/include/boost/test/unit_test_suite.hpp
FN:387,_Z14init_unit_testv
FNDA:1,_Z14init_unit_testv
DA:387,1
DA:394,1
end_of_record
SF:/usr/include/c++/11/ext/type_traits.h
FN:152,_ZN9__gnu_cxx17__is_null_pointerIKcEEbPT_
FNDA:8,_ZN9__gnu_cxx17__is_null_pointerIKcEEbPT_
DA:152,8
DA:153,8
end_of_record
SF:/usr/include/boost/type_traits/integral_constant.hpp
FN:80,_ZNK5boost17integral_constantIbLb0EEcvRKN4mpl_5bool_ILb0EEEEv
FNDA:3,_ZNK5boost17integral_constantIbLb0EEcvRKN4mpl_5bool_ILb0EEEEv
DA:80,3
DA:84,3
end_of_record
SF:/usr/include/c++/11/ext/new_allocator.h
FN:79,_ZN9__gnu_cxx13new_allocatorIcEC2Ev
FNDA:0,_ZN9__gnu_cxx13new_allocatorIcEC2Ev
FN:89,_ZN9__gnu_cxx13new_allocatorIcED2Ev
FNDA:0,_ZN9__gnu_cxx13new_allocatorIcED2Ev
DA:79,0
DA:89,0
end_of_record
SF:/usr/include/c++/11/iostream
end_of_record
SF:/usr/include/boost/test/tools/detail/fwd.hpp
FN:45,_ZN5boost10test_tools9tt_detail10dummy_condEv
FNDA:99,_ZN5boost10test_tools9tt_detail10dummy_condEv
DA:45,99
end_of_record
SF:/usr/include/boost/test/tools/assertion_result.hpp
FN:52,_ZN5boost10test_tools16assertion_resultC2Eb
FNDA:54,_ZN5boost10test_tools16assertion_resultC2Eb
FN:65,_ZN5boost10test_tools16assertion_result19readonly_property65C2Eb
FNDA:54,_ZN5boost10test_tools16assertion_result19readonly_property65C2Eb
DA:52,54
DA:53,54
DA:54,54
DA:65,54
end_of_record
SF:/usr/include/c++/11/bits/ios_base.h
FN:728,_ZNSt8ios_base9precisionEl
FNDA:0,_ZNSt8ios_base9precisionEl
DA:728,0
DA:730,0
DA:731,0
DA:732,0
end_of_record
SF:/usr/include/c++/11/bits/random.h
FN:136,_ZNSt8__detail4_ModImLm624ELm1ELm0ELb1ELb1EE6__calcEm
FNDA:623,_ZNSt8__detail4_ModImLm624ELm1ELm0ELb1ELb1EE6__calcEm
FN:136,_ZNSt8__detail4_ModImLm4294967296ELm1ELm0ELb1ELb1EE6__calcEm
FNDA:624,_ZNSt8__detail4_ModImLm4294967296ELm1ELm0ELb1ELb1EE6__calcEm
FN:147,_ZNSt8__detail5__modImLm624ELm1ELm0EEET_S1_
FNDA:623,_ZNSt8__detail5__modImLm624ELm1ELm0EEET_S1_
FN:147,_ZNSt8__detail5__modImLm4294967296ELm1ELm0EEET_S1_
FNDA:624,_ZNSt8__detail5__modImLm4294967296ELm1ELm0EEET_S1_
FN:530,_ZNSt23mersenne_twister_engineImLm32ELm624ELm397ELm31ELm2567483615ELm11ELm4294967295ELm7ELm2636928640ELm15ELm4022730752ELm18ELm1812433253EEC2Em
FNDA:1,_ZNSt23mersenne_twister_engineImLm32ELm624ELm397ELm31ELm2567483615ELm11ELm4294967295ELm7ELm2636928640ELm15ELm4022730752ELm18ELm1812433253EEC2Em
FN:1618,_ZNSt13random_deviceC2Ev
FNDA:1,_ZNSt13random_deviceC2Ev
FN:1624,_ZNSt13random_deviceD2Ev
FNDA:1,_ZNSt13random_deviceD2Ev
FN:1647,_ZNSt13random_deviceclEv
FNDA:1,_ZNSt13random_deviceclEv
DA:136,623
DA:138,623
DA:140,623
DA:141,623
DA:136,624
DA:138,624
DA:140,624
DA:141,624
DA:147,623
DA:154,623
DA:155,623
DA:147,624
DA:154,624
DA:155,624
DA:530,1
DA:531,1
DA:1618,1
DA:1624,1
DA:1625,1
DA:1647,1
DA:1648,1
end_of_record
SF:/usr/include/c++/11/bits/random.tcc
FN:323,_ZNSt23mersenne_twister_engineImLm32ELm624ELm397ELm31ELm2567483615ELm11ELm4294967295ELm7ELm2636928640ELm15ELm4022730752ELm18ELm1812433253EE4seedEm
FNDA:1,_ZNSt23mersenne_twister_engineImLm32ELm624ELm397ELm31ELm2567483615ELm11ELm4294967295ELm7ELm2636928640ELm15ELm4022730752ELm18ELm1812433253EE4seedEm
FN:394,_ZNSt23mersenne_twister_engineImLm32ELm624ELm397ELm31ELm2567483615ELm11ELm4294967295ELm7ELm2636928640ELm15ELm4022730752ELm18ELm1812433253EE11_M_gen_randEv
FNDA:1,_ZNSt23mersenne_twister_engineImLm32ELm624ELm397ELm31ELm2567483615ELm11ELm4294967295ELm7ELm2636928640ELm15ELm4022730752ELm18ELm1812433253EE11_M_gen_randEv
FN:450,_ZNSt23mersenne_twister_engineImLm32ELm624ELm397ELm31ELm2567483615ELm11ELm4294967295ELm7ELm2636928640ELm15ELm4022730752ELm18ELm1812433253EEclEv
FNDA:450,_ZNSt23mersenne_twister_engineImLm32ELm624ELm397ELm31ELm2567483615ELm11ELm4294967295ELm7ELm2636928640ELm15ELm4022730752ELm18ELm1812433253EEclEv
DA:323,1
DA:327,1
DA:328,1
DA:330,624
DA:332,623
DA:333,623
DA:334,623
DA:335,623
DA:336,623
DA:337,623
DA:339,1
DA:340,1
DA:394,1
DA:398,1
DA:399,1
DA:401,228
DA:403,227
DA:404,227
DA:405,454
DA:406,227
DA:409,397
DA:411,396
DA:412,396
DA:413,792
DA:414,396
DA:417,1
DA:418,1
DA:419,2
DA:420,1
DA:421,1
DA:422,1
DA:450,450
DA:455,450
DA:456,1
DA:459,450
DA:460,450
DA:461,450
DA:462,450
DA:463,450
DA:465,450
end_of_record
SF:/usr/include/boost/type_index/stl_type_index.hpp
FN:93,_ZN5boost9typeindex14stl_type_indexC2ERKSt9type_info
FNDA:0,_ZN5boost9typeindex14stl_type_indexC2ERKSt9type_info
FN:117,_ZNK5boost9typeindex14stl_type_index9type_infoEv
FNDA:0,_ZNK5boost9typeindex14stl_type_index9type_infoEv
FN:206,_ZNK5boost9typeindex14stl_type_index5equalERKS1_
FNDA:0,_ZNK5boost9typeindex14stl_type_index5equalERKS1_
FN:226,_ZN5boost9typeindex14stl_type_index7type_idIPFvvEEES1_v
FNDA:0,_ZN5boost9typeindex14stl_type_index7type_idIPFvvEEES1_v
DA:93,0
DA:94,0
DA:95,0
DA:117,0
DA:118,0
DA:206,0
DA:210,0
DA:226,0
DA:246,0
end_of_record
SF:/usr/include/boost/test/utils/basic_cstring/basic_cstring.hpp
FN:83,_ZN5boost9unit_test13basic_cstringIKcEC2IiEEPS2_T_
FNDA:0,_ZN5boost9unit_test13basic_cstringIKcEC2IiEEPS2_T_
FN:83,_ZN5boost9unit_test13basic_cstringIKcEC2ImEEPS2_T_
FNDA:194,_ZN5boost9unit_test13basic_cstringIKcEC2ImEEPS2_T_
FN:206,_ZN5boost9unit_test13basic_cstringIKcE8null_strEv
FNDA:58,_ZN5boost9unit_test13basic_cstringIKcE8null_strEv
FN:215,_ZN5boost9unit_test13basic_cstringIKcEC2Ev
FNDA:58,_ZN5boost9unit_test13basic_cstringIKcEC2Ev
FN:225,_ZN5boost9unit_test13basic_cstringIKcEC2ERKS3_
FNDA:36,_ZN5boost9unit_test13basic_cstringIKcEC2ERKS3_
FN:235,_ZN5boost9unit_test13basic_cstringIKcEC2ERKNSt7__cxx1112basic_stringIcSt11char_traitsIcESaIcEEE
FNDA:90,_ZN5boost9unit_test13basic_cstringIKcEC2ERKNSt7__cxx1112basic_stringIcSt11char_traitsIcESaIcEEE
FN:245,_ZN5boost9unit_test13basic_cstringIKcEC2EPS2_
FNDA:33,_ZN5boost9unit_test13basic_cstringIKcEC2EPS2_
FN:286,_ZNK5boost9unit_test13basic_cstringIKcE4sizeEv
FNDA:2,_ZNK5boost9unit_test13basic_cstringIKcE4sizeEv
FN:295,_ZNK5boost9unit_test13basic_cstringIKcE8is_emptyEv
FNDA:2,_ZNK5boost9unit_test13basic_cstringIKcE8is_emptyEv
FN:313,_ZN5boost9unit_test13basic_cstringIKcE5clearEv
FNDA:0,_ZN5boost9unit_test13basic_cstringIKcE5clearEv
FN:345,_ZN5boost9unit_test13basic_cstringIKcE9trim_leftEPS2_
FNDA:1,_ZN5boost9unit_test13basic_cstringIKcE9trim_leftEPS2_
FN:358,_ZN5boost9unit_test13basic_cstringIKcE9trim_leftES3_
FNDA:1,_ZN5boost9unit_test13basic_cstringIKcE9trim_leftES3_
FN:389,_ZN5boost9unit_test13basic_cstringIKcE10trim_rightEPS2_
FNDA:1,_ZN5boost9unit_test13basic_cstringIKcE10trim_rightEPS2_
FN:402,_ZN5boost9unit_test13basic_cstringIKcE10trim_rightES3_
FNDA:1,_ZN5boost9unit_test13basic_cstringIKcE10trim_rightES3_
FN:421,_ZN5boost9unit_test13basic_cstringIKcE4trimES3_
FNDA:1,_ZN5boost9unit_test13basic_cstringIKcE4trimES3_
FN:433,_ZN5boost9unit_test13basic_cstringIKcEaSERKS3_
FNDA:0,_ZN5boost9unit_test13basic_cstringIKcEaSERKS3_
FN:507,_ZN5boost9unit_test13basic_cstringIKcE5beginEv
FNDA:4,_ZN5boost9unit_test13basic_cstringIKcE5beginEv
FN:516,_ZNK5boost9unit_test13basic_cstringIKcE5beginEv
FNDA:0,_ZNK5boost9unit_test13basic_cstringIKcE5beginEv
FN:525,_ZN5boost9unit_test13basic_cstringIKcE3endEv
FNDA:2,_ZN5boost9unit_test13basic_cstringIKcE3endEv
FN:534,_ZNK5boost9unit_test13basic_cstringIKcE3endEv
FNDA:0,_ZNK5boost9unit_test13basic_cstringIKcE3endEv
FN:600,_ZN5boost9unit_test13basic_cstringIKcE15default_trim_exEv
FNDA:0,_ZN5boost9unit_test13basic_cstringIKcE15default_trim_exEv
DA:83,0
DA:83,194
DA:206,58
DA:208,58
DA:215,58
DA:216,58
DA:217,58
DA:219,58
DA:225,36
DA:226,36
DA:227,36
DA:229,36
DA:235,90
DA:236,90
DA:237,90
DA:239,90
DA:245,33
DA:246,33
DA:247,33
DA:249,33
DA:286,2
DA:288,2
DA:295,2
DA:297,2
DA:313,0
DA:315,0
DA:316,0
DA:345,1
DA:347,1
DA:348,1
DA:349,0
DA:351,1
DA:358,1
DA:360,1
DA:361,0
DA:364,1
DA:365,1
DA:366,1
DA:369,1
DA:389,1
DA:391,1
DA:392,1
DA:393,0
DA:395,1
DA:402,1
DA:404,1
DA:405,0
DA:409,1
DA:410,1
DA:411,1
DA:414,1
DA:421,1
DA:423,1
DA:424,1
DA:426,1
DA:433,0
DA:435,0
DA:436,0
DA:438,0
DA:507,4
DA:509,4
DA:516,0
DA:518,0
DA:525,2
DA:527,2
DA:534,0
DA:536,0
DA:600,0
DA:604,0
end_of_record
SF:/usr/include/c++/11/bits/stl_iterator_base_types.h
FN:238,_ZSt19__iterator_categoryIPKcENSt15iterator_traitsIT_E17iterator_categoryERKS3_
FNDA:8,_ZSt19__iterator_categoryIPKcENSt15iterator_traitsIT_E17iterator_categoryERKS3_
DA:238,8
DA:239,8
end_of_record
SF:/usr/include/boost/test/utils/basic_cstring/io.hpp
FN:51,_ZN5boost9unit_testlsIcSt11char_traitsIcEKcEERSt13basic_ostreamIT_T0_ES9_RKNS0_13basic_cstringIT1_EE
FNDA:0,_ZN5boost9unit_testlsIcSt11char_traitsIcEKcEERSt13basic_ostreamIT_T0_ES9_RKNS0_13basic_cstringIT1_EE
DA:51,0
DA:53,0
DA:54,0
DA:55,0
DA:57,0
end_of_record
SF:/usr/include/c++/11/bits/basic_string.tcc
FN:206,_ZNSt7__cxx1112basic_stringIcSt11char_traitsIcESaIcEE12_M_constructIPKcEEvT_S8_St20forward_iterator_tag
FNDA:8,_ZNSt7__cxx1112basic_stringIcSt11char_traitsIcESaIcEE12_M_constructIPKcEEvT_S8_St20forward_iterator_tag
DA:206,8
DA:211,8
DA:212,0
DA:215,8
DA:217,8
DA:219,2
DA:220,2
DA:225,8
DA:226,0
DA:228,0
DA:229,0
DA:232,8
DA:233,8
end_of_record
SF:/usr/include/boost/test/unit_test.hpp
FN:62,main
FNDA:1,main
DA:62,1
DA:64,1
end_of_record
SF:/usr/include/c++/11/bits/stl_iterator_base_funcs.h
FN:98,_ZSt10__distanceIPKcENSt15iterator_traitsIT_E15difference_typeES3_S3_St26random_access_iterator_tag
FNDA:8,_ZSt10__distanceIPKcENSt15iterator_traitsIT_E15difference_typeES3_S3_St26random_access_iterator_tag
FN:138,_ZSt8distanceIPKcENSt15iterator_traitsIT_E15difference_typeES3_S3_
FNDA:8,_ZSt8distanceIPKcENSt15iterator_traitsIT_E15difference_typeES3_S3_
DA:98,8
DA:104,8
DA:138,8
DA:141,8
DA:142,16
end_of_record
SF:/usr/include/boost/core/ignore_unused.hpp
DA:18,4
end_of_record
SF:/usr/include/boost/test/tree/test_unit.hpp
FN:263,_ZN5boost9unit_test14make_test_caseERKNS_8functionIFvvEEENS0_13basic_cstringIKcEES8_m
FNDA:15,_ZN5boost9unit_test14make_test_caseERKNS_8functionIFvvEEENS0_13basic_cstringIKcEES8_m
DA:263,15
DA:265,15
end_of_record
SF:/usr/include/boost/function/function_template.hpp
FN:112,_ZN5boost6detail8function22void_function_invoker0IPFvvEvE6invokeERNS1_15function_bufferE
FNDA:15,_ZN5boost6detail8function22void_function_invoker0IPFvvEvE6invokeERNS1_15function_bufferE
FN:490,_ZNK5boost6detail8function13basic_vtable0IvE9assign_toIPFvvEEEbT_RNS1_15function_bufferE
FNDA:15,_ZNK5boost6detail8function13basic_vtable0IvE9assign_toIPFvvEEEbT_RNS1_15function_bufferE
FN:502,_ZNK5boost6detail8function13basic_vtable0IvE5clearERNS1_15function_bufferE
FNDA:15,_ZNK5boost6detail8function13basic_vtable0IvE5clearERNS1_15function_bufferE
FN:512,_ZNK5boost6detail8function13basic_vtable0IvE9assign_toIPFvvEEEbT_RNS1_15function_bufferENS1_16function_ptr_tagE
FNDA:15,_ZNK5boost6detail8function13basic_vtable0IvE9assign_toIPFvvEEEbT_RNS1_15function_bufferENS1_16function_ptr_tagE
FN:677,_ZNK5boost9function0IvE10get_vtableEv
FNDA:0,_ZNK5boost9function0IvE10get_vtableEv
FN:711,_ZN5boost9function0IvEC2IPFvvEEET_NS_10enable_if_IXntsrNS_11is_integralIS5_EE5valueEiE4typeE
FNDA:15,_ZN5boost9function0IvEC2IPFvvEEET_NS_10enable_if_IXntsrNS_11is_integralIS5_EE5valueEiE4typeE
FN:756,_ZN5boost9function0IvED2Ev
FNDA:15,_ZN5boost9function0IvED2Ev
FN:868,_ZN5boost9function0IvE5clearEv
FNDA:15,_ZN5boost9function0IvE5clearEv
FN:921,_ZN5boost9function0IvE9assign_toIPFvvEEEvT_
FNDA:15,_ZN5boost9function0IvE9assign_toIPFvvEEEvT_
FN:1079,_ZN5boost8functionIFvvEEC2IPS1_EET_NS_10enable_if_IXntsrNS_11is_integralIS5_EE5valueEiE4typeE
FNDA:15,_ZN5boost8functionIFvvEEC2IPS1_EET_NS_10enable_if_IXntsrNS_11is_integralIS5_EE5valueEiE4typeE
DA:112,15
DA:116,15
DA:117,15
DA:118,15
DA:490,15
DA:493,15
DA:502,15
DA:504,15
DA:505,15
DA:506,15
DA:512,15
DA:514,15
DA:515,15
DA:518,15
DA:519,15
DA:521,0
DA:677,0
DA:679,0
DA:711,15
DA:718,15
DA:720,15
DA:721,15
DA:756,15
DA:868,15
DA:870,15
DA:871,15
DA:872,0
DA:873,15
DA:875,15
DA:921,15
DA:942,15
DA:943,15
DA:948,15
DA:949,15
DA:951,0
DA:952,15
DA:1079,15
DA:1086,15
DA:1088,15
end_of_record
SF:/usr/include/boost/smart_ptr/detail/shared_count.hpp
FN:127,_ZN5boost6detail12shared_countC2Ev
FNDA:54,_ZN5boost6detail12shared_countC2Ev
FN:430,_ZN5boost6detail12shared_countD2Ev
FNDA:54,_ZN5boost6detail12shared_countD2Ev
DA:127,54
DA:132,54
DA:430,54
DA:432,54
DA:436,54
end_of_record
SF:/usr/include/boost/test/tools/detail/print_helper.hpp
FN:52,_ZN5boost10test_tools9tt_detail4impl21boost_test_print_typeINSt7__cxx1112basic_stringIcSt11char_traitsIcESaIcEEEEERSoSA_RKT_
FNDA:0,_ZN5boost10test_tools9tt_detail4impl21boost_test_print_typeINSt7__cxx1112basic_stringIcSt11char_traitsIcESaIcEEEEERSoSA_RKT_
FN:61,_ZNK5boost10test_tools9tt_detail4impl26boost_test_print_type_implclINSt7__cxx1112basic_stringIcSt11char_traitsIcESaIcEEEEERSoSB_RKT_
FNDA:0,_ZNK5boost10test_tools9tt_detail4impl26boost_test_print_type_implclINSt7__cxx1112basic_stringIcSt11char_traitsIcESaIcEEEEERSoSB_RKT_
FN:83,_ZN5boost10test_tools9tt_detail15print_log_valueINSt7__cxx1112basic_stringIcSt11char_traitsIcESaIcEEEEclERSoRKS8_
FNDA:0,_ZN5boost10test_tools9tt_detail15print_log_valueINSt7__cxx1112basic_stringIcSt11char_traitsIcESaIcEEEEclERSoRKS8_
FN:97,_ZN5boost10test_tools9tt_detail15print_log_valueINSt7__cxx1112basic_stringIcSt11char_traitsIcESaIcEEEE13set_precisionERSoN4mpl_5bool_ILb0EEE
FNDA:0,_ZN5boost10test_tools9tt_detail15print_log_valueINSt7__cxx1112basic_stringIcSt11char_traitsIcESaIcEEEE13set_precisionERSoN4mpl_5bool_ILb0EEE
FN:188,_ZN5boost10test_tools9tt_detail14print_helper_tINSt7__cxx1112basic_stringIcSt11char_traitsIcESaIcEEEEC2ERKS8_
FNDA:6,_ZN5boost10test_tools9tt_detail14print_helper_tINSt7__cxx1112basic_stringIcSt11char_traitsIcESaIcEEEEC2ERKS8_
FN:209,_ZN5boost10test_tools9tt_detail12print_helperINSt7__cxx1112basic_stringIcSt11char_traitsIcESaIcEEEEENS1_14print_helper_tIT_EERKSA_
FNDA:6,_ZN5boost10test_tools9tt_detail12print_helperINSt7__cxx1112basic_stringIcSt11char_traitsIcESaIcEEEEENS1_14print_helper_tIT_EERKSA_
FN:218,_ZN5boost10test_tools9tt_detaillsINSt7__cxx1112basic_stringIcSt11char_traitsIcESaIcEEEEERSoS9_RKNS1_14print_helper_tIT_EE
FNDA:0,_ZN5boost10test_tools9tt_detaillsINSt7__cxx1112basic_stringIcSt11char_traitsIcESaIcEEEEERSoS9_RKNS1_14print_helper_tIT_EE
DA:52,0
DA:55,0
DA:56,0
DA:61,0
DA:62,0
DA:83,0
DA:87,0
DA:91,0
DA:93,0
DA:94,0
DA:95,0
DA:97,0
DA:115,0
DA:188,6
DA:209,6
DA:211,6
DA:218,0
DA:220,0
DA:222,0
end_of_record
TN:
SF:/home/danilglock-18/laba3/zad1/cpp/node.h
FN:21,_ZN11TwoListNodeC2ENSt7__cxx1112basic_stringIcSt11char_traitsIcESaIcEEE
FNDA:55,_ZN11TwoListNodeC2ENSt7__cxx1112basic_stringIcSt11char_traitsIcESaIcEEE
DA:21,55
end_of_record
SF:/usr/include/c++/11/bits/alloc_traits.h
FN:562,_ZNSt16allocator_traitsISaIcEE37select_on_container_copy_constructionERKS0_
FNDA:0,_ZNSt16allocator_traitsISaIcEE37select_on_container_copy_constructionERKS0_
DA:562,0
DA:563,0
end_of_record
SF:/home/danilglock-18/laba3/zad1/cpp/twolist.cpp
FN:8,_ZN7TwoListC2Ev
FNDA:18,_ZN7TwoListC2Ev
FN:13,_ZN7TwoListD2Ev
FNDA:18,_ZN7TwoListD2Ev
FN:22,_ZN7TwoList9addToHeadERKNSt7__cxx1112basic_stringIcSt11char_traitsIcESaIcEEE
FNDA:4,_ZN7TwoList9addToHeadERKNSt7__cxx1112basic_stringIcSt11char_traitsIcESaIcEEE
FN:36,_ZN7TwoList9addToTailERKNSt7__cxx1112basic_stringIcSt11char_traitsIcESaIcEEE
FNDA:48,_ZN7TwoList9addToTailERKNSt7__cxx1112basic_stringIcSt11char_traitsIcESaIcEEE
FN:50,_ZN7TwoList13addAfterValueERKNSt7__cxx1112basic_stringIcSt11char_traitsIcESaIcEEES7_
FNDA:2,_ZN7TwoList13addAfterValueERKNSt7__cxx1112basic_stringIcSt11char_traitsIcESaIcEEES7_
FN:70,_ZN7TwoList14addBeforeValueERKNSt7__cxx1112basic_stringIcSt11char_traitsIcESaIcEEES7_
FNDA:2,_ZN7TwoList14addBeforeValueERKNSt7__cxx1112basic_stringIcSt11char_traitsIcESaIcEEES7_
FN:91,_ZN7TwoList14removeFromHeadEv
FNDA:6,_ZN7TwoList14removeFromHeadEv
FN:106,_ZN7TwoList14removeFromTailEv
FNDA:3,_ZN7TwoList14removeFromTailEv
FN:121,_ZN7TwoList16removeAfterValueERKNSt7__cxx1112basic_stringIcSt11char_traitsIcESaIcEEE
FNDA:2,_ZN7TwoList16removeAfterValueERKNSt7__cxx1112basic_stringIcSt11char_traitsIcESaIcEEE
FN:141,_ZN7TwoList17removeBeforeValueERKNSt7__cxx1112basic_stringIcSt11char_traitsIcESaIcEEE
FNDA:3,_ZN7TwoList17removeBeforeValueERKNSt7__cxx1112basic_stringIcSt11char_traitsIcESaIcEEE
FN:162,_ZN7TwoList13removeByValueERKNSt7__cxx1112basic_stringIcSt11char_traitsIcESaIcEEE
FNDA:3,_ZN7TwoList13removeByValueERKNSt7__cxx1112basic_stringIcSt11char_traitsIcESaIcEEE
FN:189,_ZNK7TwoList17getElementByValueERKNSt7__cxx1112basic_stringIcSt11char_traitsIcESaIcEEE
FNDA:5,_ZNK7TwoList17getElementByValueERKNSt7__cxx1112basic_stringIcSt11char_traitsIcESaIcEEE
FN:198,_ZNK7TwoList9findByValERKNSt7__cxx1112basic_stringIcSt11char_traitsIcESaIcEEE
FNDA:17,_ZNK7TwoList9findByValERKNSt7__cxx1112basic_stringIcSt11char_traitsIcESaIcEEE
FN:210,_ZNK7TwoList5printEv
FNDA:20,_ZNK7TwoList5printEv
FN:228,_ZNK7TwoList10saveToFileERSt14basic_ofstreamIcSt11char_traitsIcEE
FNDA:1,_ZNK7TwoList10saveToFileERSt14basic_ofstreamIcSt11char_traitsIcEE
FN:239,_ZN7TwoList12loadFromFileERSt14basic_ifstreamIcSt11char_traitsIcEE
FNDA:1,_ZN7TwoList12loadFromFileERSt14basic_ifstreamIcSt11char_traitsIcEE
FN:249,_ZNK7TwoList16saveToBinaryFileERSt14basic_ofstreamIcSt11char_traitsIcEE
FNDA:1,_ZNK7TwoList16saveToBinaryFileERSt14basic_ofstreamIcSt11char_traitsIcEE
FN:263,_ZN7TwoList18loadFromBinaryFileERSt14basic_ifstreamIcSt11char_traitsIcEE
FNDA:1,_ZN7TwoList18loadFromBinaryFileERSt14basic_ifstreamIcSt11char_traitsIcEE
DA:8,18
DA:9,18
DA:10,18
DA:11,18
DA:13,18
DA:14,18
DA:15,63
DA:16,45
DA:17,45
DA:18,45
DA:20,18
DA:22,4
DA:23,4
DA:24,4
DA:25,4
DA:26,1
DA:27,1
DA:28,1
DA:30,3
DA:31,3
DA:32,3
DA:34,4
DA:36,48
DA:37,48
DA:38,48
DA:39,48
DA:40,14
DA:41,14
DA:42,14
DA:44,34
DA:45,34
DA:46,34
DA:48,48
DA:50,2
DA:51,2
DA:52,2
DA:53,0
DA:56,2
DA:57,2
DA:58,2
DA:60,2
DA:61,1
DA:63,2
DA:65,2
DA:66,1
DA:68,2
DA:70,2
DA:71,2
DA:72,2
DA:73,0
DA:76,2
DA:77,1
DA:78,1
DA:81,1
DA:82,1
DA:83,1
DA:85,1
DA:86,1
DA:88,1
DA:91,6
DA:92,6
DA:93,1
DA:95,5
DA:96,5
DA:97,2
DA:98,2
DA:100,3
DA:101,3
DA:103,5
DA:104,5
DA:106,3
DA:107,3
DA:108,1
DA:110,2
DA:111,2
DA:112,1
DA:113,1
DA:115,1
DA:116,1
DA:118,2
DA:119,2
DA:121,2
DA:122,2
DA:123,2
DA:124,1
DA:127,1
DA:128,1
DA:130,1
DA:131,1
DA:134,1
DA:135,0
DA:138,1
DA:139,1
DA:141,3
DA:142,3
DA:143,3
DA:144,1
DA:147,2
DA:148,1
DA:149,1
DA:152,1
DA:153,1
DA:155,1
DA:156,1
DA:159,1
DA:162,3
DA:163,3
DA:164,3
DA:165,0
DA:168,3
DA:169,2
DA:170,2
DA:173,1
DA:174,0
DA:175,0
DA:178,1
DA:179,1
DA:182,1
DA:183,1
DA:186,1
DA:189,5
DA:191,5
DA:192,5
DA:193,0
DA:195,5
DA:198,17
DA:200,17
DA:201,33
DA:202,32
DA:203,16
DA:205,16
DA:207,1
DA:210,20
DA:211,20
DA:212,3
DA:213,3
DA:215,17
DA:216,17
DA:217,73
DA:218,56
DA:219,56
DA:220,39
DA:222,56
DA:224,17
DA:228,1
DA:229,1
DA:230,0
DA:232,1
DA:233,6
DA:234,5
DA:235,5
DA:239,1
DA:240,1
DA:241,0
DA:243,1
DA:244,6
DA:245,5
DA:247,1
DA:249,1
DA:250,1
DA:251,0
DA:253,1
DA:254,6
DA:255,5
DA:256,5
DA:257,5
DA:258,5
DA:259,5
DA:263,1
DA:264,1
DA:265,0
DA:267,6
DA:269,5
DA:270,5
DA:271,0
DA:273,5
DA:274,5
DA:275,5
DA:276,5
DA:277,5
DA:278,5
end_of_record
SF:/usr/include/c++/11/bits/move.h
FN:104,_ZSt4moveIRSaIcEEONSt16remove_referenceIT_E4typeEOS3_
FNDA:0,_ZSt4moveIRSaIcEEONSt16remove_referenceIT_E4typeEOS3_
FN:104,_ZSt4moveIRNSt7__cxx1112basic_stringIcSt11char_traitsIcESaIcEEEEONSt16remove_referenceIT_E4typeEOS8_
FNDA:55,_ZSt4moveIRNSt7__cxx1112basic_stringIcSt11char_traitsIcESaIcEEEEONSt16remove_referenceIT_E4typeEOS8_
DA:104,0
DA:105,0
DA:104,55
DA:105,55
end_of_record
SF:/usr/include/c++/11/ext/type_traits.h
FN:152,_ZN9__gnu_cxx17__is_null_pointerIcEEbPT_
FNDA:0,_ZN9__gnu_cxx17__is_null_pointerIcEEbPT_
FN:152,_ZN9__gnu_cxx17__is_null_pointerIKcEEbPT_
FNDA:0,_ZN9__gnu_cxx17__is_null_pointerIKcEEbPT_
DA:152,0
DA:153,0
DA:152,0
DA:153,0
end_of_record
SF:/usr/include/c++/11/bits/basic_string.h
FN:251,_ZNSt7__cxx1112basic_stringIcSt11char_traitsIcESaIcEE16_M_construct_auxIPcEEvT_S7_St12__false_type
FNDA:0,_ZNSt7__cxx1112basic_stringIcSt11char_traitsIcESaIcEE16_M_construct_auxIPcEEvT_S7_St12__false_type
FN:271,_ZNSt7__cxx1112basic_stringIcSt11char_traitsIcESaIcEE12_M_constructIPcEEvT_S7_
FNDA:0,_ZNSt7__cxx1112basic_stringIcSt11char_traitsIcESaIcEE12_M_constructIPcEEvT_S7_
FN:533,_ZNSt7__cxx1112basic_stringIcSt11char_traitsIcESaIcEEC2IS3_EEPKcRKS3_
FNDA:0,_ZNSt7__cxx1112basic_stringIcSt11char_traitsIcESaIcEEC2IS3_EEPKcRKS3_
FN:6234,_ZSteqIcEN9__gnu_cxx11__enable_ifIXsrSt9__is_charIT_E7__valueEbE6__typeERKNSt7__cxx1112basic_stringIS3_St11char_traitsIS3_ESaIS3_EEESE_
FNDA:0,_ZSteqIcEN9__gnu_cxx11__enable_ifIXsrSt9__is_charIT_E7__valueEbE6__typeERKNSt7__cxx1112basic_stringIS3_St11char_traitsIS3_ESaIS3_EEESE_
DA:251,0
DA:255,0
DA:256,0
DA:271,0
DA:274,0
DA:275,0
DA:533,0
DA:534,0
DA:536,0
DA:539,0
DA:540,0
DA:6234,0
DA:6236,0
DA:6237,0
DA:6238,0
end_of_record
SF:/usr/include/c++/11/bits/char_traits.h
FN:106,_ZN9__gnu_cxx11char_traitsIcE2eqERKcS3_
FNDA:0,_ZN9__gnu_cxx11char_traitsIcE2eqERKcS3_
FN:167,_ZN9__gnu_cxx11char_traitsIcE6lengthEPKc
FNDA:0,_ZN9__gnu_cxx11char_traitsIcE6lengthEPKc
FN:364,_ZNSt11char_traitsIcE2ltERKcS2_
FNDA:0,_ZNSt11char_traitsIcE2ltERKcS2_
FN:372,_ZNSt11char_traitsIcE7compareEPKcS2_m
FNDA:0,_ZNSt11char_traitsIcE7compareEPKcS2_m
FN:393,_ZNSt11char_traitsIcE6lengthEPKc
FNDA:0,_ZNSt11char_traitsIcE6lengthEPKc
FN:429,_ZNSt11char_traitsIcE4copyEPcPKcm
FNDA:0,_ZNSt11char_traitsIcE4copyEPcPKcm
DA:106,0
DA:107,0
DA:167,0
DA:170,0
DA:171,0
DA:172,0
DA:173,0
DA:290,0
DA:364,0
DA:367,0
DA:368,0
DA:372,0
DA:374,0
DA:375,0
DA:377,0
DA:379,0
DA:381,0
DA:382,0
DA:383,0
DA:384,0
DA:385,0
DA:386,0
DA:389,0
DA:393,0
DA:396,0
DA:397,0
DA:399,0
DA:429,0
DA:431,0
DA:432,0
DA:437,0
end_of_record
SF:/usr/include/c++/11/ext/new_allocator.h
FN:79,_ZN9__gnu_cxx13new_allocatorIcEC2Ev
FNDA:0,_ZN9__gnu_cxx13new_allocatorIcEC2Ev
FN:82,_ZN9__gnu_cxx13new_allocatorIcEC2ERKS1_
FNDA:0,_ZN9__gnu_cxx13new_allocatorIcEC2ERKS1_
FN:89,_ZN9__gnu_cxx13new_allocatorIcED2Ev
FNDA:0,_ZN9__gnu_cxx13new_allocatorIcED2Ev
DA:79,0
DA:82,0
DA:89,0
end_of_record
SF:/usr/include/c++/11/iostream
end_of_record
SF:/usr/include/c++/11/bits/stl_iterator_base_funcs.h
FN:98,_ZSt10__distanceIPcENSt15iterator_traitsIT_E15difference_typeES2_S2_St26random_access_iterator_tag
FNDA:0,_ZSt10__distanceIPcENSt15iterator_traitsIT_E15difference_typeES2_S2_St26random_access_iterator_tag
FN:98,_ZSt10__distanceIPKcENSt15iterator_traitsIT_E15difference_typeES3_S3_St26random_access_iterator_tag
FNDA:0,_ZSt10__distanceIPKcENSt15iterator_traitsIT_E15difference_typeES3_S3_St26random_access_iterator_tag
FN:138,_ZSt8distanceIPcENSt15iterator_traitsIT_E15difference_typeES2_S2_
FNDA:0,_ZSt8distanceIPcENSt15iterator_traitsIT_E15difference_typeES2_S2_
FN:138,_ZSt8distanceIPKcENSt15iterator_traitsIT_E15difference_typeES3_S3_
FNDA:0,_ZSt8distanceIPKcENSt15iterator_traitsIT_E15difference_typeES3_S3_
DA:98,0
DA:104,0
DA:98,0
DA:104,0
DA:138,0
DA:141,0
DA:142,0
DA:138,0
DA:141,0
DA:142,0
end_of_record
SF:/usr/include/c++/11/bits/basic_string.tcc
FN:206,_ZNSt7__cxx1112basic_stringIcSt11char_traitsIcESaIcEE12_M_constructIPcEEvT_S7_St20forward_iterator_tag
FNDA:0,_ZNSt7__cxx1112basic_stringIcSt11char_traitsIcESaIcEE12_M_constructIPcEEvT_S7_St20forward_iterator_tag
FN:206,_ZNSt7__cxx1112basic_stringIcSt11char_traitsIcESaIcEE12_M_constructIPKcEEvT_S8_St20forward_iterator_tag
FNDA:0,_ZNSt7__cxx1112basic_stringIcSt11char_traitsIcESaIcEE12_M_constructIPKcEEvT_S8_St20forward_iterator_tag
DA:206,0
DA:211,0
DA:212,0
DA:215,0
DA:217,0
DA:219,0
DA:220,0
DA:225,0
DA:226,0
DA:228,0
DA:229,0
DA:232,0
DA:233,0
DA:206,0
DA:211,0
DA:212,0
DA:215,0
DA:217,0
DA:219,0
DA:220,0
DA:225,0
DA:226,0
DA:228,0
DA:229,0
DA:232,0
DA:233,0
end_of_record
SF:/usr/include/c++/11/bits/stl_iterator_base_types.h
FN:238,_ZSt19__iterator_categoryIPcENSt15iterator_traitsIT_E17iterator_categoryERKS2_
FNDA:0,_ZSt19__iterator_categoryIPcENSt15iterator_traitsIT_E17iterator_categoryERKS2_
FN:238,_ZSt19__iterator_categoryIPKcENSt15iterator_traitsIT_E17iterator_categoryERKS3_
FNDA:0,_ZSt19__iterator_categoryIPKcENSt15iterator_traitsIT_E17iterator_categoryERKS3_
DA:238,0
DA:239,0
DA:238,0
DA:239,0
end_of_record
SF:/usr/include/c++/11/ext/alloc_traits.h
FN:97,_ZN9__gnu_cxx14__alloc_traitsISaIcEcE17_S_select_on_copyERKS1_
FNDA:0,_ZN9__gnu_cxx14__alloc_traitsISaIcEcE17_S_select_on_copyERKS1_
DA:97,0
DA:98,0
end_of_record
